AARCH64 GAS  C:\Users\A01169~1\AppData\Local\Temp\ccRWduX2.s 			page 1


   1              		.arch armv8-a
   2              		.file	"main.c"
   3              		.text
   4              		.align	2
   5              		.p2align 4,,15
   6              		.global	timer_handler
   7              		.type	timer_handler, %function
   8              	timer_handler:
   9 0000 00000090 		adrp	x0, .LANCHOR0
  10 0004 21008052 		mov	w1, 1
  11 0008 010000B9 		str	w1, [x0, #:lo12:.LANCHOR0]
  12 000c C0035FD6 		ret
  13              		.size	timer_handler, .-timer_handler
  14              		.align	2
  15              		.p2align 4,,15
  16              		.global	thread_1
  17              		.type	thread_1, %function
  18              	thread_1:
  19 0010 F353BEA9 		stp	x19, x20, [sp, -32]!
  20 0014 13000090 		adrp	x19, .LC0
  21 0018 73020091 		add	x19, x19, :lo12:.LC0
  22 001c 146889D2 		mov	x20, 19264
  23 0020 9409A0F2 		movk	x20, 0x4c, lsl 16
  24 0024 FE0B00F9 		str	x30, [sp, 16]
  25              		.p2align 3
  26              	.L4:
  27 0028 E00314AA 		mov	x0, x20
  28 002c 00000094 		bl	hal_timer_delay_microsecs
  29 0030 E00313AA 		mov	x0, x19
  30 0034 00000094 		bl	kprintf
  31 0038 FCFFFF17 		b	.L4
  32              		.size	thread_1, .-thread_1
  33              		.align	2
  34 003c 1F2003D5 		.p2align 4,,15
  35              		.global	thread_2
  36              		.type	thread_2, %function
  37              	thread_2:
  38 0040 F37BBDA9 		stp	x19, x30, [sp, -48]!
  39 0044 01F080D2 		mov	x1, 1920
  40 0048 00F580D2 		mov	x0, 1960
  41 004c 0105C0F2 		movk	x1, 0x28, lsl 32
  42 0050 000AC0F2 		movk	x0, 0x50, lsl 32
  43 0054 93848452 		mov	w19, 9252
  44 0058 7304A072 		movk	w19, 0x23, lsl 16
  45 005c E10302A9 		stp	x1, x0, [sp, 32]
  46 0060 0E000014 		b	.L10
  47              		.p2align 2
  48              	.L7:
  49 0064 E0830091 		add	x0, sp, 32
  50 0068 00000094 		bl	hal_video_put_pixel_area
  51 006c E12740B9 		ldr	w1, [sp, 36]
  52 0070 E02F40B9 		ldr	w0, [sp, 44]
  53 0074 21040011 		add	w1, w1, 1
  54 0078 E12700B9 		str	w1, [sp, 36]
  55 007c 00040011 		add	w0, w0, 1
  56 0080 E02F00B9 		str	w0, [sp, 44]
  57              	.L11:
AARCH64 GAS  C:\Users\A01169~1\AppData\Local\Temp\ccRWduX2.s 			page 2


  58 0084 E11F8052 		mov	w1, 255
  59 0088 E0830091 		add	x0, sp, 32
  60 008c 00000094 		bl	hal_video_put_pixel_area
  61 0090 008E92D2 		mov	x0, 38000
  62 0094 00000094 		bl	hal_timer_delay_microsecs
  63              	.L10:
  64 0098 E17F0091 		add	x1, sp, 31
  65 009c 00008052 		mov	w0, 0
  66 00a0 00000094 		bl	hal_io_serial_nonblocking_getc
  67 00a4 E103132A 		mov	w1, w19
  68 00a8 E0FDFF34 		cbz	w0, .L7
  69 00ac E27F4039 		ldrb	w2, [sp, 31]
  70 00b0 E0830091 		add	x0, sp, 32
  71 00b4 5F840171 		cmp	w2, 97
  72 00b8 60010054 		beq	.L15
  73 00bc 00000094 		bl	hal_video_put_pixel_area
  74 00c0 E30B4429 		ldp	w3, w2, [sp, 32]
  75 00c4 E1034529 		ldp	w1, w0, [sp, 40]
  76 00c8 63280011 		add	w3, w3, 10
  77 00cc 42040011 		add	w2, w2, 1
  78 00d0 21280011 		add	w1, w1, 10
  79              	.L14:
  80 00d4 00040011 		add	w0, w0, 1
  81 00d8 E30B0429 		stp	w3, w2, [sp, 32]
  82 00dc E1030529 		stp	w1, w0, [sp, 40]
  83 00e0 E9FFFF17 		b	.L11
  84              		.p2align 2
  85              	.L15:
  86 00e4 E0830091 		add	x0, sp, 32
  87 00e8 00000094 		bl	hal_video_put_pixel_area
  88 00ec E30B4429 		ldp	w3, w2, [sp, 32]
  89 00f0 E1034529 		ldp	w1, w0, [sp, 40]
  90 00f4 63280051 		sub	w3, w3, #10
  91 00f8 42040011 		add	w2, w2, 1
  92 00fc 21280051 		sub	w1, w1, #10
  93 0100 F5FFFF17 		b	.L14
  94              		.size	thread_2, .-thread_2
  95              		.align	2
  96 0104 1F2003D5 		.p2align 4,,15
  96      1F2003D5 
  96      1F2003D5 
  97              		.global	thread_3
  98              		.type	thread_3, %function
  99              	thread_3:
 100 0110 F353BCA9 		stp	x19, x20, [sp, -64]!
 101 0114 13000090 		adrp	x19, .LANCHOR0
 102 0118 73020091 		add	x19, x19, :lo12:.LANCHOR0
 103 011c F76302A9 		stp	x23, x24, [sp, 32]
 104 0120 17000090 		adrp	x23, .LC1
 105 0124 F7020091 		add	x23, x23, :lo12:.LC1
 106 0128 F97B03A9 		stp	x25, x30, [sp, 48]
 107 012c 19000090 		adrp	x25, .LC2
 108 0130 39030091 		add	x25, x25, :lo12:.LC2
 109 0134 78BA8952 		mov	w24, 19923
 110 0138 580CA272 		movk	w24, 0x1062, lsl 16
 111 013c 14008052 		mov	w20, 0
 112 0140 F55B01A9 		stp	x21, x22, [sp, 16]
AARCH64 GAS  C:\Users\A01169~1\AppData\Local\Temp\ccRWduX2.s 			page 3


 113 0144 35008052 		mov	w21, 1
 114              		.p2align 3
 115              	.L17:
 116 0148 600240B9 		ldr	w0, [x19]
 117 014c E0FFFF34 		cbz	w0, .L17
 118 0150 00008052 		mov	w0, 0
 119 0154 00000094 		bl	hal_timer_read_count
 120 0158 E103152A 		mov	w1, w21
 121 015c F60300AA 		mov	x22, x0
 122 0160 BF060071 		cmp	w21, 1
 123 0164 1400144B 		sub	w20, w0, w20
 124 0168 29010054 		bls	.L18
 125 016c 947EB89B 		umull	x20, w20, w24
 126 0170 E00317AA 		mov	x0, x23
 127 0174 82FE66D3 		lsr	x2, x20, 38
 128 0178 00000094 		bl	kprintf
 129              	.L19:
 130 017c B5060011 		add	w21, w21, 1
 131 0180 F403162A 		mov	w20, w22
 132 0184 7F0200B9 		str	wzr, [x19]
 133 0188 F0FFFF17 		b	.L17
 134              		.p2align 2
 135              	.L18:
 136 018c E00319AA 		mov	x0, x25
 137 0190 00000094 		bl	kprintf
 138 0194 FAFFFF17 		b	.L19
 139              		.size	thread_3, .-thread_3
 140              		.align	2
 141 0198 1F2003D5 		.p2align 4,,15
 141      1F2003D5 
 142              		.global	kernel_main
 143              		.type	kernel_main, %function
 144              	kernel_main:
 145 01a0 F353BEA9 		stp	x19, x20, [sp, -32]!
 146 01a4 14B091D2 		mov	x20, 36224
 147 01a8 740BA0F2 		movk	x20, 0x5b, lsl 16
 148 01ac FE0B00F9 		str	x30, [sp, 16]
 149 01b0 00000094 		bl	system_init
 150 01b4 20008052 		mov	w0, 1
 151 01b8 01000090 		adrp	x1, thread_1
 152 01bc 21000091 		add	x1, x1, :lo12:thread_1
 153 01c0 00000094 		bl	hal_cpu_thread_start
 154 01c4 40008052 		mov	w0, 2
 155 01c8 01000090 		adrp	x1, thread_2
 156 01cc 21000091 		add	x1, x1, :lo12:thread_2
 157 01d0 00000094 		bl	hal_cpu_thread_start
 158 01d4 01000090 		adrp	x1, thread_3
 159 01d8 21000091 		add	x1, x1, :lo12:thread_3
 160 01dc 60008052 		mov	w0, 3
 161 01e0 00000094 		bl	hal_cpu_thread_start
 162 01e4 00008052 		mov	w0, 0
 163 01e8 13000090 		adrp	x19, .LC3
 164 01ec 73020091 		add	x19, x19, :lo12:.LC3
 165 01f0 00000094 		bl	hal_timer_start_poll
 166 01f4 02000090 		adrp	x2, timer_handler
 167 01f8 42000091 		add	x2, x2, :lo12:timer_handler
 168 01fc 01D89852 		mov	w1, 50880
AARCH64 GAS  C:\Users\A01169~1\AppData\Local\Temp\ccRWduX2.s 			page 4


 169 0200 A105A072 		movk	w1, 0x2d, lsl 16
 170 0204 20008052 		mov	w0, 1
 171 0208 00000094 		bl	hal_timer_start_int
 172 020c 1F2003D5 		.p2align 3
 173              	.L25:
 174 0210 E00314AA 		mov	x0, x20
 175 0214 00000094 		bl	hal_timer_delay_microsecs
 176 0218 E00313AA 		mov	x0, x19
 177 021c 00000094 		bl	kprintf
 178 0220 FCFFFF17 		b	.L25
 179              		.size	kernel_main, .-kernel_main
 180              		.align	2
 181 0224 1F2003D5 		.p2align 4,,15
 181      1F2003D5 
 181      1F2003D5 
 182              		.global	abs
 183              		.type	abs, %function
 184              	abs:
 185 0230 C0035FD6 		ret
 186              		.size	abs, .-abs
 187              		.align	2
 188 0234 1F2003D5 		.p2align 4,,15
 188      1F2003D5 
 188      1F2003D5 
 189              		.global	ms_to_us
 190              		.type	ms_to_us, %function
 191              	ms_to_us:
 192 0240 017D8052 		mov	w1, 1000
 193 0244 007C011B 		mul	w0, w0, w1
 194 0248 C0035FD6 		ret
 195              		.size	ms_to_us, .-ms_to_us
 196              		.align	2
 197 024c 1F2003D5 		.p2align 4,,15
 198              		.global	secs_to_us
 199              		.type	secs_to_us, %function
 200              	secs_to_us:
 201 0250 01488852 		mov	w1, 16960
 202 0254 E101A072 		movk	w1, 0xf, lsl 16
 203 0258 007C011B 		mul	w0, w0, w1
 204 025c C0035FD6 		ret
 205              		.size	secs_to_us, .-secs_to_us
 206              		.align	2
 207              		.p2align 4,,15
 208              		.global	systick_diff_to_ms
 209              		.type	systick_diff_to_ms, %function
 210              	systick_diff_to_ms:
 211 0260 0000014B 		sub	w0, w0, w1
 212 0264 61BA8952 		mov	w1, 19923
 213 0268 410CA272 		movk	w1, 0x1062, lsl 16
 214 026c 007CA19B 		umull	x0, w0, w1
 215 0270 00FC66D3 		lsr	x0, x0, 38
 216 0274 C0035FD6 		ret
 217              		.size	systick_diff_to_ms, .-systick_diff_to_ms
 218              		.global	tick_happened
 219              		.bss
 220              		.align	2
 221              		.set	.LANCHOR0,. + 0
AARCH64 GAS  C:\Users\A01169~1\AppData\Local\Temp\ccRWduX2.s 			page 5


 222              		.type	tick_happened, %object
 223              		.size	tick_happened, 4
 224              	tick_happened:
 225 0000 00000000 		.zero	4
 226              		.section	.rodata.str1.8,"aMS",@progbits,1
 227              		.align	3
 228              	.LC0:
 229 0000 54687265 		.string	"Thread 1 in Core 1\n"
 229      61642031 
 229      20696E20 
 229      436F7265 
 229      20310A00 
 230 0014 00000000 		.zero	4
 231              	.LC1:
 232 0018 5469636B 		.string	"Tick. (count: %d, time since last tick: %d milliseconds)\n"
 232      2E202863 
 232      6F756E74 
 232      3A202564 
 232      2C207469 
 233 0052 00000000 		.zero	6
 233      0000
 234              	.LC2:
 235 0058 5469636B 		.string	"Tick. (count: %d) \n"
 235      2E202863 
 235      6F756E74 
 235      3A202564 
 235      29200A00 
 236 006c 00000000 		.zero	4
 237              	.LC3:
 238 0070 4D61696E 		.string	"Main Thread in Core 0\n"
 238      20546872 
 238      65616420 
 238      696E2043 
 238      6F726520 
 239              		.ident	"GCC: (GNU Toolchain for the A-profile Architecture 8.3-2019.03 (arm-rel-8.36)) 8.3.0"
AARCH64 GAS  C:\Users\A01169~1\AppData\Local\Temp\ccRWduX2.s 			page 6


DEFINED SYMBOLS
                            *ABS*:0000000000000000 main.c
C:\Users\A01169~1\AppData\Local\Temp\ccRWduX2.s:4      .text:0000000000000000 $x
C:\Users\A01169~1\AppData\Local\Temp\ccRWduX2.s:8      .text:0000000000000000 timer_handler
C:\Users\A01169~1\AppData\Local\Temp\ccRWduX2.s:18     .text:0000000000000010 thread_1
C:\Users\A01169~1\AppData\Local\Temp\ccRWduX2.s:37     .text:0000000000000040 thread_2
C:\Users\A01169~1\AppData\Local\Temp\ccRWduX2.s:99     .text:0000000000000110 thread_3
C:\Users\A01169~1\AppData\Local\Temp\ccRWduX2.s:144    .text:00000000000001a0 kernel_main
C:\Users\A01169~1\AppData\Local\Temp\ccRWduX2.s:184    .text:0000000000000230 abs
C:\Users\A01169~1\AppData\Local\Temp\ccRWduX2.s:191    .text:0000000000000240 ms_to_us
C:\Users\A01169~1\AppData\Local\Temp\ccRWduX2.s:200    .text:0000000000000250 secs_to_us
C:\Users\A01169~1\AppData\Local\Temp\ccRWduX2.s:210    .text:0000000000000260 systick_diff_to_ms
C:\Users\A01169~1\AppData\Local\Temp\ccRWduX2.s:224    .bss:0000000000000000 tick_happened
C:\Users\A01169~1\AppData\Local\Temp\ccRWduX2.s:220    .bss:0000000000000000 $d
C:\Users\A01169~1\AppData\Local\Temp\ccRWduX2.s:227    .rodata.str1.8:0000000000000000 $d

UNDEFINED SYMBOLS
hal_timer_delay_microsecs
kprintf
hal_video_put_pixel_area
hal_io_serial_nonblocking_getc
hal_timer_read_count
system_init
hal_cpu_thread_start
hal_timer_start_poll
hal_timer_start_int
AARCH64 GAS  C:\Users\A01169~1\AppData\Local\Temp\ccRWduX2.s 			page 1


   1              		.arch armv8-a
   2              		.file	"system.c"
   3              		.text
   4              		.align	2
   5              		.p2align 4,,15
   6              		.global	system_init
   7              		.type	system_init, %function
   8              	system_init:
   9 0000 F353BDA9 		stp	x19, x20, [sp, -48]!
  10 0004 14000090 		adrp	x20, .LC3
  11 0008 94020091 		add	x20, x20, :lo12:.LC3
  12 000c FE0F00F9 		str	x30, [sp, 24]
  13 0010 00000094 		bl	hal_io_serial_init
  14 0014 01000090 		adrp	x1, .LC0
  15 0018 21000091 		add	x1, x1, :lo12:.LC0
  16 001c 00008052 		mov	w0, 0
  17 0020 00000094 		bl	hal_io_serial_puts
  18 0024 00000094 		bl	hal_video_init
  19 0028 60010034 		cbz	w0, .L19
  20 002c 1F2003D5 		.p2align 3
  21              	.L2:
  22 0030 53018052 		mov	w19, 10
  23 0034 E00314AA 		mov	x0, x20
  24 0038 00000094 		bl	kprintf_debug
  25 003c 1F2003D5 		.p2align 3
  26              	.L5:
  27 0040 007D8052 		mov	w0, 1000
  28 0044 00000094 		bl	hal_cpu_delay
  29 0048 73060071 		subs	w19, w19, #1
  30 004c A1FFFF54 		bne	.L5
  31 0050 F8FFFF17 		b	.L2
  32              	.L19:
  33 0054 02000090 		adrp	x2, .LC1
  34 0058 42000091 		add	x2, x2, :lo12:.LC1
  35 005c 04608052 		mov	w4, 768
  36 0060 03A08052 		mov	w3, 1280
  37 0064 810C80D2 		mov	x1, 100
  38 0068 13000090 		adrp	x19, info_buf
  39 006c 73020091 		add	x19, x19, :lo12:info_buf
  40 0070 E00313AA 		mov	x0, x19
  41 0074 00000094 		bl	snprintf
  42 0078 80848452 		mov	w0, 9252
  43 007c 6004A072 		movk	w0, 0x23, lsl 16
  44 0080 00000094 		bl	hal_video_clear
  45 0084 02E09F52 		mov	w2, 65280
  46 0088 21008052 		mov	w1, 1
  47 008c E00313AA 		mov	x0, x19
  48 0090 00000094 		bl	hal_video_puts
  49 0094 E00313AA 		mov	x0, x19
  50 0098 00000094 		bl	kprintf_debug
  51 009c E0830091 		add	x0, sp, 32
  52 00a0 00000094 		bl	hal_cpu_init
  53 00a4 E5134529 		ldp	w5, w4, [sp, 40]
  54 00a8 810C80D2 		mov	x1, 100
  55 00ac E31340F9 		ldr	x3, [sp, 32]
  56 00b0 E00313AA 		mov	x0, x19
  57 00b4 02000090 		adrp	x2, .LC2
AARCH64 GAS  C:\Users\A01169~1\AppData\Local\Temp\ccRWduX2.s 			page 2


  58 00b8 42000091 		add	x2, x2, :lo12:.LC2
  59 00bc 00000094 		bl	snprintf
  60 00c0 02E09F52 		mov	w2, 65280
  61 00c4 21008052 		mov	w1, 1
  62 00c8 E00313AA 		mov	x0, x19
  63 00cc 00000094 		bl	hal_video_puts
  64 00d0 E00313AA 		mov	x0, x19
  65 00d4 00000094 		bl	kprintf_debug
  66 00d8 007D8052 		mov	w0, 1000
  67 00dc 00000094 		bl	hal_cpu_delay
  68 00e0 00000094 		bl	hal_sd_card_init
  69 00e4 00020034 		cbz	w0, .L3
  70 00e8 14000090 		adrp	x20, .LC5
  71 00ec 94020091 		add	x20, x20, :lo12:.LC5
  72              		.p2align 3
  73              	.L4:
  74 00f0 E21F8052 		mov	w2, 255
  75 00f4 21008052 		mov	w1, 1
  76 00f8 E00314AA 		mov	x0, x20
  77 00fc 00000094 		bl	hal_video_puts
  78 0100 53018052 		mov	w19, 10
  79 0104 E00314AA 		mov	x0, x20
  80 0108 00000094 		bl	kprintf_debug
  81 010c 1F2003D5 		.p2align 3
  82              	.L8:
  83 0110 007D8052 		mov	w0, 1000
  84 0114 00000094 		bl	hal_cpu_delay
  85 0118 73060071 		subs	w19, w19, #1
  86 011c A1FFFF54 		bne	.L8
  87 0120 F4FFFF17 		b	.L4
  88              	.L3:
  89 0124 13000090 		adrp	x19, .LC4
  90 0128 73020091 		add	x19, x19, :lo12:.LC4
  91 012c E00313AA 		mov	x0, x19
  92 0130 02E09F52 		mov	w2, 65280
  93 0134 21008052 		mov	w1, 1
  94 0138 00000094 		bl	hal_video_puts
  95 013c E00313AA 		mov	x0, x19
  96 0140 00000094 		bl	kprintf_debug
  97 0144 00000094 		bl	fat_init
  98 0148 60020034 		cbz	w0, .L6
  99 014c 14000090 		adrp	x20, .LC10
 100 0150 94020091 		add	x20, x20, :lo12:.LC10
 101 0154 F50B00F9 		str	x21, [sp, 16]
 102 0158 15000090 		adrp	x21, .LC9
 103 015c B5020091 		add	x21, x21, :lo12:.LC9
 104              	.L7:
 105 0160 E21F8052 		mov	w2, 255
 106 0164 21008052 		mov	w1, 1
 107 0168 E00315AA 		mov	x0, x21
 108 016c 00000094 		bl	hal_video_puts
 109 0170 53018052 		mov	w19, 10
 110 0174 E00314AA 		mov	x0, x20
 111 0178 00000094 		bl	kprintf_debug
 112 017c 1F2003D5 		.p2align 3
 113              	.L9:
 114 0180 007D8052 		mov	w0, 1000
AARCH64 GAS  C:\Users\A01169~1\AppData\Local\Temp\ccRWduX2.s 			page 3


 115 0184 00000094 		bl	hal_cpu_delay
 116 0188 73060071 		subs	w19, w19, #1
 117 018c A1FFFF54 		bne	.L9
 118 0190 F4FFFF17 		b	.L7
 119              	.L6:
 120 0194 13000090 		adrp	x19, .LC6
 121 0198 73020091 		add	x19, x19, :lo12:.LC6
 122 019c 02E09F52 		mov	w2, 65280
 123 01a0 21008052 		mov	w1, 1
 124 01a4 E00313AA 		mov	x0, x19
 125 01a8 00000094 		bl	hal_video_puts
 126 01ac E00313AA 		mov	x0, x19
 127 01b0 00000094 		bl	kprintf_debug
 128 01b4 13000090 		adrp	x19, .LC7
 129 01b8 73020091 		add	x19, x19, :lo12:.LC7
 130 01bc 00000094 		bl	hal_timer_init
 131 01c0 02E09F52 		mov	w2, 65280
 132 01c4 21008052 		mov	w1, 1
 133 01c8 E00313AA 		mov	x0, x19
 134 01cc 00000094 		bl	hal_video_puts
 135 01d0 E00313AA 		mov	x0, x19
 136 01d4 00000094 		bl	kprintf_debug
 137 01d8 00000090 		adrp	x0, .LC8
 138 01dc 00000091 		add	x0, x0, :lo12:.LC8
 139 01e0 00000094 		bl	kprintf
 140 01e4 FE0F40F9 		ldr	x30, [sp, 24]
 141 01e8 F353C3A8 		ldp	x19, x20, [sp], 48
 142 01ec C0035FD6 		ret
 143              		.size	system_init, .-system_init
 144              		.align	2
 145              		.p2align 4,,15
 146              		.global	wait_for_ten_secs
 147              		.type	wait_for_ten_secs, %function
 148              	wait_for_ten_secs:
 149 01f0 F37BBFA9 		stp	x19, x30, [sp, -16]!
 150 01f4 53018052 		mov	w19, 10
 151              		.p2align 3
 152              	.L21:
 153 01f8 007D8052 		mov	w0, 1000
 154 01fc 00000094 		bl	hal_cpu_delay
 155 0200 73060071 		subs	w19, w19, #1
 156 0204 A1FFFF54 		bne	.L21
 157 0208 F37BC1A8 		ldp	x19, x30, [sp], 16
 158 020c C0035FD6 		ret
 159              		.size	wait_for_ten_secs, .-wait_for_ten_secs
 160              		.comm	info_buf,100,8
 161              		.section	.rodata.str1.8,"aMS",@progbits,1
 162              		.align	3
 163              	.LC0:
 164 0000 53657269 		.string	"Serial Init [OK]\n\r"
 164      616C2049 
 164      6E697420 
 164      5B4F4B5D 
 164      0A0D00
 165 0013 00000000 		.zero	5
 165      00
 166              	.LC1:
AARCH64 GAS  C:\Users\A01169~1\AppData\Local\Temp\ccRWduX2.s 			page 4


 167 0018 56696465 		.string	"Video Init [OK] \n\r    resolution %d x %d\n\r"
 167      6F20496E 
 167      6974205B 
 167      4F4B5D20 
 167      0A0D2020 
 168 0043 00000000 		.zero	5
 168      00
 169              	.LC2:
 170 0048 43505520 		.string	"CPU Init [OK] \n\r    CPU: %s \n\r    cores: %d \n\r    speed: %d Mhz\n\r"
 170      496E6974 
 170      205B4F4B 
 170      5D200A0D 
 170      20202020 
 171 008a 00000000 		.zero	6
 171      0000
 172              	.LC3:
 173 0090 56696465 		.string	"Video Init [FAILED]. Cannot continue.\n\r"
 173      6F20496E 
 173      6974205B 
 173      4641494C 
 173      45445D2E 
 174              	.LC4:
 175 00b8 53442043 		.string	"SD Card Init [OK]\n\r"
 175      61726420 
 175      496E6974 
 175      205B4F4B 
 175      5D0A0D00 
 176 00cc 00000000 		.zero	4
 177              	.LC5:
 178 00d0 53442043 		.string	"SD Card Init [FAILED]. Cannot continue.\n\r"
 178      61726420 
 178      496E6974 
 178      205B4641 
 178      494C4544 
 179 00fa 00000000 		.zero	6
 179      0000
 180              	.LC6:
 181 0100 46696C65 		.string	"File System [OK]\n\r"
 181      20537973 
 181      74656D20 
 181      5B4F4B5D 
 181      0A0D00
 182 0113 00000000 		.zero	5
 182      00
 183              	.LC7:
 184 0118 54696D65 		.string	"Timers Init [OK]\n\r"
 184      72732049 
 184      6E697420 
 184      5B4F4B5D 
 184      0A0D00
 185 012b 00000000 		.zero	5
 185      00
 186              	.LC8:
 187 0130 0A0D00   		.string	"\n\r"
 188 0133 00000000 		.zero	5
 188      00
 189              	.LC9:
AARCH64 GAS  C:\Users\A01169~1\AppData\Local\Temp\ccRWduX2.s 			page 5


 190 0138 46696C65 		.string	"File System [FAILED]. Cannot continue.\n\r"
 190      20537973 
 190      74656D20 
 190      5B464149 
 190      4C45445D 
 191 0161 00000000 		.zero	7
 191      000000
 192              	.LC10:
 193 0168 46696C65 		.string	"File System [FAILED]\n\r"
 193      20537973 
 193      74656D20 
 193      5B464149 
 193      4C45445D 
 194              		.ident	"GCC: (GNU Toolchain for the A-profile Architecture 8.3-2019.03 (arm-rel-8.36)) 8.3.0"
AARCH64 GAS  C:\Users\A01169~1\AppData\Local\Temp\ccRWduX2.s 			page 6


DEFINED SYMBOLS
                            *ABS*:0000000000000000 system.c
C:\Users\A01169~1\AppData\Local\Temp\ccRWduX2.s:4      .text:0000000000000000 $x
C:\Users\A01169~1\AppData\Local\Temp\ccRWduX2.s:8      .text:0000000000000000 system_init
                            *COM*:0000000000000064 info_buf
C:\Users\A01169~1\AppData\Local\Temp\ccRWduX2.s:148    .text:00000000000001f0 wait_for_ten_secs
C:\Users\A01169~1\AppData\Local\Temp\ccRWduX2.s:162    .rodata.str1.8:0000000000000000 $d

UNDEFINED SYMBOLS
hal_io_serial_init
hal_io_serial_puts
hal_video_init
kprintf_debug
hal_cpu_delay
snprintf
hal_video_clear
hal_video_puts
hal_cpu_init
hal_sd_card_init
fat_init
hal_timer_init
kprintf
AARCH64 GAS  C:\Users\A01169~1\AppData\Local\Temp\ccRWduX2.s 			page 1


   1              	# 1 "src/smartstart/SmartStart64.S"
   1              	﻿;/*"++++++++++++++++++++++++++++++++++++++++++++++++++++++++++++++++++++++++"
   0              	
   0              	
   2              	;@"																			"
   3              	;@"      Filename: smartstart64.s											"
   4              	;@"      Copyright(c): Leon de Boer(LdB) 2017								"
   5              	;@"      Version: 2.03														"
   6              	;@"																			"
   7              	;@"***************[ THIS CODE IS FREEWARE UNDER CC Attribution]*************"
   8              	;@"																            "
   9              	;@"     This sourcecode is released for the purpose to promote programming  "
  10              	;@"  on the Raspberry Pi. You may redistribute it and/or modify with the    "
  11              	;@"  following disclaimer and condition.                                    "
  12              	;@"																            "
  13              	;@"      The SOURCE CODE is distributed "AS IS" WITHOUT WARRANTIES AS TO    "
  14              	;@"   PERFORMANCE OF MERCHANTABILITY WHETHER EXPRESSED OR IMPLIED.          "
  15              	;@"   Redistributions of source code must retain the copyright notices to   "
  16              	;@"   maintain the author credit (attribution) .							"
  17              	;@"																			"
  18              	;@"*************************************************************************"
  19              	;@"                                                                         "
  20              	;@"       This code expands on my earlier SmartStart bootstub assembler for "
  21              	;@" the Pi3. It directly supports multicore operation in C/C++. To do that  "
  22              	;@" it provides stack space to each core and provides a modified bootloader "
  23              	;@" spinlock that protects against registers X0-X7 trashed. As any C/C++    "
  24              	;@" 64 bit compiler will trash those registers, to use C/C++ in multicore   "
  25              	;@" programming this protection must be done.								"
  26              	;@"       This is a matching paired AARCH64 stub for the 64bit linker file  "
  27              	;@" and carries the samme arrangement as AARCH32 to ease porting.		    "
  28              	;@"																            "
  29              	;@"+++++++++++++++++++++++[ REVISIONS ]+++++++++++++++++++++++++++++++++++++"
  30              	;@"  1.01 Initial release .. Pi autodetection main aim                      "
  31              	;@"  1.02 Many functions moved out C to aide 32/64 bit compatability        "
  32              	;@"  2.01 Futher reductions to bare minmum assembeler code                  "
  33              	;@"  2.02 Multicore functionality added                                     "
  34              	;@"  2.03 Timer Irq support added  											"
  35              	;@"+++++++++++++++++++++++++++++++++++++++++++++++++++++++++++++++++++++++"*/
  36              	
  37              	.section ".text.startup", "ax", %progbits
  38              	.balign	4
  39              	.global _start
  40              	_start:
  41 0000 0C000010 		adr x12, _start							// Hold boot address in high register R12
  42 0004 610D0058 		ldr x1, =RPi_BootAddr					// Address of RPi_BootAddr
  43 0008 2C0000B9 		str w12, [x1]							// Store the boot address
  44              	
  45 000c 600D0058 		ldr	x0, =0x3F000000						// No need to detect address in 64bit mode it has to be 0x3F000000 on Pi3
  46 0010 810D0058 		ldr x1, =RPi_IO_Base_Addr				// Address of RPi_IO_Base_Addr
  47 0014 200000B9 		str w0, [x1]							// Store the IO base address
  48              	
  49 0018 200080D2 		mov x0, #1								// Multicore support starts as 1 core
  50 001c 610D0058 		ldr x1, =RPi_CoresReady					// Address of RPi_CoresReady
  51 0020 200000B9 		str w0, [x1]							// Store the CoresReady count as 1
  52              	
  53 0024 001380D2 		mov x0, #0x98							// Compiled for ARM8 CPU in AARCH64 and supports 4 cores
  54 0028 410D0058 		ldr x1, =RPi_CompileMode				// Address of RPi_CompileMode
AARCH64 GAS  C:\Users\A01169~1\AppData\Local\Temp\ccRWduX2.s 			page 2


  55 002c 200000B9 		str w0, [x1]							// Store the compiler mode
  56              	
  57 0030 000038D5 		mrs	x0, midr_el1						// Read CPU Id register
  58 0034 210D0058 		ldr x1, =RPi_CpuId						// Address of RPi_CpuId
  59 0038 200000B9 		str w0, [x1]							// Store the CPU id
  60              	
  61              	//"================================================================"
  62              	//  Initialize Generic Timers for Core0
  63              	//"================================================================"
  64 003c 00E13CD5 		mrs	x0, cnthctl_el2
  65 0040 000440B2 		orr	x0, x0, #0x3						/* Enable EL1 access to timers */
  66 0044 00E11CD5 		msr	cnthctl_el2, x0
  67 0048 7FE01CD5 		msr	cntvoff_el2, xzr
  68              	
  69              		/* Not sure if I want this yet */
  70 004c 00E138D5 		mrs	x0, cntkctl_el1
  71 0050 000440B2 		orr	x0, x0, #0x3						/* Enable EL0 access to timers */
  72 0054 00E118D5 		msr	cntkctl_el1, x0
  73              	
  74              	//"================================================================"
  75              	//  Setup stack pointers for each core and each CPU operation mode
  76              	//"================================================================"
  77              	multicore_start:
  78 0058 420C0058 	    ldr x2, = __EL2_stack_core0				// Address of EL2_stack_core0 stack pointer value
  79 005c 630C0058 	    ldr x3, = __EL1_stack_core0				// Address of EL1_stack_core0 stack pointer value
  80 0060 840C0058 	    ldr x4, = __EL0_stack_core0				// Address of EL0_stack_core0 stack pointer value
  81 0064 A60038D5 		mrs x6, mpidr_el1						// Read core id on ARM8
  82 0068 C60440F2 		ands x6, x6, #0x3						// Make cpu id bitmask
  83 006c C0010054 		beq set_stacks							// Ready to set core 0 stacks
  84 0070 420C0058 	    ldr x2, = __EL2_stack_core1				// Address of EL2_stack_core1 stack pointer value
  85 0074 630C0058 	    ldr x3, = __EL1_stack_core1				// Address of EL1_stack_core1 stack pointer value
  86 0078 840C0058 	    ldr x4, = __EL0_stack_core1				// Address of EL0_stack_core1 stack pointer value
  87 007c DF0400F1 		cmp x6, #1								// Check cpu id for core 1
  88 0080 20010054 		beq set_stacks							// Ready to set core 1 stacks
  89 0084 620C0058 	    ldr x2, = __EL2_stack_core2				// Address of EL2_stack_core2 stack pointer value
  90 0088 830C0058 	    ldr x3, = __EL1_stack_core2				// Address of EL1_stack_core2 stack pointer value
  91 008c A40C0058 	    ldr x4, = __EL0_stack_core2				// Address of EL0_stack_core2 stack pointer value
  92 0090 DF0800F1 		cmp x6, #2								// Check cpu id for core 2
  93 0094 80000054 		beq set_stacks							// Ready to set core 1 stacks
  94 0098 820C0058 	    ldr x2, = __EL2_stack_core3				// Address of EL2_stack_core3 stack pointer value
  95 009c A30C0058 	    ldr x3, = __EL1_stack_core3				// Address of EL1_stack_core3 stack pointer value
  96 00a0 C40C0058 	    ldr x4, = __EL0_stack_core3				// Address of EL0_stack_core3 stack pointer value
  97              	set_stacks:
  98 00a4 5F000091 		mov	sp, x2								/* EL2 stack set */
  99 00a8 03411CD5 		msr	sp_el1, x3							/* EL1 stack set */
 100 00ac 044118D5 		msr	sp_el0, x4							/* EL0 stack set */
 101              	
 102              	//"================================================================"
 103              	//  Initilize MPID/MPIDR registers for all Cores
 104              	//"================================================================"
 105 00b0 000038D5 		mrs	x0, midr_el1
 106 00b4 A10038D5 		mrs	x1, mpidr_el1
 107 00b8 00001CD5 		msr	vpidr_el2, x0
 108 00bc A1001CD5 		msr	vmpidr_el2, x1
 109              	
 110              	//"================================================================"
 111              	//  Disable coprocessor traps for all Cores
AARCH64 GAS  C:\Users\A01169~1\AppData\Local\Temp\ccRWduX2.s 			page 3


 112              	//"================================================================"
 113 00c0 E07F86D2 		mov	x0, #0x33ff
 114 00c4 40111CD5 		msr	cptr_el2, x0						// Disable coprocessor traps to EL2
 115 00c8 7F111CD5 		msr	hstr_el2, xzr						// Disable coprocessor traps to EL2
 116 00cc 0006A0D2 		mov	x0, #3 << 20
 117 00d0 401018D5 		msr	cpacr_el1, x0						// Enable FP/SIMD at EL1
 118              	
 119              	//"================================================================"
 120              	//  Initialize HCR_EL2 so EL1 is 64 bits for all Cores
 121              	//"================================================================"
 122 00d4 0000B0D2 		mov	x0, #(1 << 31)						// 64bit EL1
 123 00d8 00111CD5 		msr	hcr_el2, x0
 124              	
 125              	//"================================================================"
 126              	//  Initialize SCTLR_EL1 for all Cores
 127              	//"================================================================"
 128              	    /*  RES1 bits (29,28,23,22,20,11) to 1
 129              		 *  RES0 bits (31,30,27,21,17,13,10,6) +
 130              		 *  UCI,EE,EOE,WXN,nTWE,nTWI,UCT,DZE,I,UMA,SED,ITD,
 131              		 *  CP15BEN,SA0,SA,C,A,M to 0 */
 132 00dc 000081D2 		mov	x0, #0x0800
 133 00e0 001AA6F2 		movk	x0, #0x30d0, lsl #16
 134 00e4 00007EB2 		orr    x0, x0, #(0x1 << 2)            // The C bit on (data cache).
 135 00e8 000074B2 		orr    x0, x0, #(0x1 << 12)           // The I bit on (instruction cache)
 136 00ec 001018D5 		msr	sctlr_el1, x0
 137              	
 138              	//"================================================================"
 139              	//  Return to the EL1_SP1 mode from EL2 for all Cores
 140              	//"================================================================"
 141 00f0 A07880D2 		mov	x0, #0x3c5							// EL1_SP1 | D | A | I | F
 142 00f4 00401CD5 		msr	spsr_el2, x0						// Set spsr_el2 with settings
 143 00f8 60000010 		adr	x0, exit_el1						// Address to exit EL2
 144 00fc 20401CD5 		msr	elr_el2, x0							// Set elevated return register
 145 0100 E0039FD6 		eret									// Call elevated return
 146              	exit_el1:
 147 0104 A60038D5 		mrs x6, mpidr_el1						// Read core id on ARM8
 148 0108 C6044092 		and x6, x6, #0x3						// Make cpu id bitmask
 149 010c C60000B4 		cbz x6, cpu0_exit_multicore_park		// Core0 continues on
 150              	
 151              	//"================================================================"
 152              	//      Now park Core 1,2,3 into secondary spinloop on BCM2837
 153              	//"================================================================"
 154 0110 C1050058 		ldr x1, =RPi_CoresReady					// Address of CoreReady count
 155 0114 200040B9 		ldr w0, [x1]							// Load current core count
 156 0118 00040011 		add w0, w0, #1							// Add one as core about to go ready
 157 011c 200000B9 		str w0, [x1]							// Update CoreReady count
 158 0120 50000014 		b  StartSecondarySpin					// Jump to setup secondary spin
 159              	cpu0_exit_multicore_park:
 160              	
 161              	//"================================================================"
 162              	//  Set vector table for EL1 for Core0 (All others cores parked)
 163              	//"================================================================"
 164 0124 E0080058 	    ldr x0, =VectorTable
 165 0128 00C018D5 	    msr vbar_el1,x0
 166              	
 167              	//"================================================================"
 168              	//  About to go to into C kernel clear BSS (Core0 only)
AARCH64 GAS  C:\Users\A01169~1\AppData\Local\Temp\ccRWduX2.s 			page 4


 169              	//"================================================================"
 170 012c E3080058 		ldr x3, =__bss_end__
 171 0130 00090058 		ldr x0, =__bss_start__
 172 0134 1F0003EB 		cmp	x0, x3
 173 0138 82000054 		bcs	.bss_cleared
 174              	.bss_zero_loop:
 175 013c 1F4400B8 		str	wzr, [x0], 4
 176 0140 7F0000EB 		cmp	x3, x0
 177 0144 C8FFFF54 		bhi	.bss_zero_loop
 178              	.bss_cleared:
 179              	
 180              	//"================================================================"
 181              	//			Core0 will bring Core 1,2,3 to secondary spin
 182              	//"================================================================"
 183              	#define spin_cpu1 0xe0
 184 0148 011C80D2 		mov x1, #spin_cpu1						// Spin core1 jump address
 185 014c 62080058 		ldr x2, =multicore_start				// Function we are going to call
 186 0150 220000F9 		str	x2, [x1]							// Store the function address to core1
 187 0154 9F2003D5 		sev										// Wake core1 up
 188 0158 83030058 	 	ldr x3, =RPi_CoresReady					// Set CoresReady count address
 189              	.WaitCore1ACK:
 190 015c 610040B9 		ldr	w1, [x3]							// Read CoresReady count
 191 0160 3F080071 		cmp	w1, #2								// Wait for setting of second core ready
 192 0164 C1FFFF54 		bne	.WaitCore1ACK						// Core1 not ready so read again
 193              	#define spin_cpu2 0xe8
 194 0168 011D80D2 		mov x1, #spin_cpu2						// Spin core2 jump address
 195 016c 62070058 		ldr x2, =multicore_start				// Function we are going to call
 196 0170 220000F9 		str	x2, [x1]							// Store the function address to core2
 197 0174 9F2003D5 		sev										// Wake core2 up
 198 0178 83020058 	 	ldr x3, =RPi_CoresReady					// Set CoresReady count address
 199              	.WaitCore2ACK:
 200 017c 610040B9 		ldr	w1, [x3]							// Read CoresReady count
 201 0180 3F0C0071 		cmp	w1, #3								// Wait for setting of third core ready
 202 0184 C1FFFF54 		bne	.WaitCore2ACK						// Core2 not ready so read again
 203              	#define spin_cpu3 0xf0
 204 0188 011E80D2 		mov x1, #spin_cpu3						// Spin core3 jump address
 205 018c 62060058 		ldr x2, =multicore_start				// Function we are going to call
 206 0190 220000F9 		str	x2, [x1]							// Store the function address to core3
 207 0194 9F2003D5 		sev										// Wake core3 up
 208 0198 83010058 	 	ldr x3, =RPi_CoresReady					// Set CoresReady count address
 209              	.WaitCore3ACK:
 210 019c 610040B9 		ldr	w1, [x3]							// Read CoresReady count
 211 01a0 3F100071 		cmp	w1, #4								// Wait for setting of third core ready
 212 01a4 C1FFFF54 		bne	.WaitCore3ACK						// Core3 not ready so read again
 213              	
 214              	//"================================================================"
 215              	// Finally that all done Core0 jumps to the C compiler entry point
 216              	//"================================================================"
 217 01a8 00000014 		b kernel_main							// Jump out to C kernel
 218              	
 219              	/*================================================================"
 220              	      Just safety incase C code ever returns back
 221              	"================================================================*/
 222              	hang:
 223 01ac 00000014 		b hang
 224              	.balign	4
 225 01b0 00000000 	.ltorg										/* Tell assembler ltorg data for code above can go here */
AARCH64 GAS  C:\Users\A01169~1\AppData\Local\Temp\ccRWduX2.s 			page 5


 225      00000000 
 225      0000003F 
 225      00000000 
 225      00000000 
 226              	
 227              	
 228              	/*++++++++++++++++++++++++++++++++++++++++++++++++++++++++++++++++++++++++++}
 229              	{    Modified bootloader Spin loop but tolerant on registers X0-X7 for C    }
 230              	{++++++++++++++++++++++++++++++++++++++++++++++++++++++++++++++++++++++++++*/
 231              	#define spin_cpu0 0xd8
 232              	.balign	4
 233              	StartSecondarySpin:
 234 0260 A60038D5 		mrs x6, MPIDR_EL1						// Fetch core Id
 235 0264 C6044092 		and x6, x6, #0x3						// Create 2 bit mask of core Id
 236 0268 051B80D2 		mov x5, #spin_cpu0						// Load address of spins
 237 026c 010080D2 		mov x1, #0                              // zero x1 register
 238 0270 A17826F8 		str x1, [x5, x6, lsl #3]				// Make sure caller address is zeroed
 239              	secondary_spin:
 240 0274 5F2003D5 		wfe										// This is all I really want processor to sleep
 241 0278 A47866F8 	    ldr x4, [x5, x6, lsl #3]				// Fetch address that has been set
 242 027c C4FFFFB4 		cbz x4, secondary_spin					// If zero spin
 243 0280 000080D2 		mov x0, #0
 244 0284 A07826F8 		str x0, [x5, x6, lsl #3]				// Zero caller address
 245 0288 010080D2 		mov x1, #0
 246 028c 020080D2 		mov x2, #0
 247 0290 030080D2 		mov x3, #0
 248 0294 80003FD6 		blr x4									// Call the function set
 249 0298 F2FFFF17 		b StartSecondarySpin					// Loop back to spinlock
 250              	
 251              	
 252              	.global EnableInterrupts
 253              	EnableInterrupts:
 254 029c FF4203D5 		msr daifclr,#2
 255 02a0 C0035FD6 		ret
 256              	
 257              	.global DisableInterrupts
 258              	DisableInterrupts:
 259 02a4 DF4203D5 		msr daifset,#2
 260 02a8 C0035FD6 		ret
 261              	
 262              	.global CoreExecute
 263              	CoreExecute:
 264 02ac 001C40F2 		ands x0, x0, #255
 265 02b0 A0010054 		beq CoreExecuteFail
 266 02b4 E3010058 		ldr x3, =RPi_CoresReady
 267 02b8 620040B9 		ldr w2, [x3]							// Fetch cores ready count
 268 02bc 1F00026B 		cmp w0, w2
 269 02c0 22010054 		bcs	CoreExecuteFail
 270 02c4 060080D2 		mov x6, #0
 271 02c8 E603002A 		mov w6, w0
 272 02cc 051B80D2 		mov x5, #spin_cpu0						// Load address of spins
 273 02d0 A17826F8 		str x1, [x5, x6, lsl #3]				// Save caller address
 274 02d4 9F3F03D5 		dsb sy
 275 02d8 9F2003D5 		sev
 276 02dc 200080D2 		mov x0, #1
 277 02e0 C0035FD6 		ret
 278              	CoreExecuteFail:
AARCH64 GAS  C:\Users\A01169~1\AppData\Local\Temp\ccRWduX2.s 			page 6


 279 02e4 000080D2 		mov x0, #0
 280 02e8 C0035FD6 		ret
 281              	.balign	4
 282 02ec 00000000 	.ltorg										// Tell assembler ltorg data for this code can go here
 282      00000000 
 282      00000000 
 283              	
 284              	/*++++++++++++++++++++++++++++++++++++++++++++++++++++++++++++++++++++++++++}
 285              	{				IRQ HELPER ROUTINES PROVIDE BY RPi-SmartStart API		    }
 286              	{++++++++++++++++++++++++++++++++++++++++++++++++++++++++++++++++++++++++++*/
 287              	
 288              	/* "PROVIDE C FUNCTION: TimerIrqHandler setTimerIrqAddress ( TimerIrqHandler* ARMaddress);" */
 289              	.section .text.setTimerIrqAddress, "ax", %progbits
 290              	.balign	4
 291              	.global setTimerIrqAddress;
 292              	.type setTimerIrqAddress, %function
 293              	setTimerIrqAddress:
 294 0000 DF4203D5 		msr daifset,#2							// Disable irq interrupts as we are clearly changing call
 295 0004 A1000058 		ldr x1, =RPi_TimerIrqAddr				// Load address of function to call on interrupt
 296 0008 220040F9 		ldr x2, [x1]							// Load current irq call address
 297 000c 200000F9 		str x0, [x1]							// Store the new function pointer address we were given
 298 0010 E00302AA 		mov x0, x2								// return the old call function
 299 0014 C0035FD6 		ret										// Return
 300              	.balign	4
 301 0018 00000000 	.ltorg										// Tell assembler ltorg data for this code can go here
 301      00000000 
 302              	.size	setTimerIrqAddress, .-setTimerIrqAddress
 303              	
 304              	/*++++++++++++++++++++++++++++++++++++++++++++++++++++++++++++++++++++++++++}
 305              	{			VC4 ADDRESS HELPER ROUTINES PROVIDE BY RPi-SmartStart API	    }
 306              	{++++++++++++++++++++++++++++++++++++++++++++++++++++++++++++++++++++++++++*/
 307              	
 308              	/* "PROVIDE C FUNCTION: uint32_t ARMaddrToGPUaddr (void* ARMaddress);" */
 309              	.section .text.ARMaddrToGPUaddr, "ax", %progbits
 310              	.balign	4
 311              	.global ARMaddrToGPUaddr;
 312              	.type ARMaddrToGPUaddr, %function
 313              	//"================================================================"
 314              	// ARMaddrToGPUaddr -- AARCH64 Pi3 code
 315              	// C Function: uint32_t ARMaddrToGPUaddr (void* ARMaddress);
 316              	// Entry: x0 will have ARMAddress value
 317              	//"================================================================"
 318              	ARMaddrToGPUaddr:
 319 0000 0100B8D2 		mov x1, #0xC0000000						// ARM to VC conversion value
 320 0004 000001AA 		orr x0, x0, x1							// Create bus address
 321 0008 C0035FD6 		ret										// Return
 322              	.balign	4
 323              	.ltorg										// Tell assembler ltorg data for this code can go here
 324              	.size	ARMaddrToGPUaddr, .-ARMaddrToGPUaddr
 325              	
 326              	
 327              	/* "PROVIDE C FUNCTION: uint32_t GPUaddrToARMaddr (uint32_t BUSaddress);" */
 328              	.section .text.GPUaddrToARMaddr, "ax", %progbits
 329              	.balign	4
 330              	.global GPUaddrToARMaddr;
 331              	.type GPUaddrToARMaddr, %function
 332              	//"================================================================"
AARCH64 GAS  C:\Users\A01169~1\AppData\Local\Temp\ccRWduX2.s 			page 7


 333              	// GPUaddrToARMaddr -- AARCH64 Pi3 code
 334              	// C Function: uint32_t GPUaddrToARMaddr (uint32_t BUSaddress);
 335              	// Entry: x0 will have GPUAddress value
 336              	//"================================================================"
 337              	GPUaddrToARMaddr:
 338 0000 0100B8D2 		mov x1, #0xC0000000						// ARM to VC conversion value
 339 0004 0000218A 		bic x0, x0, x1							// Create arm address
 340 0008 C0035FD6 		ret										// Return
 341              	.balign	4
 342              	.ltorg										// Tell assembler ltorg data for this code can go here
 343              	.size	GPUaddrToARMaddr, .-GPUaddrToARMaddr
 344              	
 345              	
 346              	/* Synchronous handler */
 347              	.global synchronous_handler
 348 000c 00000014 		b hal_synchronous_handler
 349              	
 350              	
 351              	
 352              	/* Re-entrant interrupt handler stub */
 353              	/* http://infocenter.arm.com/help/index.jsp?topic=/com.arm.doc.den0024a/ch10s05.html */
 354              	.global irq_handler
 355              	irq_handler:
 356 0010 FD7BBFA9 		stp	x29, x30, [sp, #-16]!
 357 0014 FB73BFA9 		stp	x27, x28, [sp, #-16]!
 358 0018 F96BBFA9 		stp	x25, x26, [sp, #-16]!
 359 001c F763BFA9 		stp	x23, x24, [sp, #-16]!
 360 0020 F55BBFA9 		stp	x21, x22, [sp, #-16]!
 361 0024 F353BFA9 		stp	x19, x20, [sp, #-16]!
 362 0028 F14BBFA9 		stp	x17, x18, [sp, #-16]!
 363 002c EF43BFA9 		stp	x15, x16, [sp, #-16]!
 364 0030 ED3BBFA9 		stp	x13, x14, [sp, #-16]!
 365 0034 EB33BFA9 		stp	x11, x12, [sp, #-16]!
 366 0038 E92BBFA9 		stp	x9, x10, [sp, #-16]!
 367 003c E723BFA9 		stp	x7, x8, [sp, #-16]!
 368 0040 E51BBFA9 		stp	x5, x6, [sp, #-16]!
 369 0044 E313BFA9 		stp	x3, x4, [sp, #-16]!
 370 0048 E10BBFA9 		stp	x1, x2, [sp, #-16]!
 371 004c E00F1FF8 		str	x0, [sp, #-16]!
 372              	
 373 0050 014038D5 		mrs	x1, SPSR_EL1
 374 0054 224038D5 		mrs	x2, ELR_EL1
 375 0058 E10BBFA9 		stp	x1, x2, [sp, #-16]!
 376              	
 377              	
 378              		//  if (IRQ->IRQBasicPending.Timer_IRQ_pending) {				// Check irq on timer is triggered
 379              		//	  ARMTIMER->Clear = 1;										// Write any value to register to clear irq ... PAGE 198
 380              		//	  IRQ->IRQPending1 &= ~0x1;									// Clear timer pending irq bit 0
 381              		//  }
 382 005c 60790058 		ldr x0, =RPi_IO_Base_Addr
 383 0060 000040B9 		ldr	w0, [x0]						// Fetch Pi IO base address
 384 0064 03409652 		mov	w3, 45568						// W3 = 0xB200
 385 0068 0100030B 		add	w1, w0, w3						// W1 = Pi IO base addres + 0xB200
 386 006c 220040B9 		ldr	w2, [x1]						// W2 = IRQ->IRQBasicPending
 387 0070 E2000036 		tbz	x2, 0, .TimerIrqNotPending	    // If timer IRQ pending not yet exit
 388 0074 02809652 		mov	w2, 46080						// W2 = 0xB400
 389 0078 0000020B 		add	w0, w0, w2						// Add Pi Base Addr + 0xB400
AARCH64 GAS  C:\Users\A01169~1\AppData\Local\Temp\ccRWduX2.s 			page 8


 390 007c 020C00B9 		str	w2, [x0, 12]					// Store W2 to IRQPending1 clearing it
 391 0080 200440B9 		ldr	w0, [x1, 4]						// W0 = IRQPending1
 392 0084 00781F12 		and	w0, w0, -2						// Clear timer pending irq bit 0
 393 0088 200400B9 		str	w0, [x1, 4]						// Write IRQPending1 clearing
 394              	.TimerIrqNotPending:
 395              	
 396 008c FF4203D5 		msr daifclr,#2						// Enable irq interrupts
 397 0090 00780058 		ldr x0, =RPi_TimerIrqAddr			// Address to TimerIrqAddr
 398 0094 000040F9 		ldr x0, [x0]						// Load TimerIrqAddr value
 399 0098 600000B4 		cbz x0, no_irqset					// If zero no irq set
 400 009c 00003FD6 		blr x0								// Call Irqhandler that has been set
 401 00a0 DF4203D5 		msr daifset,#2						// Disable irq interrupts
 402              	no_irqset:
 403              	
 404              	
 405 00a4 E10BC1A8 		ldp	x1, x2, [sp], #16
 406 00a8 224018D5 		msr	ELR_EL1, x2
 407 00ac 014018D5 		msr	SPSR_EL1, x1
 408              	
 409 00b0 E00741F8 		ldr	x0, [sp], #16
 410 00b4 E10BC1A8 		ldp	x1, x2, [sp], #16
 411 00b8 E313C1A8 		ldp	x3, x4, [sp], #16
 412 00bc E51BC1A8 		ldp	x5, x6, [sp], #16
 413 00c0 E723C1A8 		ldp	x7, x8, [sp], #16
 414 00c4 E92BC1A8 		ldp	x9, x10, [sp], #16
 415 00c8 EB33C1A8 		ldp	x11, x12, [sp], #16
 416 00cc ED3BC1A8 		ldp	x13, x14, [sp], #16
 417 00d0 EF43C1A8 		ldp	x15, x16, [sp], #16
 418 00d4 F14BC1A8 		ldp	x17, x18, [sp], #16
 419 00d8 F353C1A8 		ldp	x19, x20, [sp], #16
 420 00dc F55BC1A8 		ldp	x21, x22, [sp], #16
 421 00e0 F763C1A8 		ldp	x23, x24, [sp], #16
 422 00e4 F96BC1A8 		ldp	x25, x26, [sp], #16
 423 00e8 FB73C1A8 		ldp	x27, x28, [sp], #16
 424 00ec FD7BC1A8 		ldp	x29, x30, [sp], #16
 425 00f0 E0039FD6 		eret
 426              	
 427              	/* macro to align handlers every 0x80 bytes */
 428              	.macro	vector handler
 429              	.balign 0x80
 430              	b	\handler
 431              	.endm
 432              	
 433 00f4 1F2003D5 	.balign 0x800
 433      1F2003D5 
 433      1F2003D5 
 433      1F2003D5 
 433      1F2003D5 
 434              	.global	VectorTable
 435              	VectorTable:
 436              		/* from current EL with sp_el0 */
 437 0800 00000014 		vector	_start			/* Synchronous */
 438 0804 1F2003D5 		vector  hang			/* IRQ */
 438      1F2003D5 
 438      1F2003D5 
 438      1F2003D5 
 438      1F2003D5 
AARCH64 GAS  C:\Users\A01169~1\AppData\Local\Temp\ccRWduX2.s 			page 9


 439 0884 1F2003D5 		vector	hang			/* FIQ */
 439      1F2003D5 
 439      1F2003D5 
 439      1F2003D5 
 439      1F2003D5 
 440 0904 1F2003D5 		vector	hang			/* SErrorStub */
 440      1F2003D5 
 440      1F2003D5 
 440      1F2003D5 
 440      1F2003D5 
 441              	
 442              		/* from current EL with sp_elx, x != 0 */
 443 0984 1F2003D5 		vector	hal_synchronous_handler			/* Synchronous */
 443      1F2003D5 
 443      1F2003D5 
 443      1F2003D5 
 443      1F2003D5 
 444 0a04 1F2003D5 		vector	irq_handler		/* IRQ */
 444      1F2003D5 
 444      1F2003D5 
 444      1F2003D5 
 444      1F2003D5 
 445 0a84 1F2003D5 		vector	hang			/* FIQ */
 445      1F2003D5 
 445      1F2003D5 
 445      1F2003D5 
 445      1F2003D5 
 446 0b04 1F2003D5 		vector	hang			/* SErrorStub */
 446      1F2003D5 
 446      1F2003D5 
 446      1F2003D5 
 446      1F2003D5 
 447              	
 448              		/* from lower EL, target EL minus 1 is AArch64 */
 449 0b84 1F2003D5 		vector	hang			/* Synchronous */
 449      1F2003D5 
 449      1F2003D5 
 449      1F2003D5 
 449      1F2003D5 
 450 0c04 1F2003D5 		vector  hang			/* IRQ */
 450      1F2003D5 
 450      1F2003D5 
 450      1F2003D5 
 450      1F2003D5 
 451 0c84 1F2003D5 		vector	hang			/* FIQ */
 451      1F2003D5 
 451      1F2003D5 
 451      1F2003D5 
 451      1F2003D5 
 452 0d04 1F2003D5 		vector	hang			/* SErrorStub */
 452      1F2003D5 
 452      1F2003D5 
 452      1F2003D5 
 452      1F2003D5 
 453              	
 454              		/* from lower EL, target EL minus 1 is AArch32 */
 455 0d84 1F2003D5 		vector	hang			/* Synchronous */
AARCH64 GAS  C:\Users\A01169~1\AppData\Local\Temp\ccRWduX2.s 			page 10


 455      1F2003D5 
 455      1F2003D5 
 455      1F2003D5 
 455      1F2003D5 
 456 0e04 1F2003D5 		vector  hang			/* IRQ */
 456      1F2003D5 
 456      1F2003D5 
 456      1F2003D5 
 456      1F2003D5 
 457 0e84 1F2003D5 		vector	hang			/* FIQ */
 457      1F2003D5 
 457      1F2003D5 
 457      1F2003D5 
 457      1F2003D5 
 458 0f04 1F2003D5 		vector	hang			/* SErrorStub */
 458      1F2003D5 
 458      1F2003D5 
 458      1F2003D5 
 458      1F2003D5 
 459              	
 460              	/****************************************************************
 461              	       	   DATA FOR SMARTSTART64  EXPOSED TO INTERFACE
 462              	****************************************************************/
 463 0f84 00000000 	.section ".data.smartstart64", "aw"
 464              	.balign 4
 465              	
 466              	.global RPi_IO_Base_Addr;				// Make sure Pi_IO_Base_Addr label is global
 467 0000 00000000 	RPi_IO_Base_Addr : .4byte 0;			// Peripheral Base addr is 4 byte variable in 64bit mode
 468              	
 469              	.global RPi_BootAddr;					// Make sure RPi_BootAddr label is global
 470 0004 00000000 	RPi_BootAddr : .4byte 0;				// CPU boot address is 4 byte variable in 64bit mode
 471              	
 472              	.global RPi_CoresReady;					// Make sure RPi_CoresReady label is global
 473 0008 00000000 	RPi_CoresReady : .4byte 0;				// CPU cores ready for use is 4 byte variable in 32bit mode
 474              	
 475              	.global RPi_CPUBootMode;					// Make sure RPi_CPUBootMode label is global
 476 000c 00000000 	RPi_CPUBootMode : .4byte 0;				// CPU Boot Mode is 4 byte variable in 64bit mode
 477              	
 478              	.global RPi_CpuId;						// Make sure RPi_CpuId label is global
 479 0010 00000000 	RPi_CpuId : .4byte 0;					// CPU Id is 4 byte variable in 64bit mode
 480              	
 481              	.global RPi_CompileMode;					// Make sure RPi_CompileMode label is global
 482 0014 00000000 	RPi_CompileMode : .4byte 0;				// Compile mode is 4 byte variable in 64bit mode
 483              	
 484              	/****************************************************************
 485              	       	   DATA FOR SMARTSTART64  NOT EXPOSED TO INTERFACE
 486              	****************************************************************/
 487 0018 00000000 	RPi_TimerIrqAddr : .8byte 0;			// Timer Irq Address
 487      00000000 
AARCH64 GAS  C:\Users\A01169~1\AppData\Local\Temp\ccRWduX2.s 			page 11


DEFINED SYMBOLS
src/smartstart/SmartStart64.S:38     .text.startup:0000000000000000 $x
src/smartstart/SmartStart64.S:40     .text.startup:0000000000000000 _start
src/smartstart/SmartStart64.S:470    .data.smartstart64:0000000000000004 RPi_BootAddr
src/smartstart/SmartStart64.S:467    .data.smartstart64:0000000000000000 RPi_IO_Base_Addr
src/smartstart/SmartStart64.S:473    .data.smartstart64:0000000000000008 RPi_CoresReady
src/smartstart/SmartStart64.S:482    .data.smartstart64:0000000000000014 RPi_CompileMode
src/smartstart/SmartStart64.S:479    .data.smartstart64:0000000000000010 RPi_CpuId
src/smartstart/SmartStart64.S:77     .text.startup:0000000000000058 multicore_start
src/smartstart/SmartStart64.S:97     .text.startup:00000000000000a4 set_stacks
src/smartstart/SmartStart64.S:146    .text.startup:0000000000000104 exit_el1
src/smartstart/SmartStart64.S:159    .text.startup:0000000000000124 cpu0_exit_multicore_park
src/smartstart/SmartStart64.S:233    .text.startup:0000000000000260 StartSecondarySpin
src/smartstart/SmartStart64.S:435    .text.GPUaddrToARMaddr:0000000000000800 VectorTable
src/smartstart/SmartStart64.S:178    .text.startup:0000000000000148 .bss_cleared
src/smartstart/SmartStart64.S:174    .text.startup:000000000000013c .bss_zero_loop
src/smartstart/SmartStart64.S:189    .text.startup:000000000000015c .WaitCore1ACK
src/smartstart/SmartStart64.S:199    .text.startup:000000000000017c .WaitCore2ACK
src/smartstart/SmartStart64.S:209    .text.startup:000000000000019c .WaitCore3ACK
src/smartstart/SmartStart64.S:222    .text.startup:00000000000001ac hang
src/smartstart/SmartStart64.S:225    .text.startup:00000000000001b0 $d
src/smartstart/SmartStart64.S:232    .text.startup:0000000000000260 $x
src/smartstart/SmartStart64.S:239    .text.startup:0000000000000274 secondary_spin
src/smartstart/SmartStart64.S:253    .text.startup:000000000000029c EnableInterrupts
src/smartstart/SmartStart64.S:258    .text.startup:00000000000002a4 DisableInterrupts
src/smartstart/SmartStart64.S:263    .text.startup:00000000000002ac CoreExecute
src/smartstart/SmartStart64.S:278    .text.startup:00000000000002e4 CoreExecuteFail
src/smartstart/SmartStart64.S:282    .text.startup:00000000000002f0 $d
src/smartstart/SmartStart64.S:290    .text.setTimerIrqAddress:0000000000000000 $x
src/smartstart/SmartStart64.S:293    .text.setTimerIrqAddress:0000000000000000 setTimerIrqAddress
src/smartstart/SmartStart64.S:487    .data.smartstart64:0000000000000018 RPi_TimerIrqAddr
src/smartstart/SmartStart64.S:301    .text.setTimerIrqAddress:0000000000000018 $d
src/smartstart/SmartStart64.S:310    .text.ARMaddrToGPUaddr:0000000000000000 $x
src/smartstart/SmartStart64.S:318    .text.ARMaddrToGPUaddr:0000000000000000 ARMaddrToGPUaddr
src/smartstart/SmartStart64.S:329    .text.GPUaddrToARMaddr:0000000000000000 $x
src/smartstart/SmartStart64.S:337    .text.GPUaddrToARMaddr:0000000000000000 GPUaddrToARMaddr
src/smartstart/SmartStart64.S:355    .text.GPUaddrToARMaddr:0000000000000010 irq_handler
src/smartstart/SmartStart64.S:394    .text.GPUaddrToARMaddr:000000000000008c .TimerIrqNotPending
src/smartstart/SmartStart64.S:402    .text.GPUaddrToARMaddr:00000000000000a4 no_irqset
src/smartstart/SmartStart64.S:464    .data.smartstart64:0000000000000000 $d
src/smartstart/SmartStart64.S:476    .data.smartstart64:000000000000000c RPi_CPUBootMode
src/smartstart/SmartStart64.S:487    .text.GPUaddrToARMaddr:0000000000000f88 $d

UNDEFINED SYMBOLS
__EL2_stack_core0
__EL1_stack_core0
__EL0_stack_core0
__EL2_stack_core1
__EL1_stack_core1
__EL0_stack_core1
__EL2_stack_core2
__EL1_stack_core2
__EL0_stack_core2
__EL2_stack_core3
__EL1_stack_core3
__EL0_stack_core3
__bss_end__
AARCH64 GAS  C:\Users\A01169~1\AppData\Local\Temp\ccRWduX2.s 			page 12


__bss_start__
kernel_main
synchronous_handler
hal_synchronous_handler
AARCH64 GAS  C:\Users\A01169~1\AppData\Local\Temp\ccRWduX2.s 			page 1


   1              		.arch armv8-a
   2              		.file	"rpi-SmartStart.c"
   3              		.text
   4              		.align	2
   5              		.p2align 4,,15
   6              		.type	mailbox_tag_message.constprop.4, %function
   7              	mailbox_tag_message.constprop.4:
   8 0000 F37BB2A9 		stp	x19, x30, [sp, -224]!
   9 0004 010480D2 		mov	x1, 32
  10 0008 E7008012 		mov	w7, -8
  11 000c E8C30291 		add	x8, sp, 176
  12 0010 E9830391 		add	x9, sp, 224
  13 0014 F30300AA 		mov	x19, x0
  14 0018 E0C30091 		add	x0, sp, 48
  15 001c E92701A9 		stp	x9, x9, [sp, 16]
  16 0020 E81300F9 		str	x8, [sp, 32]
  17 0024 E77F0529 		stp	w7, wzr, [sp, 40]
  18 0028 E11B00F9 		str	x1, [sp, 48]
  19 002c E20F0729 		stp	w2, w3, [sp, 56]
  20 0030 E4170829 		stp	w4, w5, [sp, 64]
  21 0034 E67F0929 		stp	w6, wzr, [sp, 72]
  22 0038 E28F0BA9 		stp	x2, x3, [sp, 184]
  23 003c E4970CA9 		stp	x4, x5, [sp, 200]
  24 0040 E66F00F9 		str	x6, [sp, 216]
  25 0044 00000094 		bl	ARMaddrToGPUaddr
  26 0048 01000090 		adrp	x1, RPi_IO_Base_Addr
  27 004c 210040B9 		ldr	w1, [x1, #:lo12:RPi_IO_Base_Addr]
  28 0050 006C1C12 		and	w0, w0, -16
  29 0054 02001D32 		orr	w2, w0, 8
  30 0058 00109752 		mov	w0, 47232
  31 005c 2100000B 		add	w1, w1, w0
  32              		.p2align 3
  33              	.L15:
  34 0060 203840B9 		ldr	w0, [x1, 56]
  35 0064 E0FFFF37 		tbnz	w0, #31, .L15
  36 0068 222000B9 		str	w2, [x1, 32]
  37 006c 1F2003D5 		.p2align 3
  38              	.L16:
  39 0070 201840B9 		ldr	w0, [x1, 24]
  40 0074 E0FFF737 		tbnz	x0, 30, .L16
  41 0078 200040B9 		ldr	w0, [x1]
  42 007c 000C0012 		and	w0, w0, 15
  43 0080 1F200071 		cmp	w0, 8
  44 0084 61FFFF54 		bne	.L16
  45 0088 E23740B9 		ldr	w2, [sp, 52]
  46 008c 0100B052 		mov	w1, -2147483648
  47 0090 00008052 		mov	w0, 0
  48 0094 5F00016B 		cmp	w2, w1
  49 0098 60000054 		beq	.L31
  50 009c F37BCEA8 		ldp	x19, x30, [sp], 224
  51 00a0 C0035FD6 		ret
  52              		.p2align 2
  53              	.L31:
  54 00a4 F30000B4 		cbz	x19, .L20
  55 00a8 E40F4729 		ldp	w4, w3, [sp, 56]
  56 00ac 640E0029 		stp	w4, w3, [x19]
  57 00b0 E2074829 		ldp	w2, w1, [sp, 64]
AARCH64 GAS  C:\Users\A01169~1\AppData\Local\Temp\ccRWduX2.s 			page 2


  58 00b4 62060129 		stp	w2, w1, [x19, 8]
  59 00b8 E04B40B9 		ldr	w0, [sp, 72]
  60 00bc 601200B9 		str	w0, [x19, 16]
  61              	.L20:
  62 00c0 20008052 		mov	w0, 1
  63 00c4 F37BCEA8 		ldp	x19, x30, [sp], 224
  64 00c8 C0035FD6 		ret
  65              		.size	mailbox_tag_message.constprop.4, .-mailbox_tag_message.constprop.4
  66              		.align	2
  67 00cc 1F2003D5 		.p2align 4,,15
  68              		.type	mailbox_tag_message.constprop.3, %function
  69              	mailbox_tag_message.constprop.3:
  70 00d0 FE0F12F8 		str	x30, [sp, -224]!
  71 00d4 010480D2 		mov	x1, 32
  72 00d8 E7008012 		mov	w7, -8
  73 00dc E8C30291 		add	x8, sp, 176
  74 00e0 E9830391 		add	x9, sp, 224
  75 00e4 E0C30091 		add	x0, sp, 48
  76 00e8 E92701A9 		stp	x9, x9, [sp, 16]
  77 00ec E81300F9 		str	x8, [sp, 32]
  78 00f0 E77F0529 		stp	w7, wzr, [sp, 40]
  79 00f4 E11B00F9 		str	x1, [sp, 48]
  80 00f8 E20F0729 		stp	w2, w3, [sp, 56]
  81 00fc E4170829 		stp	w4, w5, [sp, 64]
  82 0100 E67F0929 		stp	w6, wzr, [sp, 72]
  83 0104 E28F0BA9 		stp	x2, x3, [sp, 184]
  84 0108 E4970CA9 		stp	x4, x5, [sp, 200]
  85 010c E66F00F9 		str	x6, [sp, 216]
  86 0110 00000094 		bl	ARMaddrToGPUaddr
  87 0114 01000090 		adrp	x1, RPi_IO_Base_Addr
  88 0118 210040B9 		ldr	w1, [x1, #:lo12:RPi_IO_Base_Addr]
  89 011c 006C1C12 		and	w0, w0, -16
  90 0120 02001D32 		orr	w2, w0, 8
  91 0124 00109752 		mov	w0, 47232
  92 0128 2100000B 		add	w1, w1, w0
  93 012c 1F2003D5 		.p2align 3
  94              	.L46:
  95 0130 203840B9 		ldr	w0, [x1, 56]
  96 0134 E0FFFF37 		tbnz	w0, #31, .L46
  97 0138 222000B9 		str	w2, [x1, 32]
  98 013c 1F2003D5 		.p2align 3
  99              	.L47:
 100 0140 201840B9 		ldr	w0, [x1, 24]
 101 0144 E0FFF737 		tbnz	x0, 30, .L47
 102 0148 200040B9 		ldr	w0, [x1]
 103 014c 000C0012 		and	w0, w0, 15
 104 0150 1F200071 		cmp	w0, 8
 105 0154 61FFFF54 		bne	.L47
 106 0158 E13740B9 		ldr	w1, [sp, 52]
 107 015c 0000B052 		mov	w0, -2147483648
 108 0160 FE074EF8 		ldr	x30, [sp], 224
 109 0164 3F00006B 		cmp	w1, w0
 110 0168 E0179F1A 		cset	w0, eq
 111 016c C0035FD6 		ret
 112              		.size	mailbox_tag_message.constprop.3, .-mailbox_tag_message.constprop.3
 113              		.align	2
 114              		.p2align 4,,15
AARCH64 GAS  C:\Users\A01169~1\AppData\Local\Temp\ccRWduX2.s 			page 3


 115              		.global	memcpy
 116              		.type	memcpy, %function
 117              	memcpy:
 118 0170 22010034 		cbz	w2, .L57
 119 0174 42040051 		sub	w2, w2, #1
 120 0178 030080D2 		mov	x3, 0
 121 017c 1F2003D5 		.p2align 3
 122              	.L58:
 123 0180 24686338 		ldrb	w4, [x1, x3]
 124 0184 5F0003EB 		cmp	x2, x3
 125 0188 04682338 		strb	w4, [x0, x3]
 126 018c 63040091 		add	x3, x3, 1
 127 0190 81FFFF54 		bne	.L58
 128              	.L57:
 129 0194 C0035FD6 		ret
 130              		.size	memcpy, .-memcpy
 131              		.align	2
 132 0198 1F2003D5 		.p2align 4,,15
 132      1F2003D5 
 133              		.global	strlen
 134              		.type	strlen, %function
 135              	strlen:
 136 01a0 01004039 		ldrb	w1, [x0]
 137 01a4 E1000034 		cbz	w1, .L66
 138 01a8 E10300AA 		mov	x1, x0
 139 01ac 1F2003D5 		.p2align 3
 140              	.L65:
 141 01b0 221C4038 		ldrb	w2, [x1, 1]!
 142 01b4 E2FFFF35 		cbnz	w2, .L65
 143 01b8 2000004B 		sub	w0, w1, w0
 144 01bc C0035FD6 		ret
 145              		.p2align 2
 146              	.L66:
 147 01c0 00008052 		mov	w0, 0
 148 01c4 C0035FD6 		ret
 149              		.size	strlen, .-strlen
 150              		.align	2
 151 01c8 1F2003D5 		.p2align 4,,15
 151      1F2003D5 
 152              		.global	RPi_CpuIdString
 153              		.type	RPi_CpuIdString, %function
 154              	RPi_CpuIdString:
 155 01d0 00000090 		adrp	x0, RPi_CpuId
 156 01d4 00004079 		ldrh	w0, [x0, #:lo12:RPi_CpuId]
 157 01d8 003C44D3 		ubfx	x0, x0, 4, 12
 158 01dc 1F1C3071 		cmp	w0, 3079
 159 01e0 A0010054 		beq	.L70
 160 01e4 1F0C3471 		cmp	w0, 3331
 161 01e8 00010054 		beq	.L71
 162 01ec 1FD82D71 		cmp	w0, 2934
 163 01f0 00000090 		adrp	x0, .LC0
 164 01f4 01000091 		add	x1, x0, :lo12:.LC0
 165 01f8 00000090 		adrp	x0, .LC1
 166 01fc 00000091 		add	x0, x0, :lo12:.LC1
 167 0200 0000819A 		csel	x0, x0, x1, eq
 168 0204 C0035FD6 		ret
 169              		.p2align 2
AARCH64 GAS  C:\Users\A01169~1\AppData\Local\Temp\ccRWduX2.s 			page 4


 170              	.L71:
 171 0208 00000090 		adrp	x0, .LC2
 172 020c 00000091 		add	x0, x0, :lo12:.LC2
 173 0210 C0035FD6 		ret
 174              		.p2align 2
 175              	.L70:
 176 0214 00000090 		adrp	x0, .LC3
 177 0218 00000091 		add	x0, x0, :lo12:.LC3
 178 021c C0035FD6 		ret
 179              		.size	RPi_CpuIdString, .-RPi_CpuIdString
 180              		.align	2
 181              		.p2align 4,,15
 182              		.global	gpio_setup
 183              		.type	gpio_setup, %function
 184              	gpio_setup:
 185 0220 1FD80071 		cmp	w0, 54
 186 0224 06008052 		mov	w6, 0
 187 0228 2298477A 		ccmp	w1, 7, 2, ls
 188 022c 88020054 		bhi	.L74
 189 0230 A3999952 		mov	w3, 52429
 190 0234 8399B972 		movk	w3, 0xcccc, lsl 16
 191 0238 02000090 		adrp	x2, RPi_IO_Base_Addr
 192 023c 450040B9 		ldr	w5, [x2, #:lo12:RPi_IO_Base_Addr]
 193 0240 037CA39B 		umull	x3, w0, w3
 194 0244 47018052 		mov	w7, 10
 195 0248 A5004811 		add	w5, w5, 2097152
 196 024c E4008052 		mov	w4, 7
 197 0250 26008052 		mov	w6, 1
 198 0254 62FC63D3 		lsr	x2, x3, 35
 199 0258 E303022A 		uxtw	x3, w2
 200 025c 4280071B 		msub	w2, w2, w7, w0
 201 0260 A07863B8 		ldr	w0, [x5, x3, lsl 2]
 202 0264 4204020B 		add	w2, w2, w2, lsl 1
 203 0268 8420C21A 		lsl	w4, w4, w2
 204 026c 0400240A 		bic	w4, w0, w4
 205 0270 2220C21A 		lsl	w2, w1, w2
 206 0274 4200042A 		orr	w2, w2, w4
 207 0278 A27823B8 		str	w2, [x5, x3, lsl 2]
 208              	.L74:
 209 027c E003062A 		mov	w0, w6
 210 0280 C0035FD6 		ret
 211              		.size	gpio_setup, .-gpio_setup
 212              		.align	2
 213 0284 1F2003D5 		.p2align 4,,15
 213      1F2003D5 
 213      1F2003D5 
 214              		.global	gpio_output
 215              		.type	gpio_output, %function
 216              	gpio_output:
 217 0290 211C0012 		and	w1, w1, 255
 218 0294 1FD80071 		cmp	w0, 54
 219 0298 88020054 		bhi	.L79
 220 029c 02000090 		adrp	x2, RPi_IO_Base_Addr
 221 02a0 430040B9 		ldr	w3, [x2, #:lo12:RPi_IO_Base_Addr]
 222 02a4 047C0553 		lsr	w4, w0, 5
 223 02a8 25008052 		mov	w5, 1
 224 02ac 63004811 		add	w3, w3, 2097152
AARCH64 GAS  C:\Users\A01169~1\AppData\Local\Temp\ccRWduX2.s 			page 5


 225 02b0 A220C01A 		lsl	w2, w5, w0
 226 02b4 84687ED3 		ubfiz	x4, x4, 2, 27
 227 02b8 E1000035 		cbnz	w1, .L80
 228 02bc 84800091 		add	x4, x4, 32
 229 02c0 E103052A 		mov	w1, w5
 230 02c4 6300048B 		add	x3, x3, x4
 231 02c8 E003012A 		mov	w0, w1
 232 02cc 620800B9 		str	w2, [x3, 8]
 233 02d0 C0035FD6 		ret
 234              		.p2align 2
 235              	.L80:
 236 02d4 84400091 		add	x4, x4, 16
 237 02d8 E003012A 		mov	w0, w1
 238 02dc 6300048B 		add	x3, x3, x4
 239 02e0 620C00B9 		str	w2, [x3, 12]
 240 02e4 C0035FD6 		ret
 241              		.p2align 2
 242              	.L79:
 243 02e8 01008052 		mov	w1, 0
 244 02ec E003012A 		mov	w0, w1
 245 02f0 C0035FD6 		ret
 246              		.size	gpio_output, .-gpio_output
 247              		.align	2
 248 02f4 1F2003D5 		.p2align 4,,15
 248      1F2003D5 
 248      1F2003D5 
 249              		.global	gpio_input
 250              		.type	gpio_input, %function
 251              	gpio_input:
 252 0300 1FD80071 		cmp	w0, 54
 253 0304 A8010054 		bhi	.L83
 254 0308 01000090 		adrp	x1, RPi_IO_Base_Addr
 255 030c 230040B9 		ldr	w3, [x1, #:lo12:RPi_IO_Base_Addr]
 256 0310 017C0553 		lsr	w1, w0, 5
 257 0314 22008052 		mov	w2, 1
 258 0318 21300091 		add	x1, x1, 12
 259 031c 63004811 		add	w3, w3, 2097152
 260 0320 4020C01A 		lsl	w0, w2, w0
 261 0324 6108018B 		add	x1, x3, x1, lsl 2
 262 0328 210440B9 		ldr	w1, [x1, 4]
 263 032c 1F00016A 		tst	w0, w1
 264 0330 E0079F1A 		cset	w0, ne
 265 0334 C0035FD6 		ret
 266              		.p2align 2
 267              	.L83:
 268 0338 00008052 		mov	w0, 0
 269 033c C0035FD6 		ret
 270              		.size	gpio_input, .-gpio_input
 271              		.align	2
 272              		.p2align 4,,15
 273              		.global	gpio_checkEvent
 274              		.type	gpio_checkEvent, %function
 275              	gpio_checkEvent:
 276 0340 1FD80071 		cmp	w0, 54
 277 0344 88010054 		bhi	.L86
 278 0348 01000090 		adrp	x1, RPi_IO_Base_Addr
 279 034c 220040B9 		ldr	w2, [x1, #:lo12:RPi_IO_Base_Addr]
AARCH64 GAS  C:\Users\A01169~1\AppData\Local\Temp\ccRWduX2.s 			page 6


 280 0350 037C0553 		lsr	w3, w0, 5
 281 0354 21008052 		mov	w1, 1
 282 0358 42004811 		add	w2, w2, 2097152
 283 035c 63400091 		add	x3, x3, 16
 284 0360 2020C01A 		lsl	w0, w1, w0
 285 0364 417863B8 		ldr	w1, [x2, x3, lsl 2]
 286 0368 1F00016A 		tst	w0, w1
 287 036c E0079F1A 		cset	w0, ne
 288 0370 C0035FD6 		ret
 289              		.p2align 2
 290              	.L86:
 291 0374 00008052 		mov	w0, 0
 292 0378 C0035FD6 		ret
 293              		.size	gpio_checkEvent, .-gpio_checkEvent
 294              		.align	2
 295 037c 1F2003D5 		.p2align 4,,15
 296              		.global	gpio_clearEvent
 297              		.type	gpio_clearEvent, %function
 298              	gpio_clearEvent:
 299 0380 1FD80071 		cmp	w0, 54
 300 0384 68010054 		bhi	.L89
 301 0388 01000090 		adrp	x1, RPi_IO_Base_Addr
 302 038c 230040B9 		ldr	w3, [x1, #:lo12:RPi_IO_Base_Addr]
 303 0390 047C0553 		lsr	w4, w0, 5
 304 0394 22008052 		mov	w2, 1
 305 0398 63004811 		add	w3, w3, 2097152
 306 039c 84400091 		add	x4, x4, 16
 307 03a0 4120C01A 		lsl	w1, w2, w0
 308 03a4 E003022A 		mov	w0, w2
 309 03a8 617824B8 		str	w1, [x3, x4, lsl 2]
 310 03ac C0035FD6 		ret
 311              		.p2align 2
 312              	.L89:
 313 03b0 00008052 		mov	w0, 0
 314 03b4 C0035FD6 		ret
 315              		.size	gpio_clearEvent, .-gpio_clearEvent
 316              		.align	2
 317 03b8 1F2003D5 		.p2align 4,,15
 317      1F2003D5 
 318              		.global	gpio_edgeDetect
 319              		.type	gpio_edgeDetect, %function
 320              	gpio_edgeDetect:
 321 03c0 211C0012 		and	w1, w1, 255
 322 03c4 1FD80071 		cmp	w0, 54
 323 03c8 421C0012 		and	w2, w2, 255
 324 03cc A8020054 		bhi	.L95
 325 03d0 03000090 		adrp	x3, RPi_IO_Base_Addr
 326 03d4 640040B9 		ldr	w4, [x3, #:lo12:RPi_IO_Base_Addr]
 327 03d8 057C0553 		lsr	w5, w0, 5
 328 03dc 26008052 		mov	w6, 1
 329 03e0 84004811 		add	w4, w4, 2097152
 330 03e4 C320C01A 		lsl	w3, w6, w0
 331 03e8 A5687ED3 		ubfiz	x5, x5, 2, 27
 332 03ec E1000034 		cbz	w1, .L92
 333 03f0 E2010034 		cbz	w2, .L93
 334 03f4 A5C00191 		add	x5, x5, 112
 335 03f8 E003022A 		mov	w0, w2
AARCH64 GAS  C:\Users\A01169~1\AppData\Local\Temp\ccRWduX2.s 			page 7


 336 03fc 8400058B 		add	x4, x4, x5
 337 0400 830C00B9 		str	w3, [x4, 12]
 338 0404 C0035FD6 		ret
 339              		.p2align 2
 340              	.L92:
 341 0408 E2010034 		cbz	w2, .L94
 342 040c A5000291 		add	x5, x5, 128
 343 0410 E003022A 		mov	w0, w2
 344 0414 8400058B 		add	x4, x4, x5
 345 0418 830800B9 		str	w3, [x4, 8]
 346 041c C0035FD6 		ret
 347              		.p2align 2
 348              	.L95:
 349 0420 02008052 		mov	w2, 0
 350 0424 E003022A 		mov	w0, w2
 351 0428 C0035FD6 		ret
 352              		.p2align 2
 353              	.L93:
 354 042c A5000191 		add	x5, x5, 64
 355 0430 E203012A 		mov	w2, w1
 356 0434 8400058B 		add	x4, x4, x5
 357 0438 E003022A 		mov	w0, w2
 358 043c 830C00B9 		str	w3, [x4, 12]
 359 0440 C0035FD6 		ret
 360              		.p2align 2
 361              	.L94:
 362 0444 A5400191 		add	x5, x5, 80
 363 0448 E203062A 		mov	w2, w6
 364 044c 8400058B 		add	x4, x4, x5
 365 0450 E003022A 		mov	w0, w2
 366 0454 830800B9 		str	w3, [x4, 8]
 367 0458 C0035FD6 		ret
 368              		.size	gpio_edgeDetect, .-gpio_edgeDetect
 369              		.align	2
 370 045c 1F2003D5 		.p2align 4,,15
 371              		.global	gpio_fixResistor
 372              		.type	gpio_fixResistor, %function
 373              	gpio_fixResistor:
 374 0460 1FD80071 		cmp	w0, 54
 375 0464 2298427A 		ccmp	w1, 2, 2, ls
 376 0468 69000054 		bls	.L111
 377 046c 00008052 		mov	w0, 0
 378 0470 C0035FD6 		ret
 379              		.p2align 2
 380              	.L111:
 381 0474 02000090 		adrp	x2, RPi_IO_Base_Addr
 382 0478 420040B9 		ldr	w2, [x2, #:lo12:RPi_IO_Base_Addr]
 383 047c 46004811 		add	w6, w2, 2097152
 384 0480 420C4011 		add	w2, w2, 12288
 385 0484 C19400B9 		str	w1, [x6, 148]
 386              		.p2align 3
 387              	.L98:
 388 0488 410840B9 		ldr	w1, [x2, 8]
 389 048c 440440B9 		ldr	w4, [x2, 4]
 390 0490 430840B9 		ldr	w3, [x2, 8]
 391 0494 3F00036B 		cmp	w1, w3
 392 0498 81FFFF54 		bne	.L98
AARCH64 GAS  C:\Users\A01169~1\AppData\Local\Temp\ccRWduX2.s 			page 8


 393 049c E403042A 		uxtw	x4, w4
 394 04a0 818001AA 		orr	x1, x4, x1, lsl 32
 395 04a4 25080091 		add	x5, x1, 2
 396              		.p2align 3
 397              	.L99:
 398 04a8 410840B9 		ldr	w1, [x2, 8]
 399 04ac 440440B9 		ldr	w4, [x2, 4]
 400 04b0 430840B9 		ldr	w3, [x2, 8]
 401 04b4 3F00036B 		cmp	w1, w3
 402 04b8 81FFFF54 		bne	.L99
 403 04bc E403042A 		uxtw	x4, w4
 404 04c0 818001AA 		orr	x1, x4, x1, lsl 32
 405 04c4 BF0001EB 		cmp	x5, x1
 406 04c8 08FFFF54 		bhi	.L99
 407 04cc 057C0553 		lsr	w5, w0, 5
 408 04d0 21008052 		mov	w1, 1
 409 04d4 2020C01A 		lsl	w0, w1, w0
 410 04d8 C508058B 		add	x5, x6, x5, lsl 2
 411 04dc A09800B9 		str	w0, [x5, 152]
 412              		.p2align 3
 413              	.L101:
 414 04e0 400840B9 		ldr	w0, [x2, 8]
 415 04e4 430440B9 		ldr	w3, [x2, 4]
 416 04e8 410840B9 		ldr	w1, [x2, 8]
 417 04ec 1F00016B 		cmp	w0, w1
 418 04f0 81FFFF54 		bne	.L101
 419 04f4 E303032A 		uxtw	x3, w3
 420 04f8 608000AA 		orr	x0, x3, x0, lsl 32
 421 04fc 04080091 		add	x4, x0, 2
 422              		.p2align 3
 423              	.L102:
 424 0500 400840B9 		ldr	w0, [x2, 8]
 425 0504 430440B9 		ldr	w3, [x2, 4]
 426 0508 410840B9 		ldr	w1, [x2, 8]
 427 050c 1F00016B 		cmp	w0, w1
 428 0510 81FFFF54 		bne	.L102
 429 0514 E303032A 		uxtw	x3, w3
 430 0518 608000AA 		orr	x0, x3, x0, lsl 32
 431 051c 9F0000EB 		cmp	x4, x0
 432 0520 08FFFF54 		bhi	.L102
 433 0524 DF9400B9 		str	wzr, [x6, 148]
 434 0528 20008052 		mov	w0, 1
 435 052c BF9800B9 		str	wzr, [x5, 152]
 436 0530 C0035FD6 		ret
 437              		.size	gpio_fixResistor, .-gpio_fixResistor
 438              		.align	2
 439 0534 1F2003D5 		.p2align 4,,15
 439      1F2003D5 
 439      1F2003D5 
 440              		.global	timer_getTickCount
 441              		.type	timer_getTickCount, %function
 442              	timer_getTickCount:
 443 0540 00000090 		adrp	x0, RPi_IO_Base_Addr
 444 0544 010040B9 		ldr	w1, [x0, #:lo12:RPi_IO_Base_Addr]
 445 0548 210C4011 		add	w1, w1, 12288
 446 054c 1F2003D5 		.p2align 3
 447              	.L113:
AARCH64 GAS  C:\Users\A01169~1\AppData\Local\Temp\ccRWduX2.s 			page 9


 448 0550 200840B9 		ldr	w0, [x1, 8]
 449 0554 230440B9 		ldr	w3, [x1, 4]
 450 0558 220840B9 		ldr	w2, [x1, 8]
 451 055c 1F00026B 		cmp	w0, w2
 452 0560 81FFFF54 		bne	.L113
 453 0564 E303032A 		uxtw	x3, w3
 454 0568 608000AA 		orr	x0, x3, x0, lsl 32
 455 056c C0035FD6 		ret
 456              		.size	timer_getTickCount, .-timer_getTickCount
 457              		.align	2
 458              		.p2align 4,,15
 459              		.global	timer_wait
 460              		.type	timer_wait, %function
 461              	timer_wait:
 462 0570 01000090 		adrp	x1, RPi_IO_Base_Addr
 463 0574 210040B9 		ldr	w1, [x1, #:lo12:RPi_IO_Base_Addr]
 464 0578 210C4011 		add	w1, w1, 12288
 465 057c 1F2003D5 		.p2align 3
 466              	.L116:
 467 0580 220840B9 		ldr	w2, [x1, 8]
 468 0584 240440B9 		ldr	w4, [x1, 4]
 469 0588 230840B9 		ldr	w3, [x1, 8]
 470 058c 5F00036B 		cmp	w2, w3
 471 0590 81FFFF54 		bne	.L116
 472 0594 E403042A 		uxtw	x4, w4
 473 0598 828002AA 		orr	x2, x4, x2, lsl 32
 474 059c 4400008B 		add	x4, x2, x0
 475              		.p2align 3
 476              	.L117:
 477 05a0 200840B9 		ldr	w0, [x1, 8]
 478 05a4 230440B9 		ldr	w3, [x1, 4]
 479 05a8 220840B9 		ldr	w2, [x1, 8]
 480 05ac 1F00026B 		cmp	w0, w2
 481 05b0 81FFFF54 		bne	.L117
 482 05b4 E303032A 		uxtw	x3, w3
 483 05b8 608000AA 		orr	x0, x3, x0, lsl 32
 484 05bc 9F0000EB 		cmp	x4, x0
 485 05c0 08FFFF54 		bhi	.L117
 486 05c4 C0035FD6 		ret
 487              		.size	timer_wait, .-timer_wait
 488              		.align	2
 489 05c8 1F2003D5 		.p2align 4,,15
 489      1F2003D5 
 490              		.global	tick_difference
 491              		.type	tick_difference, %function
 492              	tick_difference:
 493 05d0 200000CB 		sub	x0, x1, x0
 494 05d4 C0035FD6 		ret
 495              		.size	tick_difference, .-tick_difference
 496              		.align	2
 497 05d8 1F2003D5 		.p2align 4,,15
 497      1F2003D5 
 498              		.global	mailbox_write
 499              		.type	mailbox_write, %function
 500              	mailbox_write:
 501 05e0 1F240071 		cmp	w0, 9
 502 05e4 88010054 		bhi	.L126
AARCH64 GAS  C:\Users\A01169~1\AppData\Local\Temp\ccRWduX2.s 			page 10


 503 05e8 02000090 		adrp	x2, RPi_IO_Base_Addr
 504 05ec 420040B9 		ldr	w2, [x2, #:lo12:RPi_IO_Base_Addr]
 505 05f0 216C1C12 		and	w1, w1, -16
 506 05f4 0300012A 		orr	w3, w0, w1
 507 05f8 00109752 		mov	w0, 47232
 508 05fc 4200000B 		add	w2, w2, w0
 509              		.p2align 3
 510              	.L125:
 511 0600 413840B9 		ldr	w1, [x2, 56]
 512 0604 E1FFFF37 		tbnz	w1, #31, .L125
 513 0608 20008052 		mov	w0, 1
 514 060c 432000B9 		str	w3, [x2, 32]
 515 0610 C0035FD6 		ret
 516              		.p2align 2
 517              	.L126:
 518 0614 00008052 		mov	w0, 0
 519 0618 C0035FD6 		ret
 520              		.size	mailbox_write, .-mailbox_write
 521              		.align	2
 522 061c 1F2003D5 		.p2align 4,,15
 523              		.global	mailbox_read
 524              		.type	mailbox_read, %function
 525              	mailbox_read:
 526 0620 1F240071 		cmp	w0, 9
 527 0624 A8010054 		bhi	.L132
 528 0628 01000090 		adrp	x1, RPi_IO_Base_Addr
 529 062c 220040B9 		ldr	w2, [x1, #:lo12:RPi_IO_Base_Addr]
 530 0630 01109752 		mov	w1, 47232
 531 0634 4200010B 		add	w2, w2, w1
 532              		.p2align 3
 533              	.L130:
 534 0638 411840B9 		ldr	w1, [x2, 24]
 535 063c E1FFF737 		tbnz	x1, 30, .L130
 536 0640 410040B9 		ldr	w1, [x2]
 537 0644 230C0012 		and	w3, w1, 15
 538 0648 1F00036B 		cmp	w0, w3
 539 064c 61FFFF54 		bne	.L130
 540 0650 206C1C12 		and	w0, w1, -16
 541 0654 C0035FD6 		ret
 542              	.L132:
 543 0658 A0D59B52 		mov	w0, 57005
 544 065c A0DDBF72 		movk	w0, 0xfeed, lsl 16
 545 0660 C0035FD6 		ret
 546              		.size	mailbox_read, .-mailbox_read
 547              		.align	2
 548 0664 1F2003D5 		.p2align 4,,15
 548      1F2003D5 
 548      1F2003D5 
 549              		.global	mailbox_tag_message
 550              		.type	mailbox_tag_message, %function
 551              	mailbox_tag_message:
 552 0670 F353B1A9 		stp	x19, x20, [sp, -240]!
 553 0674 331C0012 		and	w19, w1, 255
 554 0678 610A0011 		add	w1, w19, 2
 555 067c F4030191 		add	x20, sp, 64
 556 0680 690E0011 		add	w9, w19, 3
 557 0684 217C4093 		sxtw	x1, w1
AARCH64 GAS  C:\Users\A01169~1\AppData\Local\Temp\ccRWduX2.s 			page 11


 558 0688 F57B01A9 		stp	x21, x30, [sp, 16]
 559 068c 29751E53 		lsl	w9, w9, 2
 560 0690 E94300B9 		str	w9, [sp, 64]
 561 0694 EA030391 		add	x10, sp, 192
 562 0698 9F7A21B8 		str	wzr, [x20, x1, lsl 2]
 563 069c E8058012 		mov	w8, -48
 564 06a0 F50300AA 		mov	x21, x0
 565 06a4 E0C30391 		add	x0, sp, 240
 566 06a8 E00302A9 		stp	x0, x0, [sp, 32]
 567 06ac EA1B00F9 		str	x10, [sp, 48]
 568 06b0 E87F0729 		stp	w8, wzr, [sp, 56]
 569 06b4 FF4700B9 		str	wzr, [sp, 68]
 570 06b8 E20F0CA9 		stp	x2, x3, [sp, 192]
 571 06bc E4170DA9 		stp	x4, x5, [sp, 208]
 572 06c0 E61F0EA9 		stp	x6, x7, [sp, 224]
 573 06c4 73050034 		cbz	w19, .L147
 574 06c8 E203082A 		mov	w2, w8
 575 06cc E503082A 		mov	w5, w8
 576 06d0 E403082A 		mov	w4, w8
 577 06d4 E3C30391 		add	x3, sp, 240
 578 06d8 01008052 		mov	w1, 0
 579 06dc 00008052 		mov	w0, 0
 580              		.p2align 3
 581              	.L139:
 582 06e0 8400F836 		tbz	w4, #31, .L141
 583 06e4 84200011 		add	w4, w4, 8
 584 06e8 21008052 		mov	w1, 1
 585 06ec E503042A 		mov	w5, w4
 586              	.L141:
 587 06f0 00040011 		add	w0, w0, 1
 588 06f4 7F02006B 		cmp	w19, w0
 589 06f8 41FFFF54 		bne	.L139
 590 06fc 41000034 		cbz	w1, .L142
 591 0700 E53B00B9 		str	w5, [sp, 56]
 592              	.L142:
 593 0704 61060051 		sub	w1, w19, #1
 594 0708 80120091 		add	x0, x20, 4
 595 070c E50314AA 		mov	x5, x20
 596 0710 0148218B 		add	x1, x0, x1, uxtw 2
 597 0714 09000014 		b	.L146
 598              		.p2align 2
 599              	.L169:
 600 0718 E40303AA 		mov	x4, x3
 601 071c 1F0001EB 		cmp	x0, x1
 602 0720 63200091 		add	x3, x3, 8
 603 0724 840040B9 		ldr	w4, [x4]
 604 0728 A40800B9 		str	w4, [x5, 8]
 605 072c E50300AA 		mov	x5, x0
 606 0730 00100091 		add	x0, x0, 4
 607 0734 E0010054 		beq	.L147
 608              	.L146:
 609 0738 46200011 		add	w6, w2, 8
 610 073c E2FEFF36 		tbz	w2, #31, .L169
 611 0740 E4C30391 		add	x4, sp, 240
 612 0744 DF000071 		cmp	w6, 0
 613 0748 84C0228B 		add	x4, x4, x2, sxtw
 614 074c E203062A 		mov	w2, w6
AARCH64 GAS  C:\Users\A01169~1\AppData\Local\Temp\ccRWduX2.s 			page 12


 615 0750 4CFEFF54 		bgt	.L169
 616 0754 840040B9 		ldr	w4, [x4]
 617 0758 1F0001EB 		cmp	x0, x1
 618 075c A40800B9 		str	w4, [x5, 8]
 619 0760 E50300AA 		mov	x5, x0
 620 0764 00100091 		add	x0, x0, 4
 621 0768 81FEFF54 		bne	.L146
 622 076c 1F2003D5 		.p2align 3
 623              	.L147:
 624 0770 E00314AA 		mov	x0, x20
 625 0774 00000094 		bl	ARMaddrToGPUaddr
 626 0778 01000090 		adrp	x1, RPi_IO_Base_Addr
 627 077c 220040B9 		ldr	w2, [x1, #:lo12:RPi_IO_Base_Addr]
 628 0780 006C1C12 		and	w0, w0, -16
 629 0784 01001D32 		orr	w1, w0, 8
 630 0788 00109752 		mov	w0, 47232
 631 078c 4200000B 		add	w2, w2, w0
 632              		.p2align 3
 633              	.L137:
 634 0790 403840B9 		ldr	w0, [x2, 56]
 635 0794 E0FFFF37 		tbnz	w0, #31, .L137
 636 0798 412000B9 		str	w1, [x2, 32]
 637 079c 1F2003D5 		.p2align 3
 638              	.L148:
 639 07a0 401840B9 		ldr	w0, [x2, 24]
 640 07a4 E0FFF737 		tbnz	x0, 30, .L148
 641 07a8 400040B9 		ldr	w0, [x2]
 642 07ac 000C0012 		and	w0, w0, 15
 643 07b0 1F200071 		cmp	w0, 8
 644 07b4 61FFFF54 		bne	.L148
 645 07b8 E24740B9 		ldr	w2, [sp, 68]
 646 07bc 0100B052 		mov	w1, -2147483648
 647 07c0 00008052 		mov	w0, 0
 648 07c4 5F00016B 		cmp	w2, w1
 649 07c8 80000054 		beq	.L171
 650 07cc F57B41A9 		ldp	x21, x30, [sp, 16]
 651 07d0 F353CFA8 		ldp	x19, x20, [sp], 240
 652 07d4 C0035FD6 		ret
 653              		.p2align 2
 654              	.L171:
 655 07d8 550100B4 		cbz	x21, .L152
 656 07dc 33010034 		cbz	w19, .L152
 657 07e0 000080D2 		mov	x0, 0
 658 07e4 1F2003D5 		.p2align 3
 659              	.L153:
 660 07e8 810A008B 		add	x1, x20, x0, lsl 2
 661 07ec 210840B9 		ldr	w1, [x1, 8]
 662 07f0 A17A20B8 		str	w1, [x21, x0, lsl 2]
 663 07f4 00040091 		add	x0, x0, 1
 664 07f8 7F02006B 		cmp	w19, w0
 665 07fc 6CFFFF54 		bgt	.L153
 666              	.L152:
 667 0800 20008052 		mov	w0, 1
 668 0804 F57B41A9 		ldp	x21, x30, [sp, 16]
 669 0808 F353CFA8 		ldp	x19, x20, [sp], 240
 670 080c C0035FD6 		ret
 671              		.size	mailbox_tag_message, .-mailbox_tag_message
AARCH64 GAS  C:\Users\A01169~1\AppData\Local\Temp\ccRWduX2.s 			page 13


 672              		.align	2
 673              		.p2align 4,,15
 674              		.global	TimerIrqSetup
 675              		.type	TimerIrqSetup, %function
 676              	TimerIrqSetup:
 677 0810 F353BBA9 		stp	x19, x20, [sp, -80]!
 678 0814 14809652 		mov	w20, 46080
 679 0818 F303002A 		mov	w19, w0
 680 081c F55B01A9 		stp	x21, x22, [sp, 16]
 681 0820 15000090 		adrp	x21, RPi_IO_Base_Addr
 682 0824 A50240B9 		ldr	w5, [x21, #:lo12:RPi_IO_Base_Addr]
 683 0828 FE1300F9 		str	x30, [sp, 32]
 684 082c 04018052 		mov	w4, 8
 685 0830 A500140B 		add	w5, w5, w20
 686 0834 FFFF03A9 		stp	xzr, xzr, [sp, 56]
 687 0838 E303042A 		mov	w3, w4
 688 083c FF4B00B9 		str	wzr, [sp, 72]
 689 0840 F60301AA 		mov	x22, x1
 690 0844 06008052 		mov	w6, 0
 691 0848 A1008052 		mov	w1, 5
 692 084c A00840B9 		ldr	w0, [x5, 8]
 693 0850 42008052 		mov	w2, 2
 694 0854 6200A072 		movk	w2, 0x3, lsl 16
 695 0858 00781812 		and	w0, w0, -129
 696 085c A00800B9 		str	w0, [x5, 8]
 697 0860 85008052 		mov	w5, 4
 698 0864 E0E30091 		add	x0, sp, 56
 699 0868 E6FDFF97 		bl	mailbox_tag_message.constprop.4
 700 086c E14B40B9 		ldr	w1, [sp, 72]
 701 0870 63BA8952 		mov	w3, 19923
 702 0874 430CA272 		movk	w3, 0x1062, lsl 16
 703 0878 629B86D2 		mov	x2, 13531
 704 087c C2F6BAF2 		movk	x2, 0xd7b6, lsl 16
 705 0880 E00316AA 		mov	x0, x22
 706 0884 42D0DBF2 		movk	x2, 0xde82, lsl 32
 707 0888 6263E8F2 		movk	x2, 0x431b, lsl 48
 708 088c 217CA39B 		umull	x1, w1, w3
 709 0890 21FC64D3 		lsr	x1, x1, 36
 710 0894 E14B00B9 		str	w1, [sp, 72]
 711 0898 737EA19B 		umull	x19, w19, w1
 712 089c 737EC29B 		umulh	x19, x19, x2
 713 08a0 00000094 		bl	setTimerIrqAddress
 714 08a4 A10240B9 		ldr	w1, [x21, #:lo12:RPi_IO_Base_Addr]
 715 08a8 02409652 		mov	w2, 45568
 716 08ac 2300020B 		add	w3, w1, w2
 717 08b0 2100140B 		add	w1, w1, w20
 718 08b4 73FE52D3 		lsr	x19, x19, 18
 719 08b8 621840B9 		ldr	w2, [x3, 24]
 720 08bc 42000032 		orr	w2, w2, 1
 721 08c0 621800B9 		str	w2, [x3, 24]
 722 08c4 330000B9 		str	w19, [x1]
 723 08c8 220840B9 		ldr	w2, [x1, 8]
 724 08cc 42001F32 		orr	w2, w2, 2
 725 08d0 220800B9 		str	w2, [x1, 8]
 726 08d4 220840B9 		ldr	w2, [x1, 8]
 727 08d8 42741C12 		and	w2, w2, -13
 728 08dc 220800B9 		str	w2, [x1, 8]
AARCH64 GAS  C:\Users\A01169~1\AppData\Local\Temp\ccRWduX2.s 			page 14


 729 08e0 220840B9 		ldr	w2, [x1, 8]
 730 08e4 42001B32 		orr	w2, w2, 32
 731 08e8 220800B9 		str	w2, [x1, 8]
 732 08ec 220840B9 		ldr	w2, [x1, 8]
 733 08f0 42001932 		orr	w2, w2, 128
 734 08f4 220800B9 		str	w2, [x1, 8]
 735 08f8 F55B41A9 		ldp	x21, x22, [sp, 16]
 736 08fc FE1340F9 		ldr	x30, [sp, 32]
 737 0900 F353C5A8 		ldp	x19, x20, [sp], 80
 738 0904 C0035FD6 		ret
 739              		.size	TimerIrqSetup, .-TimerIrqSetup
 740              		.align	2
 741 0908 1F2003D5 		.p2align 4,,15
 741      1F2003D5 
 742              		.global	set_Activity_LED
 743              		.type	set_Activity_LED, %function
 744              	set_Activity_LED:
 745 0910 01000090 		adrp	x1, RPi_CpuId
 746 0914 21004079 		ldrh	w1, [x1, #:lo12:RPi_CpuId]
 747 0918 F37BBEA9 		stp	x19, x30, [sp, -32]!
 748 091c 131C0012 		and	w19, w0, 255
 749 0920 203C44D3 		ubfx	x0, x1, 4, 12
 750 0924 1F1C3071 		cmp	w0, 3079
 751 0928 20010054 		beq	.L175
 752 092c 1F0C3471 		cmp	w0, 3331
 753 0930 60040054 		beq	.L176
 754 0934 1FD82D71 		cmp	w0, 2934
 755 0938 C0010054 		beq	.L189
 756 093c 13008052 		mov	w19, 0
 757              	.L177:
 758 0940 E003132A 		mov	w0, w19
 759 0944 F37BC2A8 		ldp	x19, x30, [sp], 32
 760 0948 C0035FD6 		ret
 761              		.p2align 2
 762              	.L175:
 763 094c 00000090 		adrp	x0, RPi_IO_Base_Addr
 764 0950 000040B9 		ldr	w0, [x0, #:lo12:RPi_IO_Base_Addr]
 765 0954 01009052 		mov	w1, 32768
 766 0958 00004811 		add	w0, w0, 2097152
 767 095c B3040034 		cbz	w19, .L184
 768 0960 012000B9 		str	w1, [x0, 32]
 769 0964 E003132A 		mov	w0, w19
 770 0968 F37BC2A8 		ldp	x19, x30, [sp], 32
 771 096c C0035FD6 		ret
 772              		.p2align 2
 773              	.L189:
 774 0970 00000090 		adrp	x0, .LANCHOR0
 775 0974 01004039 		ldrb	w1, [x0, #:lo12:.LANCHOR0]
 776 0978 A1040034 		cbz	w1, .L178
 777              	.L188:
 778 097c 00000090 		adrp	x0, .LANCHOR1
 779 0980 000040B9 		ldr	w0, [x0, #:lo12:.LANCHOR1]
 780 0984 1FD80071 		cmp	w0, 54
 781 0988 E8030054 		bhi	.L186
 782              	.L182:
 783 098c 027C0553 		lsr	w2, w0, 5
 784 0990 01000090 		adrp	x1, RPi_IO_Base_Addr
AARCH64 GAS  C:\Users\A01169~1\AppData\Local\Temp\ccRWduX2.s 			page 15


 785 0994 210040B9 		ldr	w1, [x1, #:lo12:RPi_IO_Base_Addr]
 786 0998 23008052 		mov	w3, 1
 787 099c 6020C01A 		lsl	w0, w3, w0
 788 09a0 42687ED3 		ubfiz	x2, x2, 2, 27
 789 09a4 21004811 		add	w1, w1, 2097152
 790 09a8 D3050034 		cbz	w19, .L183
 791 09ac 42400091 		add	x2, x2, 16
 792 09b0 2100028B 		add	x1, x1, x2
 793 09b4 200C00B9 		str	w0, [x1, 12]
 794 09b8 E2FFFF17 		b	.L177
 795              		.p2align 2
 796              	.L176:
 797 09bc E603132A 		mov	w6, w19
 798 09c0 04018052 		mov	w4, 8
 799 09c4 45108052 		mov	w5, 130
 800 09c8 E303042A 		mov	w3, w4
 801 09cc A1008052 		mov	w1, 5
 802 09d0 22089052 		mov	w2, 32833
 803 09d4 6200A072 		movk	w2, 0x3, lsl 16
 804 09d8 000080D2 		mov	x0, 0
 805 09dc BDFDFF97 		bl	mailbox_tag_message.constprop.3
 806 09e0 131C0012 		and	w19, w0, 255
 807 09e4 E003132A 		mov	w0, w19
 808 09e8 F37BC2A8 		ldp	x19, x30, [sp], 32
 809 09ec C0035FD6 		ret
 810              		.p2align 2
 811              	.L184:
 812 09f0 012C00B9 		str	w1, [x0, 44]
 813 09f4 33008052 		mov	w19, 1
 814 09f8 E003132A 		mov	w0, w19
 815 09fc F37BC2A8 		ldp	x19, x30, [sp], 32
 816 0a00 C0035FD6 		ret
 817              		.p2align 2
 818              	.L186:
 819 0a04 33008052 		mov	w19, 1
 820 0a08 CEFFFF17 		b	.L177
 821              		.p2align 2
 822              	.L178:
 823 0a0c 21008052 		mov	w1, 1
 824 0a10 83008052 		mov	w3, 4
 825 0a14 01000039 		strb	w1, [x0, #:lo12:.LANCHOR0]
 826 0a18 42008052 		mov	w2, 2
 827 0a1c 2200A072 		movk	w2, 0x1, lsl 16
 828 0a20 E103032A 		mov	w1, w3
 829 0a24 05008052 		mov	w5, 0
 830 0a28 04008052 		mov	w4, 0
 831 0a2c E0430091 		add	x0, sp, 16
 832 0a30 00000094 		bl	mailbox_tag_message
 833 0a34 1F1C0072 		tst	w0, 255
 834 0a38 20FAFF54 		beq	.L188
 835 0a3c E01F40B9 		ldr	w0, [sp, 28]
 836 0a40 02000090 		adrp	x2, .LANCHOR1
 837 0a44 00080051 		sub	w0, w0, #2
 838 0a48 1F340071 		cmp	w0, 13
 839 0a4c 48010054 		bhi	.L181
 840 0a50 01028052 		mov	w1, 16
 841 0a54 E003012A 		mov	w0, w1
AARCH64 GAS  C:\Users\A01169~1\AppData\Local\Temp\ccRWduX2.s 			page 16


 842 0a58 410000B9 		str	w1, [x2, #:lo12:.LANCHOR1]
 843 0a5c CCFFFF17 		b	.L182
 844              		.p2align 2
 845              	.L183:
 846 0a60 42800091 		add	x2, x2, 32
 847 0a64 F303032A 		mov	w19, w3
 848 0a68 2100028B 		add	x1, x1, x2
 849 0a6c 200800B9 		str	w0, [x1, 8]
 850 0a70 B4FFFF17 		b	.L177
 851              		.p2align 2
 852              	.L181:
 853 0a74 E1058052 		mov	w1, 47
 854 0a78 E003012A 		mov	w0, w1
 855 0a7c 410000B9 		str	w1, [x2, #:lo12:.LANCHOR1]
 856 0a80 C3FFFF17 		b	.L182
 857              		.size	set_Activity_LED, .-set_Activity_LED
 858              		.align	2
 859 0a84 1F2003D5 		.p2align 4,,15
 859      1F2003D5 
 859      1F2003D5 
 860              		.global	ARM_setmaxspeed
 861              		.type	ARM_setmaxspeed, %function
 862              	ARM_setmaxspeed:
 863 0a90 FE0F1DF8 		str	x30, [sp, -48]!
 864 0a94 04018052 		mov	w4, 8
 865 0a98 82008052 		mov	w2, 4
 866 0a9c 6200A072 		movk	w2, 0x3, lsl 16
 867 0aa0 E0630091 		add	x0, sp, 24
 868 0aa4 E303042A 		mov	w3, w4
 869 0aa8 06008052 		mov	w6, 0
 870 0aac 65008052 		mov	w5, 3
 871 0ab0 A1008052 		mov	w1, 5
 872 0ab4 FFFF01A9 		stp	xzr, xzr, [sp, 24]
 873 0ab8 FF2B00B9 		str	wzr, [sp, 40]
 874 0abc 51FDFF97 		bl	mailbox_tag_message.constprop.4
 875 0ac0 1F1C0072 		tst	w0, 255
 876 0ac4 81000054 		bne	.L191
 877              	.L193:
 878 0ac8 00008052 		mov	w0, 0
 879 0acc FE0743F8 		ldr	x30, [sp], 48
 880 0ad0 C0035FD6 		ret
 881              		.p2align 2
 882              	.L191:
 883 0ad4 E62B40B9 		ldr	w6, [sp, 40]
 884 0ad8 04018052 		mov	w4, 8
 885 0adc E0630091 		add	x0, sp, 24
 886 0ae0 42009052 		mov	w2, 32770
 887 0ae4 6200A072 		movk	w2, 0x3, lsl 16
 888 0ae8 E303042A 		mov	w3, w4
 889 0aec 65008052 		mov	w5, 3
 890 0af0 A1008052 		mov	w1, 5
 891 0af4 43FDFF97 		bl	mailbox_tag_message.constprop.4
 892 0af8 1F1C0072 		tst	w0, 255
 893 0afc 60FEFF54 		beq	.L193
 894 0b00 E02B40B9 		ldr	w0, [sp, 40]
 895 0b04 FE0743F8 		ldr	x30, [sp], 48
 896 0b08 C0035FD6 		ret
AARCH64 GAS  C:\Users\A01169~1\AppData\Local\Temp\ccRWduX2.s 			page 17


 897              		.size	ARM_setmaxspeed, .-ARM_setmaxspeed
 898              		.align	2
 899 0b0c 1F2003D5 		.p2align 4,,15
 900              		.global	displaySmartStart
 901              		.type	displaySmartStart, %function
 902              	displaySmartStart:
 903 0b10 600300B4 		cbz	x0, .L198
 904 0b14 02000090 		adrp	x2, RPi_CpuId
 905 0b18 44004079 		ldrh	w4, [x2, #:lo12:RPi_CpuId]
 906 0b1c E103012A 		uxtw	x1, w1
 907 0b20 843C44D3 		ubfx	x4, x4, 4, 12
 908 0b24 9F1C3071 		cmp	w4, 3079
 909 0b28 C0020054 		beq	.L201
 910 0b2c 9F0C3471 		cmp	w4, 3331
 911 0b30 80010054 		beq	.L202
 912 0b34 03000090 		adrp	x3, .LC0
 913 0b38 62000091 		add	x2, x3, :lo12:.LC0
 914 0b3c 9FD82D71 		cmp	w4, 2934
 915 0b40 03000090 		adrp	x3, .LC1
 916 0b44 63000091 		add	x3, x3, :lo12:.LC1
 917 0b48 6300829A 		csel	x3, x3, x2, eq
 918 0b4c 02000090 		adrp	x2, RPi_CoresReady
 919 0b50 450040B9 		ldr	w5, [x2, #:lo12:RPi_CoresReady]
 920 0b54 02000090 		adrp	x2, .LC4
 921 0b58 42000091 		add	x2, x2, :lo12:.LC4
 922 0b5c 00000014 		b	snprintf
 923              		.p2align 2
 924              	.L202:
 925 0b60 02000090 		adrp	x2, RPi_CoresReady
 926 0b64 450040B9 		ldr	w5, [x2, #:lo12:RPi_CoresReady]
 927 0b68 03000090 		adrp	x3, .LC2
 928 0b6c 63000091 		add	x3, x3, :lo12:.LC2
 929 0b70 02000090 		adrp	x2, .LC4
 930 0b74 42000091 		add	x2, x2, :lo12:.LC4
 931 0b78 00000014 		b	snprintf
 932              		.p2align 2
 933              	.L198:
 934 0b7c C0035FD6 		ret
 935              		.p2align 2
 936              	.L201:
 937 0b80 02000090 		adrp	x2, RPi_CoresReady
 938 0b84 450040B9 		ldr	w5, [x2, #:lo12:RPi_CoresReady]
 939 0b88 03000090 		adrp	x3, .LC3
 940 0b8c 63000091 		add	x3, x3, :lo12:.LC3
 941 0b90 02000090 		adrp	x2, .LC4
 942 0b94 42000091 		add	x2, x2, :lo12:.LC4
 943 0b98 00000014 		b	snprintf
 944              		.size	displaySmartStart, .-displaySmartStart
 945              		.global	console
 946              		.data
 947              		.align	2
 948              		.set	.LANCHOR1,. + 0
 949              		.type	ActivityGPIOPort, %object
 950              		.size	ActivityGPIOPort, 4
 951              	ActivityGPIOPort:
 952 0000 2F000000 		.word	47
 953              		.bss
AARCH64 GAS  C:\Users\A01169~1\AppData\Local\Temp\ccRWduX2.s 			page 18


 954              		.align	2
 955              		.set	.LANCHOR0,. + 0
 956              		.type	ModelCheckHasRun, %object
 957              		.size	ModelCheckHasRun, 1
 958              	ModelCheckHasRun:
 959 0000 00       		.zero	1
 960 0001 000000   		.zero	3
 961              		.type	console, %object
 962              		.size	console, 104
 963              	console:
 964 0004 00000000 		.zero	104
 964      00000000 
 964      00000000 
 964      00000000 
 964      00000000 
 965              		.section	.rodata.str1.8,"aMS",@progbits,1
 966              		.align	3
 967              	.LC0:
 968 0000 756E6B6E 		.string	"unknown ARM cpu"
 968      6F776E20 
 968      41524D20 
 968      63707500 
 969              	.LC1:
 970 0010 61726D31 		.string	"arm1176jzf-s"
 970      3137366A 
 970      7A662D73 
 970      00
 971 001d 000000   		.zero	3
 972              	.LC2:
 973 0020 636F7274 		.string	"cortex-a53"
 973      65782D61 
 973      353300
 974 002b 00000000 		.zero	5
 974      00
 975              	.LC3:
 976 0030 636F7274 		.string	"cortex-a7"
 976      65782D61 
 976      3700
 977 003a 00000000 		.zero	6
 977      0000
 978              	.LC4:
 979 0040 44657465 		.string	"Detected %s CPU, part id: 0x%03X, Cores made ready for use: %u\n"
 979      63746564 
 979      20257320 
 979      4350552C 
 979      20706172 
 980              		.ident	"GCC: (GNU Toolchain for the A-profile Architecture 8.3-2019.03 (arm-rel-8.36)) 8.3.0"
AARCH64 GAS  C:\Users\A01169~1\AppData\Local\Temp\ccRWduX2.s 			page 19


DEFINED SYMBOLS
                            *ABS*:0000000000000000 rpi-SmartStart.c
C:\Users\A01169~1\AppData\Local\Temp\ccRWduX2.s:4      .text:0000000000000000 $x
C:\Users\A01169~1\AppData\Local\Temp\ccRWduX2.s:7      .text:0000000000000000 mailbox_tag_message.constprop.4
C:\Users\A01169~1\AppData\Local\Temp\ccRWduX2.s:69     .text:00000000000000d0 mailbox_tag_message.constprop.3
C:\Users\A01169~1\AppData\Local\Temp\ccRWduX2.s:117    .text:0000000000000170 memcpy
C:\Users\A01169~1\AppData\Local\Temp\ccRWduX2.s:135    .text:00000000000001a0 strlen
C:\Users\A01169~1\AppData\Local\Temp\ccRWduX2.s:154    .text:00000000000001d0 RPi_CpuIdString
C:\Users\A01169~1\AppData\Local\Temp\ccRWduX2.s:184    .text:0000000000000220 gpio_setup
C:\Users\A01169~1\AppData\Local\Temp\ccRWduX2.s:216    .text:0000000000000290 gpio_output
C:\Users\A01169~1\AppData\Local\Temp\ccRWduX2.s:251    .text:0000000000000300 gpio_input
C:\Users\A01169~1\AppData\Local\Temp\ccRWduX2.s:275    .text:0000000000000340 gpio_checkEvent
C:\Users\A01169~1\AppData\Local\Temp\ccRWduX2.s:298    .text:0000000000000380 gpio_clearEvent
C:\Users\A01169~1\AppData\Local\Temp\ccRWduX2.s:320    .text:00000000000003c0 gpio_edgeDetect
C:\Users\A01169~1\AppData\Local\Temp\ccRWduX2.s:373    .text:0000000000000460 gpio_fixResistor
C:\Users\A01169~1\AppData\Local\Temp\ccRWduX2.s:442    .text:0000000000000540 timer_getTickCount
C:\Users\A01169~1\AppData\Local\Temp\ccRWduX2.s:461    .text:0000000000000570 timer_wait
C:\Users\A01169~1\AppData\Local\Temp\ccRWduX2.s:492    .text:00000000000005d0 tick_difference
C:\Users\A01169~1\AppData\Local\Temp\ccRWduX2.s:500    .text:00000000000005e0 mailbox_write
C:\Users\A01169~1\AppData\Local\Temp\ccRWduX2.s:525    .text:0000000000000620 mailbox_read
C:\Users\A01169~1\AppData\Local\Temp\ccRWduX2.s:551    .text:0000000000000670 mailbox_tag_message
C:\Users\A01169~1\AppData\Local\Temp\ccRWduX2.s:676    .text:0000000000000810 TimerIrqSetup
C:\Users\A01169~1\AppData\Local\Temp\ccRWduX2.s:744    .text:0000000000000910 set_Activity_LED
C:\Users\A01169~1\AppData\Local\Temp\ccRWduX2.s:862    .text:0000000000000a90 ARM_setmaxspeed
C:\Users\A01169~1\AppData\Local\Temp\ccRWduX2.s:902    .text:0000000000000b10 displaySmartStart
C:\Users\A01169~1\AppData\Local\Temp\ccRWduX2.s:963    .bss:0000000000000004 console
C:\Users\A01169~1\AppData\Local\Temp\ccRWduX2.s:947    .data:0000000000000000 $d
C:\Users\A01169~1\AppData\Local\Temp\ccRWduX2.s:951    .data:0000000000000000 ActivityGPIOPort
C:\Users\A01169~1\AppData\Local\Temp\ccRWduX2.s:954    .bss:0000000000000000 $d
C:\Users\A01169~1\AppData\Local\Temp\ccRWduX2.s:958    .bss:0000000000000000 ModelCheckHasRun
C:\Users\A01169~1\AppData\Local\Temp\ccRWduX2.s:966    .rodata.str1.8:0000000000000000 $d

UNDEFINED SYMBOLS
ARMaddrToGPUaddr
RPi_IO_Base_Addr
RPi_CpuId
setTimerIrqAddress
RPi_CoresReady
snprintf
AARCH64 GAS  C:\Users\A01169~1\AppData\Local\Temp\ccRWduX2.s 			page 1


   1              		.arch armv8-a
   2              		.file	"delays.c"
   3              		.text
   4              		.align	2
   5              		.p2align 4,,15
   6              		.global	delays_wait_cycles
   7              		.type	delays_wait_cycles, %function
   8              	delays_wait_cycles:
   9 0000 C0000034 		cbz	w0, .L1
  10 0004 00040051 		sub	w0, w0, #1
  11              		.p2align 3
  12              	.L3:
  13              		// Start of user assembly
  14              	// 57 "src/drivers/delays/delays.c" 1
  15 0008 1F2003D5 		nop
  16              	// 0 "" 2
  17              		// End of user assembly
  18 000c 00040051 		sub	w0, w0, #1
  19 0010 1F040031 		cmn	w0, #1
  20 0014 A1FFFF54 		bne	.L3
  21              	.L1:
  22 0018 C0035FD6 		ret
  23              		.size	delays_wait_cycles, .-delays_wait_cycles
  24              		.align	2
  25 001c 1F2003D5 		.p2align 4,,15
  26              		.global	delays_wait_microsecs
  27              		.type	delays_wait_microsecs, %function
  28              	delays_wait_microsecs:
  29              		// Start of user assembly
  30              	// 67 "src/drivers/delays/delays.c" 1
  31 0020 01E03BD5 		mrs x1, cntfrq_el0
  32              	// 0 "" 2
  33              	// 69 "src/drivers/delays/delays.c" 1
  34 0024 24E03BD5 		mrs x4, cntpct_el0
  35              	// 0 "" 2
  36              		// End of user assembly
  37 0028 E3F99ED2 		mov	x3, 63439
  38 002c 636ABCF2 		movk	x3, 0xe353, lsl 16
  39 0030 21FC43D3 		lsr	x1, x1, 3
  40 0034 A374D3F2 		movk	x3, 0x9ba5, lsl 32
  41 0038 8318E4F2 		movk	x3, 0x20c4, lsl 48
  42 003c E203002A 		uxtw	x2, w0
  43 0040 207CC39B 		umulh	x0, x1, x3
  44 0044 00FC44D3 		lsr	x0, x0, 4
  45 0048 007C029B 		mul	x0, x0, x2
  46 004c 00FC43D3 		lsr	x0, x0, 3
  47 0050 007CC39B 		umulh	x0, x0, x3
  48 0054 8010408B 		add	x0, x4, x0, lsr 4
  49              		.p2align 3
  50              	.L10:
  51              		// Start of user assembly
  52              	// 72 "src/drivers/delays/delays.c" 1
  53 0058 21E03BD5 		mrs x1, cntpct_el0
  54              	// 0 "" 2
  55              		// End of user assembly
  56 005c 1F0001EB 		cmp	x0, x1
  57 0060 C8FFFF54 		bhi	.L10
AARCH64 GAS  C:\Users\A01169~1\AppData\Local\Temp\ccRWduX2.s 			page 2


  58 0064 C0035FD6 		ret
  59              		.size	delays_wait_microsecs, .-delays_wait_microsecs
  60              		.align	2
  61 0068 1F2003D5 		.p2align 4,,15
  61      1F2003D5 
  62              		.global	get_system_timer
  63              		.type	get_system_timer, %function
  64              	get_system_timer:
  65 0070 020186D2 		mov	x2, 12296
  66 0074 02E0A7F2 		movk	x2, 0x3f00, lsl 16
  67 0078 830086D2 		mov	x3, 12292
  68 007c 03E0A7F2 		movk	x3, 0x3f00, lsl 16
  69 0080 400040B9 		ldr	w0, [x2]
  70 0084 610040B9 		ldr	w1, [x3]
  71 0088 440040B9 		ldr	w4, [x2]
  72 008c 9F00006B 		cmp	w4, w0
  73 0090 60000054 		beq	.L13
  74 0094 400040B9 		ldr	w0, [x2]
  75 0098 610040B9 		ldr	w1, [x3]
  76              	.L13:
  77 009c E103012A 		uxtw	x1, w1
  78 00a0 208000AA 		orr	x0, x1, x0, lsl 32
  79 00a4 C0035FD6 		ret
  80              		.size	get_system_timer, .-get_system_timer
  81              		.align	2
  82 00a8 1F2003D5 		.p2align 4,,15
  82      1F2003D5 
  83              		.global	delays_wait_msec_st
  84              		.type	delays_wait_msec_st, %function
  85              	delays_wait_msec_st:
  86 00b0 030186D2 		mov	x3, 12296
  87 00b4 03E0A7F2 		movk	x3, 0x3f00, lsl 16
  88 00b8 840086D2 		mov	x4, 12292
  89 00bc 04E0A7F2 		movk	x4, 0x3f00, lsl 16
  90 00c0 650040B9 		ldr	w5, [x3]
  91 00c4 820040B9 		ldr	w2, [x4]
  92 00c8 610040B9 		ldr	w1, [x3]
  93 00cc BF00016B 		cmp	w5, w1
  94 00d0 60000054 		beq	.L15
  95 00d4 610040B9 		ldr	w1, [x3]
  96 00d8 820040B9 		ldr	w2, [x4]
  97              	.L15:
  98 00dc E203022A 		uxtw	x2, w2
  99 00e0 418001AA 		orr	x1, x2, x1, lsl 32
 100 00e4 410200B4 		cbz	x1, .L14
 101 00e8 2040208B 		add	x0, x1, x0, uxtw
 102 00ec 020186D2 		mov	x2, 12296
 103 00f0 02E0A7F2 		movk	x2, 0x3f00, lsl 16
 104 00f4 850086D2 		mov	x5, 12292
 105 00f8 05E0A7F2 		movk	x5, 0x3f00, lsl 16
 106 00fc 1F2003D5 		.p2align 3
 107              	.L21:
 108 0100 410040B9 		ldr	w1, [x2]
 109 0104 A30040B9 		ldr	w3, [x5]
 110 0108 440040B9 		ldr	w4, [x2]
 111 010c 3F00046B 		cmp	w1, w4
 112 0110 00010054 		beq	.L17
AARCH64 GAS  C:\Users\A01169~1\AppData\Local\Temp\ccRWduX2.s 			page 3


 113 0114 410040B9 		ldr	w1, [x2]
 114 0118 A30040B9 		ldr	w3, [x5]
 115 011c E303032A 		uxtw	x3, w3
 116 0120 618001AA 		orr	x1, x3, x1, lsl 32
 117 0124 3F0000EB 		cmp	x1, x0
 118 0128 C3FEFF54 		bcc	.L21
 119              	.L14:
 120 012c C0035FD6 		ret
 121              		.p2align 2
 122              	.L17:
 123 0130 E303032A 		uxtw	x3, w3
 124 0134 618001AA 		orr	x1, x3, x1, lsl 32
 125 0138 3F0000EB 		cmp	x1, x0
 126 013c 23FEFF54 		bcc	.L21
 127 0140 C0035FD6 		ret
 128              		.size	delays_wait_msec_st, .-delays_wait_msec_st
 129              		.ident	"GCC: (GNU Toolchain for the A-profile Architecture 8.3-2019.03 (arm-rel-8.36)) 8.3.0"
AARCH64 GAS  C:\Users\A01169~1\AppData\Local\Temp\ccRWduX2.s 			page 4


DEFINED SYMBOLS
                            *ABS*:0000000000000000 delays.c
C:\Users\A01169~1\AppData\Local\Temp\ccRWduX2.s:4      .text:0000000000000000 $x
C:\Users\A01169~1\AppData\Local\Temp\ccRWduX2.s:8      .text:0000000000000000 delays_wait_cycles
C:\Users\A01169~1\AppData\Local\Temp\ccRWduX2.s:28     .text:0000000000000020 delays_wait_microsecs
C:\Users\A01169~1\AppData\Local\Temp\ccRWduX2.s:64     .text:0000000000000070 get_system_timer
C:\Users\A01169~1\AppData\Local\Temp\ccRWduX2.s:85     .text:00000000000000b0 delays_wait_msec_st

NO UNDEFINED SYMBOLS
AARCH64 GAS  C:\Users\A01169~1\AppData\Local\Temp\ccRWduX2.s 			page 1


   1              		.arch armv8-a
   2              		.file	"fb.c"
   3              		.text
   4              		.align	2
   5              		.p2align 4,,15
   6              		.global	fb_init
   7              		.type	fb_init, %function
   8              	fb_init:
   9 0000 F37BBFA9 		stp	x19, x30, [sp, -16]!
  10 0004 00000090 		adrp	x0, mbox
  11 0008 13000091 		add	x19, x0, :lo12:mbox
  12 000c 81118052 		mov	w1, 140
  13 0010 010000B9 		str	w1, [x0, #:lo12:mbox]
  14 0014 62009052 		mov	w2, 32771
  15 0018 8200A072 		movk	w2, 0x4, lsl 16
  16 001c 7F0600B9 		str	wzr, [x19, 4]
  17 0020 01018052 		mov	w1, 8
  18 0024 620A00B9 		str	w2, [x19, 8]
  19 0028 03A08052 		mov	w3, 1280
  20 002c 610E00B9 		str	w1, [x19, 12]
  21 0030 00608052 		mov	w0, 768
  22 0034 611200B9 		str	w1, [x19, 16]
  23 0038 84009052 		mov	w4, 32772
  24 003c 8400A072 		movk	w4, 0x4, lsl 16
  25 0040 631600B9 		str	w3, [x19, 20]
  26 0044 601A00B9 		str	w0, [x19, 24]
  27 0048 2A019052 		mov	w10, 32777
  28 004c 8A00A072 		movk	w10, 0x4, lsl 16
  29 0050 641E00B9 		str	w4, [x19, 28]
  30 0054 612200B9 		str	w1, [x19, 32]
  31 0058 A9009052 		mov	w9, 32773
  32 005c 8900A072 		movk	w9, 0x4, lsl 16
  33 0060 612600B9 		str	w1, [x19, 36]
  34 0064 632A00B9 		str	w3, [x19, 40]
  35 0068 82008052 		mov	w2, 4
  36 006c 602E00B9 		str	w0, [x19, 44]
  37 0070 08048052 		mov	w8, 32
  38 0074 6A3200B9 		str	w10, [x19, 48]
  39 0078 C7009052 		mov	w7, 32774
  40 007c 8700A072 		movk	w7, 0x4, lsl 16
  41 0080 613600B9 		str	w1, [x19, 52]
  42 0084 613A00B9 		str	w1, [x19, 56]
  43 0088 26008052 		mov	w6, 1
  44 008c 7F3E00B9 		str	wzr, [x19, 60]
  45 0090 25008052 		mov	w5, 1
  46 0094 8500A072 		movk	w5, 0x4, lsl 16
  47 0098 7F4200B9 		str	wzr, [x19, 64]
  48 009c 694600B9 		str	w9, [x19, 68]
  49 00a0 04008252 		mov	w4, 4096
  50 00a4 624A00B9 		str	w2, [x19, 72]
  51 00a8 03018052 		mov	w3, 8
  52 00ac 8300A072 		movk	w3, 0x4, lsl 16
  53 00b0 624E00B9 		str	w2, [x19, 76]
  54 00b4 685200B9 		str	w8, [x19, 80]
  55 00b8 E003012A 		mov	w0, w1
  56 00bc 675600B9 		str	w7, [x19, 84]
  57 00c0 625A00B9 		str	w2, [x19, 88]
AARCH64 GAS  C:\Users\A01169~1\AppData\Local\Temp\ccRWduX2.s 			page 2


  58 00c4 625E00B9 		str	w2, [x19, 92]
  59 00c8 666200B9 		str	w6, [x19, 96]
  60 00cc 656600B9 		str	w5, [x19, 100]
  61 00d0 616A00B9 		str	w1, [x19, 104]
  62 00d4 616E00B9 		str	w1, [x19, 108]
  63 00d8 647200B9 		str	w4, [x19, 112]
  64 00dc 7F7600B9 		str	wzr, [x19, 116]
  65 00e0 637A00B9 		str	w3, [x19, 120]
  66 00e4 627E00B9 		str	w2, [x19, 124]
  67 00e8 628200B9 		str	w2, [x19, 128]
  68 00ec 7F8600B9 		str	wzr, [x19, 132]
  69 00f0 7F8A00B9 		str	wzr, [x19, 136]
  70 00f4 00000094 		bl	mbox_call
  71 00f8 20020034 		cbz	w0, .L3
  72 00fc 615240B9 		ldr	w1, [x19, 80]
  73 0100 000080D2 		mov	x0, 0
  74 0104 3F800071 		cmp	w1, 32
  75 0108 61010054 		bne	.L1
  76 010c 617240B9 		ldr	w1, [x19, 112]
  77 0110 21010034 		cbz	w1, .L1
  78 0114 607240B9 		ldr	w0, [x19, 112]
  79 0118 00740012 		and	w0, w0, 1073741823
  80 011c 607200B9 		str	w0, [x19, 112]
  81 0120 601640B9 		ldr	w0, [x19, 20]
  82 0124 601A40B9 		ldr	w0, [x19, 24]
  83 0128 608640B9 		ldr	w0, [x19, 132]
  84 012c 607240B9 		ldr	w0, [x19, 112]
  85 0130 E003002A 		uxtw	x0, w0
  86              	.L1:
  87 0134 F37BC1A8 		ldp	x19, x30, [sp], 16
  88 0138 C0035FD6 		ret
  89              		.p2align 2
  90              	.L3:
  91 013c 000080D2 		mov	x0, 0
  92 0140 F37BC1A8 		ldp	x19, x30, [sp], 16
  93 0144 C0035FD6 		ret
  94              		.size	fb_init, .-fb_init
  95              		.ident	"GCC: (GNU Toolchain for the A-profile Architecture 8.3-2019.03 (arm-rel-8.36)) 8.3.0"
AARCH64 GAS  C:\Users\A01169~1\AppData\Local\Temp\ccRWduX2.s 			page 3


DEFINED SYMBOLS
                            *ABS*:0000000000000000 fb.c
C:\Users\A01169~1\AppData\Local\Temp\ccRWduX2.s:4      .text:0000000000000000 $x
C:\Users\A01169~1\AppData\Local\Temp\ccRWduX2.s:8      .text:0000000000000000 fb_init

UNDEFINED SYMBOLS
mbox
mbox_call
AARCH64 GAS  C:\Users\A01169~1\AppData\Local\Temp\ccRWduX2.s 			page 1


   1              		.arch armv8-a
   2              		.file	"mbox.c"
   3              		.text
   4              		.align	2
   5              		.p2align 4,,15
   6              		.global	mbox_call
   7              		.type	mbox_call, %function
   8              	mbox_call:
   9 0000 000C0012 		and	w0, w0, 15
  10 0004 04000090 		adrp	x4, mbox
  11 0008 84000091 		add	x4, x4, :lo12:mbox
  12 000c 011397D2 		mov	x1, 47256
  13 0010 01E0A7F2 		movk	x1, 0x3f00, lsl 16
  14 0014 0200042A 		orr	w2, w0, w4
  15              		.p2align 3
  16              	.L2:
  17              		// Start of user assembly
  18              	// 70 "src/drivers/mbox/mbox.c" 1
  19 0018 1F2003D5 		nop
  20              	// 0 "" 2
  21              		// End of user assembly
  22 001c 200040B9 		ldr	w0, [x1]
  23 0020 C0FFFF37 		tbnz	w0, #31, .L2
  24 0024 001497D2 		mov	x0, 47264
  25 0028 00E0A7F2 		movk	x0, 0x3f00, lsl 16
  26 002c 011397D2 		mov	x1, 47256
  27 0030 01E0A7F2 		movk	x1, 0x3f00, lsl 16
  28 0034 031097D2 		mov	x3, 47232
  29 0038 03E0A7F2 		movk	x3, 0x3f00, lsl 16
  30 003c 020000B9 		str	w2, [x0]
  31              		.p2align 3
  32              	.L5:
  33              		// Start of user assembly
  34              	// 76 "src/drivers/mbox/mbox.c" 1
  35 0040 1F2003D5 		nop
  36              	// 0 "" 2
  37              		// End of user assembly
  38 0044 200040B9 		ldr	w0, [x1]
  39 0048 C0FFF737 		tbnz	x0, 30, .L5
  40 004c 600040B9 		ldr	w0, [x3]
  41 0050 1F00026B 		cmp	w0, w2
  42 0054 61FFFF54 		bne	.L5
  43 0058 810440B9 		ldr	w1, [x4, 4]
  44 005c 0000B052 		mov	w0, -2147483648
  45 0060 3F00006B 		cmp	w1, w0
  46 0064 E0179F1A 		cset	w0, eq
  47 0068 C0035FD6 		ret
  48              		.size	mbox_call, .-mbox_call
  49              		.comm	mbox,144,16
  50              		.ident	"GCC: (GNU Toolchain for the A-profile Architecture 8.3-2019.03 (arm-rel-8.36)) 8.3.0"
AARCH64 GAS  C:\Users\A01169~1\AppData\Local\Temp\ccRWduX2.s 			page 2


DEFINED SYMBOLS
                            *ABS*:0000000000000000 mbox.c
C:\Users\A01169~1\AppData\Local\Temp\ccRWduX2.s:4      .text:0000000000000000 $x
C:\Users\A01169~1\AppData\Local\Temp\ccRWduX2.s:8      .text:0000000000000000 mbox_call
                            *COM*:0000000000000090 mbox

NO UNDEFINED SYMBOLS
AARCH64 GAS  C:\Users\A01169~1\AppData\Local\Temp\ccRWduX2.s 			page 1


   1              		.arch armv8-a
   2              		.file	"sd.c"
   3              		.text
   4              		.align	2
   5              		.p2align 4,,15
   6              		.global	sd_status
   7              		.type	sd_status, %function
   8              	sd_status:
   9 0000 F353BDA9 		stp	x19, x20, [sp, -48]!
  10 0004 940480D2 		mov	x20, 36
  11 0008 14E6A7F2 		movk	x20, 0x3f30, lsl 16
  12 000c 810240B9 		ldr	w1, [x20]
  13 0010 FE1700F9 		str	x30, [sp, 40]
  14 0014 1F00016A 		tst	w0, w1
  15 0018 80030054 		beq	.L5
  16 001c F71300F9 		str	x23, [sp, 32]
  17 0020 170680D2 		mov	x23, 48
  18 0024 17E6A7F2 		movk	x23, 0x3f30, lsl 16
  19 0028 F55B01A9 		stp	x21, x22, [sp, 16]
  20 002c 16009052 		mov	w22, 32768
  21 0030 D62FA072 		movk	w22, 0x17e, lsl 16
  22 0034 E10240B9 		ldr	w1, [x23]
  23 0038 3F00166A 		tst	w1, w22
  24 003c 21020054 		bne	.L17
  25 0040 F3478852 		mov	w19, 16959
  26 0044 F301A072 		movk	w19, 0xf, lsl 16
  27 0048 F503002A 		mov	w21, w0
  28 004c 07000014 		b	.L7
  29              		.p2align 2
  30              	.L20:
  31 0050 E10240B9 		ldr	w1, [x23]
  32 0054 3F00166A 		tst	w1, w22
  33 0058 21010054 		bne	.L6
  34 005c 73060051 		sub	w19, w19, #1
  35 0060 7F060031 		cmn	w19, #1
  36 0064 80020054 		beq	.L18
  37              	.L7:
  38 0068 20008052 		mov	w0, 1
  39 006c 00000094 		bl	delays_wait_microsecs
  40 0070 810240B9 		ldr	w1, [x20]
  41 0074 3F00156A 		tst	w1, w21
  42 0078 C1FEFF54 		bne	.L20
  43              	.L6:
  44 007c D3010034 		cbz	w19, .L18
  45              	.L17:
  46 0080 F55B41A9 		ldp	x21, x22, [sp, 16]
  47 0084 F71340F9 		ldr	x23, [sp, 32]
  48              	.L5:
  49 0088 010680D2 		mov	x1, 48
  50 008c 01E6A7F2 		movk	x1, 0x3f30, lsl 16
  51 0090 00009052 		mov	w0, 32768
  52 0094 C02FA072 		movk	w0, 0x17e, lsl 16
  53 0098 210040B9 		ldr	w1, [x1]
  54 009c 3F00006A 		tst	w1, w0
  55 00a0 E1000054 		bne	.L3
  56 00a4 00008052 		mov	w0, 0
  57 00a8 FE1740F9 		ldr	x30, [sp, 40]
AARCH64 GAS  C:\Users\A01169~1\AppData\Local\Temp\ccRWduX2.s 			page 2


  58 00ac F353C3A8 		ldp	x19, x20, [sp], 48
  59 00b0 C0035FD6 		ret
  60              	.L18:
  61 00b4 F55B41A9 		ldp	x21, x22, [sp, 16]
  62 00b8 F71340F9 		ldr	x23, [sp, 32]
  63              	.L3:
  64 00bc 20008012 		mov	w0, -2
  65 00c0 FE1740F9 		ldr	x30, [sp, 40]
  66 00c4 F353C3A8 		ldp	x19, x20, [sp], 48
  67 00c8 C0035FD6 		ret
  68              		.size	sd_status, .-sd_status
  69              		.align	2
  70 00cc 1F2003D5 		.p2align 4,,15
  71              		.global	sd_int
  72              		.type	sd_int, %function
  73              	sd_int:
  74 00d0 F353BDA9 		stp	x19, x20, [sp, -48]!
  75 00d4 140680D2 		mov	x20, 48
  76 00d8 14E6A7F2 		movk	x20, 0x3f30, lsl 16
  77 00dc F55B01A9 		stp	x21, x22, [sp, 16]
  78 00e0 F603002A 		mov	w22, w0
  79 00e4 15009052 		mov	w21, 32768
  80 00e8 D52FA072 		movk	w21, 0x17e, lsl 16
  81 00ec 1500152A 		orr	w21, w0, w21
  82 00f0 800240B9 		ldr	w0, [x20]
  83 00f4 FE1300F9 		str	x30, [sp, 32]
  84 00f8 BF02006A 		tst	w21, w0
  85 00fc A1030054 		bne	.L22
  86 0100 F3478852 		mov	w19, 16959
  87 0104 F301A072 		movk	w19, 0xf, lsl 16
  88 0108 04000014 		b	.L24
  89              		.p2align 2
  90              	.L38:
  91 010c 73060051 		sub	w19, w19, #1
  92 0110 7F060031 		cmn	w19, #1
  93 0114 20030054 		beq	.L37
  94              	.L24:
  95 0118 20008052 		mov	w0, 1
  96 011c 00000094 		bl	delays_wait_microsecs
  97 0120 800240B9 		ldr	w0, [x20]
  98 0124 1F00156A 		tst	w0, w21
  99 0128 20FFFF54 		beq	.L38
 100 012c 810240B9 		ldr	w1, [x20]
 101 0130 73020034 		cbz	w19, .L27
 102              	.L26:
 103 0134 2002A052 		mov	w0, 1114112
 104 0138 3F00006A 		tst	w1, w0
 105 013c 01020054 		bne	.L27
 106 0140 00009052 		mov	w0, 32768
 107 0144 C02FA072 		movk	w0, 0x17e, lsl 16
 108 0148 3F00006A 		tst	w1, w0
 109 014c 21020054 		bne	.L39
 110 0150 010680D2 		mov	x1, 48
 111 0154 01E6A7F2 		movk	x1, 0x3f30, lsl 16
 112 0158 00008052 		mov	w0, 0
 113 015c 360000B9 		str	w22, [x1]
 114              	.L21:
AARCH64 GAS  C:\Users\A01169~1\AppData\Local\Temp\ccRWduX2.s 			page 3


 115 0160 F55B41A9 		ldp	x21, x22, [sp, 16]
 116 0164 FE1340F9 		ldr	x30, [sp, 32]
 117 0168 F353C3A8 		ldp	x19, x20, [sp], 48
 118 016c C0035FD6 		ret
 119              	.L22:
 120 0170 810240B9 		ldr	w1, [x20]
 121 0174 F0FFFF17 		b	.L26
 122              	.L37:
 123 0178 810240B9 		ldr	w1, [x20]
 124              	.L27:
 125 017c 020680D2 		mov	x2, 48
 126 0180 02E6A7F2 		movk	x2, 0x3f30, lsl 16
 127 0184 00008012 		mov	w0, -1
 128 0188 410000B9 		str	w1, [x2]
 129 018c F5FFFF17 		b	.L21
 130              	.L39:
 131 0190 020680D2 		mov	x2, 48
 132 0194 02E6A7F2 		movk	x2, 0x3f30, lsl 16
 133 0198 20008012 		mov	w0, -2
 134 019c 410000B9 		str	w1, [x2]
 135 01a0 F0FFFF17 		b	.L21
 136              		.size	sd_int, .-sd_int
 137              		.align	2
 138 01a4 1F2003D5 		.p2align 4,,15
 138      1F2003D5 
 138      1F2003D5 
 139              		.global	sd_cmd
 140              		.type	sd_cmd, %function
 141              	sd_cmd:
 142 01b0 F353BBA9 		stp	x19, x20, [sp, -80]!
 143 01b4 F303002A 		mov	w19, w0
 144 01b8 F76302A9 		stp	x23, x24, [sp, 32]
 145 01bc 18000090 		adrp	x24, sd_err
 146 01c0 F703012A 		mov	w23, w1
 147 01c4 1F0300F9 		str	xzr, [x24, #:lo12:sd_err]
 148 01c8 FE2300F9 		str	x30, [sp, 64]
 149 01cc A001F836 		tbz	w0, #31, .L41
 150 01d0 14000090 		adrp	x20, sd_rca
 151 01d4 810240F9 		ldr	x1, [x20, #:lo12:sd_rca]
 152 01d8 42E0A652 		mov	w2, 922877952
 153 01dc 00E0A652 		mov	w0, 922746880
 154 01e0 737A0012 		and	w19, w19, 2147483647
 155 01e4 3F0000F1 		cmp	x1, 0
 156 01e8 4010801A 		csel	w0, w2, w0, ne
 157 01ec 00000094 		bl	sd_cmd
 158 01f0 810240F9 		ldr	x1, [x20, #:lo12:sd_rca]
 159 01f4 3F0000F1 		cmp	x1, 0
 160 01f8 0018407A 		ccmp	w0, 0, 0, ne
 161 01fc E0120054 		beq	.L95
 162              	.L41:
 163 0200 820480D2 		mov	x2, 36
 164 0204 02E6A7F2 		movk	x2, 0x3f30, lsl 16
 165 0208 F55B01A9 		stp	x21, x22, [sp, 16]
 166 020c 400040B9 		ldr	w0, [x2]
 167 0210 F96B03A9 		stp	x25, x26, [sp, 48]
 168 0214 20030036 		tbz	x0, 0, .L48
 169 0218 010680D2 		mov	x1, 48
AARCH64 GAS  C:\Users\A01169~1\AppData\Local\Temp\ccRWduX2.s 			page 4


 170 021c 01E6A7F2 		movk	x1, 0x3f30, lsl 16
 171 0220 00009052 		mov	w0, 32768
 172 0224 C02FA072 		movk	w0, 0x17e, lsl 16
 173 0228 230040B9 		ldr	w3, [x1]
 174 022c 7F00006A 		tst	w3, w0
 175 0230 41020054 		bne	.L48
 176 0234 F4478852 		mov	w20, 16959
 177 0238 F401A072 		movk	w20, 0xf, lsl 16
 178 023c F90302AA 		mov	x25, x2
 179 0240 F60301AA 		mov	x22, x1
 180 0244 F503002A 		mov	w21, w0
 181 0248 07000014 		b	.L50
 182              		.p2align 2
 183              	.L96:
 184 024c C00240B9 		ldr	w0, [x22]
 185 0250 1F00156A 		tst	w0, w21
 186 0254 01010054 		bne	.L49
 187 0258 94060051 		sub	w20, w20, #1
 188 025c 9F060031 		cmn	w20, #1
 189 0260 E00D0054 		beq	.L46
 190              	.L50:
 191 0264 20008052 		mov	w0, 1
 192 0268 00000094 		bl	delays_wait_microsecs
 193 026c 200340B9 		ldr	w0, [x25]
 194 0270 E0FE0737 		tbnz	x0, 0, .L96
 195              	.L49:
 196 0274 540D0034 		cbz	w20, .L46
 197              	.L48:
 198 0278 150680D2 		mov	x21, 48
 199 027c 15E6A7F2 		movk	x21, 0x3f30, lsl 16
 200 0280 00009052 		mov	w0, 32768
 201 0284 C02FA072 		movk	w0, 0x17e, lsl 16
 202 0288 A10240B9 		ldr	w1, [x21]
 203 028c 3F00006A 		tst	w1, w0
 204 0290 610C0054 		bne	.L46
 205 0294 00000090 		adrp	x0, .LC1
 206 0298 00000091 		add	x0, x0, :lo12:.LC1
 207 029c 00000094 		bl	kprintf_debug
 208 02a0 14000090 		adrp	x20, .LC2
 209 02a4 94020091 		add	x20, x20, :lo12:.LC2
 210 02a8 E103132A 		mov	w1, w19
 211 02ac E00314AA 		mov	x0, x20
 212 02b0 00000094 		bl	kprintf_debug
 213 02b4 00000090 		adrp	x0, .LC3
 214 02b8 00000091 		add	x0, x0, :lo12:.LC3
 215 02bc 00000094 		bl	kprintf_debug
 216 02c0 E103172A 		mov	w1, w23
 217 02c4 E00314AA 		mov	x0, x20
 218 02c8 00000094 		bl	kprintf_debug
 219 02cc 00000090 		adrp	x0, .LC4
 220 02d0 00000091 		add	x0, x0, :lo12:.LC4
 221 02d4 00000094 		bl	kprintf_debug
 222 02d8 A10240B9 		ldr	w1, [x21]
 223 02dc 020180D2 		mov	x2, 8
 224 02e0 02E6A7F2 		movk	x2, 0x3f30, lsl 16
 225 02e4 800180D2 		mov	x0, 12
 226 02e8 00E6A7F2 		movk	x0, 0x3f30, lsl 16
AARCH64 GAS  C:\Users\A01169~1\AppData\Local\Temp\ccRWduX2.s 			page 5


 227 02ec A10200B9 		str	w1, [x21]
 228 02f0 570000B9 		str	w23, [x2]
 229 02f4 01E0A652 		mov	w1, 922746880
 230 02f8 7F02016B 		cmp	w19, w1
 231 02fc 130000B9 		str	w19, [x0]
 232 0300 F6179F1A 		cset	w22, eq
 233 0304 4000A152 		mov	w0, 134348800
 234 0308 7F02006B 		cmp	w19, w0
 235 030c D9169F1A 		csinc	w25, w22, wzr, ne
 236 0310 F9090035 		cbnz	w25, .L51
 237              	.L94:
 238 0314 A10240B9 		ldr	w1, [x21]
 239 0318 20009052 		mov	w0, 32769
 240 031c C02FA072 		movk	w0, 0x17e, lsl 16
 241 0320 3F00006A 		tst	w1, w0
 242 0324 410B0054 		bne	.L97
 243 0328 F4478852 		mov	w20, 16959
 244 032c F401A072 		movk	w20, 0xf, lsl 16
 245 0330 150680D2 		mov	x21, 48
 246 0334 15E6A7F2 		movk	x21, 0x3f30, lsl 16
 247 0338 3A009052 		mov	w26, 32769
 248 033c DA2FA072 		movk	w26, 0x17e, lsl 16
 249 0340 04000014 		b	.L55
 250              		.p2align 2
 251              	.L99:
 252 0344 94060051 		sub	w20, w20, #1
 253 0348 9F060031 		cmn	w20, #1
 254 034c E00D0054 		beq	.L98
 255              	.L55:
 256 0350 20008052 		mov	w0, 1
 257 0354 00000094 		bl	delays_wait_microsecs
 258 0358 A00240B9 		ldr	w0, [x21]
 259 035c 1F001A6A 		tst	w0, w26
 260 0360 20FFFF54 		beq	.L99
 261 0364 A00240B9 		ldr	w0, [x21]
 262 0368 340D0034 		cbz	w20, .L57
 263              	.L53:
 264 036c 2102A052 		mov	w1, 1114112
 265 0370 1F00016A 		tst	w0, w1
 266 0374 C10C0054 		bne	.L57
 267 0378 01009052 		mov	w1, 32768
 268 037c C12FA072 		movk	w1, 0x17e, lsl 16
 269 0380 1F00016A 		tst	w0, w1
 270 0384 210E0054 		bne	.L100
 271 0388 000680D2 		mov	x0, 48
 272 038c 00E6A7F2 		movk	x0, 0x3f30, lsl 16
 273 0390 22008052 		mov	w2, 1
 274 0394 010280D2 		mov	x1, 16
 275 0398 01E6A7F2 		movk	x1, 0x3f30, lsl 16
 276 039c 020000B9 		str	w2, [x0]
 277 03a0 7F020071 		cmp	w19, 0
 278 03a4 00008052 		mov	w0, 0
 279 03a8 210040B9 		ldr	w1, [x1]
 280 03ac C01A407A 		ccmp	w22, 0, 0, ne
 281 03b0 A1020054 		bne	.L92
 282 03b4 40E0A652 		mov	w0, 922877952
 283 03b8 7F02006B 		cmp	w19, w0
AARCH64 GAS  C:\Users\A01169~1\AppData\Local\Temp\ccRWduX2.s 			page 6


 284 03bc 20020054 		beq	.L101
 285 03c0 B9050035 		cbnz	w25, .L102
 286 03c4 2040A052 		mov	w0, 33619968
 287 03c8 7F02006B 		cmp	w19, w0
 288 03cc 40060054 		beq	.L103
 289 03d0 4060A052 		mov	w0, 50462720
 290 03d4 7F02006B 		cmp	w19, w0
 291 03d8 C0070054 		beq	.L104
 292 03dc 80009852 		mov	w0, 49156
 293 03e0 20FFBF72 		movk	w0, 0xfff9, lsl 16
 294 03e4 2000000A 		and	w0, w1, w0
 295 03e8 F55B41A9 		ldp	x21, x22, [sp, 16]
 296 03ec F76342A9 		ldp	x23, x24, [sp, 32]
 297 03f0 F96B43A9 		ldp	x25, x26, [sp, 48]
 298 03f4 FE2340F9 		ldr	x30, [sp, 64]
 299 03f8 F353C5A8 		ldp	x19, x20, [sp], 80
 300 03fc C0035FD6 		ret
 301              		.p2align 2
 302              	.L101:
 303 0400 20001B12 		and	w0, w1, 32
 304              	.L92:
 305 0404 F55B41A9 		ldp	x21, x22, [sp, 16]
 306 0408 F96B43A9 		ldp	x25, x26, [sp, 48]
 307              	.L40:
 308 040c F76342A9 		ldp	x23, x24, [sp, 32]
 309 0410 FE2340F9 		ldr	x30, [sp, 64]
 310 0414 F353C5A8 		ldp	x19, x20, [sp], 80
 311 0418 C0035FD6 		ret
 312              		.p2align 2
 313              	.L46:
 314 041c 00000090 		adrp	x0, .LC5
 315 0420 00000091 		add	x0, x0, :lo12:.LC5
 316 0424 00000094 		bl	kprintf_debug
 317 0428 01008092 		mov	x1, -1
 318 042c 00008052 		mov	w0, 0
 319 0430 010300F9 		str	x1, [x24, #:lo12:sd_err]
 320 0434 F55B41A9 		ldp	x21, x22, [sp, 16]
 321 0438 F76342A9 		ldp	x23, x24, [sp, 32]
 322 043c F96B43A9 		ldp	x25, x26, [sp, 48]
 323 0440 FE2340F9 		ldr	x30, [sp, 64]
 324 0444 F353C5A8 		ldp	x19, x20, [sp], 80
 325 0448 C0035FD6 		ret
 326              		.p2align 2
 327              	.L51:
 328 044c 800C8052 		mov	w0, 100
 329 0450 00000094 		bl	delays_wait_microsecs
 330 0454 B0FFFF17 		b	.L94
 331              		.p2align 2
 332              	.L95:
 333 0458 00000090 		adrp	x0, .LC0
 334 045c 00000091 		add	x0, x0, :lo12:.LC0
 335 0460 00000094 		bl	kprintf_debug
 336 0464 21008092 		mov	x1, -2
 337 0468 00008052 		mov	w0, 0
 338 046c 010300F9 		str	x1, [x24, #:lo12:sd_err]
 339 0470 E7FFFF17 		b	.L40
 340              		.p2align 2
AARCH64 GAS  C:\Users\A01169~1\AppData\Local\Temp\ccRWduX2.s 			page 7


 341              	.L102:
 342 0474 3F00176B 		cmp	w1, w23
 343 0478 20008012 		mov	w0, -2
 344 047c E003801A 		csel	w0, wzr, w0, eq
 345 0480 F55B41A9 		ldp	x21, x22, [sp, 16]
 346 0484 F96B43A9 		ldp	x25, x26, [sp, 48]
 347 0488 E1FFFF17 		b	.L40
 348              		.p2align 2
 349              	.L97:
 350 048c A00240B9 		ldr	w0, [x21]
 351 0490 B7FFFF17 		b	.L53
 352              		.p2align 2
 353              	.L103:
 354 0494 830380D2 		mov	x3, 28
 355 0498 03E6A7F2 		movk	x3, 0x3f30, lsl 16
 356 049c 000380D2 		mov	x0, 24
 357 04a0 00E6A7F2 		movk	x0, 0x3f30, lsl 16
 358 04a4 820280D2 		mov	x2, 20
 359 04a8 02E6A7F2 		movk	x2, 0x3f30, lsl 16
 360 04ac 630040B9 		ldr	w3, [x3]
 361 04b0 000040B9 		ldr	w0, [x0]
 362 04b4 420040B9 		ldr	w2, [x2]
 363 04b8 2100032A 		orr	w1, w1, w3
 364 04bc F55B41A9 		ldp	x21, x22, [sp, 16]
 365 04c0 0000022A 		orr	w0, w0, w2
 366 04c4 0000012A 		orr	w0, w0, w1
 367 04c8 F96B43A9 		ldp	x25, x26, [sp, 48]
 368 04cc D0FFFF17 		b	.L40
 369              		.p2align 2
 370              	.L104:
 371 04d0 225C1853 		lsl	w2, w1, 8
 372 04d4 20641A53 		lsl	w0, w1, 6
 373 04d8 44000A12 		and	w4, w2, 4194304
 374 04dc 43000912 		and	w3, w2, 8388608
 375 04e0 00000D12 		and	w0, w0, 524288
 376 04e4 22001E12 		and	w2, w1, 4
 377 04e8 0000042A 		orr	w0, w0, w4
 378 04ec 4200032A 		orr	w2, w2, w3
 379 04f0 4200002A 		orr	w2, w2, w0
 380 04f4 203C1012 		and	w0, w1, -65536
 381 04f8 020300F9 		str	x2, [x24, #:lo12:sd_err]
 382 04fc F55B41A9 		ldp	x21, x22, [sp, 16]
 383 0500 F96B43A9 		ldp	x25, x26, [sp, 48]
 384 0504 C2FFFF17 		b	.L40
 385              		.p2align 2
 386              	.L98:
 387 0508 A00240B9 		ldr	w0, [x21]
 388              	.L57:
 389 050c 010680D2 		mov	x1, 48
 390 0510 01E6A7F2 		movk	x1, 0x3f30, lsl 16
 391 0514 13008092 		mov	x19, -1
 392 0518 200000B9 		str	w0, [x1]
 393              	.L59:
 394 051c 00000090 		adrp	x0, .LC6
 395 0520 00000091 		add	x0, x0, :lo12:.LC6
 396 0524 00000094 		bl	kprintf_debug
 397 0528 130300F9 		str	x19, [x24, #:lo12:sd_err]
AARCH64 GAS  C:\Users\A01169~1\AppData\Local\Temp\ccRWduX2.s 			page 8


 398 052c 00008052 		mov	w0, 0
 399 0530 F55B41A9 		ldp	x21, x22, [sp, 16]
 400 0534 F76342A9 		ldp	x23, x24, [sp, 32]
 401 0538 F96B43A9 		ldp	x25, x26, [sp, 48]
 402 053c FE2340F9 		ldr	x30, [sp, 64]
 403 0540 F353C5A8 		ldp	x19, x20, [sp], 80
 404 0544 C0035FD6 		ret
 405              	.L100:
 406 0548 010680D2 		mov	x1, 48
 407 054c 01E6A7F2 		movk	x1, 0x3f30, lsl 16
 408 0550 33008092 		mov	x19, -2
 409 0554 200000B9 		str	w0, [x1]
 410 0558 F1FFFF17 		b	.L59
 411              		.size	sd_cmd, .-sd_cmd
 412              		.align	2
 413 055c 1F2003D5 		.p2align 4,,15
 414              		.global	sd_readblock
 415              		.type	sd_readblock, %function
 416              	sd_readblock:
 417 0560 5F000071 		cmp	w2, 0
 418 0564 F353B9A9 		stp	x19, x20, [sp, -112]!
 419 0568 F403002A 		mov	w20, w0
 420 056c 00000090 		adrp	x0, .LC7
 421 0570 00000091 		add	x0, x0, :lo12:.LC7
 422 0574 F55B01A9 		stp	x21, x22, [sp, 16]
 423 0578 56149F1A 		csinc	w22, w2, wzr, ne
 424 057c 13000090 		adrp	x19, .LC2
 425 0580 73020091 		add	x19, x19, :lo12:.LC2
 426 0584 F76302A9 		stp	x23, x24, [sp, 32]
 427 0588 950480D2 		mov	x21, 36
 428 058c 15E6A7F2 		movk	x21, 0x3f30, lsl 16
 429 0590 FB7304A9 		stp	x27, x28, [sp, 64]
 430 0594 FC0301AA 		mov	x28, x1
 431 0598 FE2B00F9 		str	x30, [sp, 80]
 432 059c 00000094 		bl	kprintf_debug
 433 05a0 E103142A 		mov	w1, w20
 434 05a4 E00313AA 		mov	x0, x19
 435 05a8 00000094 		bl	kprintf_debug
 436 05ac 00000090 		adrp	x0, .LC8
 437 05b0 00000091 		add	x0, x0, :lo12:.LC8
 438 05b4 00000094 		bl	kprintf_debug
 439 05b8 E103162A 		mov	w1, w22
 440 05bc E00313AA 		mov	x0, x19
 441 05c0 00000094 		bl	kprintf_debug
 442 05c4 00000090 		adrp	x0, .LC4
 443 05c8 00000091 		add	x0, x0, :lo12:.LC4
 444 05cc 00000094 		bl	kprintf_debug
 445 05d0 A00240B9 		ldr	w0, [x21]
 446 05d4 C0020836 		tbz	x0, 1, .L110
 447 05d8 180680D2 		mov	x24, 48
 448 05dc 18E6A7F2 		movk	x24, 0x3f30, lsl 16
 449 05e0 17009052 		mov	w23, 32768
 450 05e4 D72FA072 		movk	w23, 0x17e, lsl 16
 451 05e8 000340B9 		ldr	w0, [x24]
 452 05ec 1F00176A 		tst	w0, w23
 453 05f0 E1010054 		bne	.L110
 454 05f4 F3478852 		mov	w19, 16959
AARCH64 GAS  C:\Users\A01169~1\AppData\Local\Temp\ccRWduX2.s 			page 9


 455 05f8 F301A072 		movk	w19, 0xf, lsl 16
 456 05fc 07000014 		b	.L112
 457              		.p2align 2
 458              	.L172:
 459 0600 000340B9 		ldr	w0, [x24]
 460 0604 1F00176A 		tst	w0, w23
 461 0608 01010054 		bne	.L111
 462 060c 73060051 		sub	w19, w19, #1
 463 0610 7F060031 		cmn	w19, #1
 464 0614 A00C0054 		beq	.L108
 465              	.L112:
 466 0618 20008052 		mov	w0, 1
 467 061c 00000094 		bl	delays_wait_microsecs
 468 0620 A00240B9 		ldr	w0, [x21]
 469 0624 E0FE0F37 		tbnz	x0, 1, .L172
 470              	.L111:
 471 0628 130C0034 		cbz	w19, .L108
 472              	.L110:
 473 062c 010680D2 		mov	x1, 48
 474 0630 01E6A7F2 		movk	x1, 0x3f30, lsl 16
 475 0634 00009052 		mov	w0, 32768
 476 0638 C02FA072 		movk	w0, 0x17e, lsl 16
 477 063c 210040B9 		ldr	w1, [x1]
 478 0640 3F00006A 		tst	w1, w0
 479 0644 210B0054 		bne	.L108
 480 0648 17000090 		adrp	x23, sd_scr
 481 064c E00240F9 		ldr	x0, [x23, #:lo12:sd_scr]
 482 0650 01004092 		and	x1, x0, 1
 483 0654 00080037 		tbnz	x0, 0, .L113
 484 0658 800080D2 		mov	x0, 4
 485 065c 00E6A7F2 		movk	x0, 0x3f30, lsl 16
 486 0660 F96B03A9 		stp	x25, x26, [sp, 48]
 487 0664 02408052 		mov	w2, 512
 488 0668 2200A072 		movk	w2, 0x1, lsl 16
 489 066c 18000090 		adrp	x24, sd_err
 490 0670 020000B9 		str	w2, [x0]
 491              	.L119:
 492 0674 945A1753 		lsl	w20, w20, 9
 493 0678 9C030891 		add	x28, x28, 512
 494 067c 80021C4B 		sub	w0, w20, w28
 495 0680 130680D2 		mov	x19, 48
 496 0684 13E6A7F2 		movk	x19, 0x3f30, lsl 16
 497 0688 14049052 		mov	w20, 32800
 498 068c D42FA072 		movk	w20, 0x17e, lsl 16
 499 0690 1A009052 		mov	w26, 32768
 500 0694 DA2FA072 		movk	w26, 0x17e, lsl 16
 501 0698 190480D2 		mov	x25, 32
 502 069c 19E6A7F2 		movk	x25, 0x3f30, lsl 16
 503 06a0 15008052 		mov	w21, 0
 504 06a4 E06F00B9 		str	w0, [sp, 108]
 505              		.p2align 3
 506              	.L132:
 507 06a8 010100B5 		cbnz	x1, .L171
 508 06ac E06F40B9 		ldr	w0, [sp, 108]
 509 06b0 01001C0B 		add	w1, w0, w28
 510 06b4 00028052 		mov	w0, 16
 511 06b8 4024A272 		movk	w0, 0x1122, lsl 16
AARCH64 GAS  C:\Users\A01169~1\AppData\Local\Temp\ccRWduX2.s 			page 10


 512 06bc 00000094 		bl	sd_cmd
 513 06c0 000340F9 		ldr	x0, [x24, #:lo12:sd_err]
 514 06c4 200A00B5 		cbnz	x0, .L167
 515              	.L171:
 516 06c8 600240B9 		ldr	w0, [x19]
 517 06cc FB478852 		mov	w27, 16959
 518 06d0 FB01A072 		movk	w27, 0xf, lsl 16
 519 06d4 1F00146A 		tst	w0, w20
 520 06d8 A0000054 		beq	.L123
 521 06dc 31000014 		b	.L173
 522              		.p2align 2
 523              	.L175:
 524 06e0 7B070051 		sub	w27, w27, #1
 525 06e4 7F070031 		cmn	w27, #1
 526 06e8 200B0054 		beq	.L174
 527              	.L123:
 528 06ec 20008052 		mov	w0, 1
 529 06f0 00000094 		bl	delays_wait_microsecs
 530 06f4 600240B9 		ldr	w0, [x19]
 531 06f8 1F00146A 		tst	w0, w20
 532 06fc 20FFFF54 		beq	.L175
 533 0700 600240B9 		ldr	w0, [x19]
 534 0704 7B0A0034 		cbz	w27, .L126
 535              	.L122:
 536 0708 2102A052 		mov	w1, 1114112
 537 070c 1F00016A 		tst	w0, w1
 538 0710 010A0054 		bne	.L126
 539 0714 1F001A6A 		tst	w0, w26
 540 0718 C10B0054 		bne	.L176
 541 071c 800308D1 		sub	x0, x28, #512
 542 0720 01048052 		mov	w1, 32
 543 0724 610200B9 		str	w1, [x19]
 544              		.p2align 3
 545              	.L130:
 546 0728 210340B9 		ldr	w1, [x25]
 547 072c 014400B8 		str	w1, [x0], 4
 548 0730 9F0300EB 		cmp	x28, x0
 549 0734 A1FFFF54 		bne	.L130
 550 0738 B5060011 		add	w21, w21, 1
 551 073c 9C030891 		add	x28, x28, 512
 552 0740 BF02166B 		cmp	w21, w22
 553 0744 60040054 		beq	.L131
 554 0748 E00240F9 		ldr	x0, [x23, #:lo12:sd_scr]
 555 074c 01004092 		and	x1, x0, 1
 556 0750 D6FFFF17 		b	.L132
 557              	.L113:
 558 0754 DF060071 		cmp	w22, 1
 559 0758 89060054 		bls	.L116
 560 075c 18000090 		adrp	x24, sd_err
 561 0760 200AC837 		tbnz	x0, 25, .L177
 562              	.L117:
 563 0764 820080D2 		mov	x2, 4
 564 0768 02E6A7F2 		movk	x2, 0x3f30, lsl 16
 565 076c C13E1053 		lsl	w1, w22, 16
 566 0770 40068052 		mov	w0, 50
 567 0774 4044A272 		movk	w0, 0x1222, lsl 16
 568 0778 21001732 		orr	w1, w1, 512
AARCH64 GAS  C:\Users\A01169~1\AppData\Local\Temp\ccRWduX2.s 			page 11


 569 077c 410000B9 		str	w1, [x2]
 570              	.L134:
 571 0780 E103142A 		mov	w1, w20
 572 0784 00000094 		bl	sd_cmd
 573 0788 000340F9 		ldr	x0, [x24, #:lo12:sd_err]
 574 078c 000400B5 		cbnz	x0, .L118
 575 0790 E00240F9 		ldr	x0, [x23, #:lo12:sd_scr]
 576 0794 F96B03A9 		stp	x25, x26, [sp, 48]
 577 0798 01004092 		and	x1, x0, 1
 578 079c B6FFFF17 		b	.L119
 579              	.L173:
 580 07a0 600240B9 		ldr	w0, [x19]
 581 07a4 D9FFFF17 		b	.L122
 582              	.L108:
 583 07a8 01000090 		adrp	x1, sd_err
 584 07ac 02008092 		mov	x2, -1
 585 07b0 00008052 		mov	w0, 0
 586 07b4 220000F9 		str	x2, [x1, #:lo12:sd_err]
 587              	.L105:
 588 07b8 F55B41A9 		ldp	x21, x22, [sp, 16]
 589 07bc F76342A9 		ldp	x23, x24, [sp, 32]
 590 07c0 FB7344A9 		ldp	x27, x28, [sp, 64]
 591 07c4 FE2B40F9 		ldr	x30, [sp, 80]
 592 07c8 F353C7A8 		ldp	x19, x20, [sp], 112
 593 07cc C0035FD6 		ret
 594              	.L131:
 595 07d0 BF060071 		cmp	w21, 1
 596 07d4 29010054 		bls	.L133
 597 07d8 E00240F9 		ldr	x0, [x23, #:lo12:sd_scr]
 598 07dc 00644092 		and	x0, x0, 67108863
 599 07e0 009C6792 		and	x0, x0, -33554431
 600 07e4 1F0400F1 		cmp	x0, 1
 601 07e8 81000054 		bne	.L133
 602 07ec 01008052 		mov	w1, 0
 603 07f0 6080A152 		mov	w0, 201523200
 604 07f4 00000094 		bl	sd_cmd
 605              	.L133:
 606 07f8 000340F9 		ldr	x0, [x24, #:lo12:sd_err]
 607 07fc 1F0000F1 		cmp	x0, 0
 608 0800 A002567A 		ccmp	w21, w22, 0, eq
 609 0804 E0050054 		beq	.L178
 610              	.L167:
 611 0808 F96B43A9 		ldp	x25, x26, [sp, 48]
 612              	.L118:
 613 080c 00008052 		mov	w0, 0
 614              	.L179:
 615 0810 F55B41A9 		ldp	x21, x22, [sp, 16]
 616 0814 F76342A9 		ldp	x23, x24, [sp, 32]
 617 0818 FB7344A9 		ldp	x27, x28, [sp, 64]
 618 081c FE2B40F9 		ldr	x30, [sp, 80]
 619 0820 F353C7A8 		ldp	x19, x20, [sp], 112
 620 0824 C0035FD6 		ret
 621              	.L116:
 622 0828 810080D2 		mov	x1, 4
 623 082c 01E6A7F2 		movk	x1, 0x3f30, lsl 16
 624 0830 02408052 		mov	w2, 512
 625 0834 2200A072 		movk	w2, 0x1, lsl 16
AARCH64 GAS  C:\Users\A01169~1\AppData\Local\Temp\ccRWduX2.s 			page 12


 626 0838 00028052 		mov	w0, 16
 627 083c 4024A272 		movk	w0, 0x1122, lsl 16
 628 0840 18000090 		adrp	x24, sd_err
 629 0844 220000B9 		str	w2, [x1]
 630 0848 CEFFFF17 		b	.L134
 631              	.L174:
 632 084c 600240B9 		ldr	w0, [x19]
 633              	.L126:
 634 0850 010680D2 		mov	x1, 48
 635 0854 01E6A7F2 		movk	x1, 0x3f30, lsl 16
 636 0858 13008092 		mov	x19, -1
 637 085c 200000B9 		str	w0, [x1]
 638              	.L128:
 639 0860 00000090 		adrp	x0, .LC9
 640 0864 00000091 		add	x0, x0, :lo12:.LC9
 641 0868 00000094 		bl	kprintf_debug
 642 086c 130300F9 		str	x19, [x24, #:lo12:sd_err]
 643 0870 00008052 		mov	w0, 0
 644 0874 F55B41A9 		ldp	x21, x22, [sp, 16]
 645 0878 F76342A9 		ldp	x23, x24, [sp, 32]
 646 087c F96B43A9 		ldp	x25, x26, [sp, 48]
 647 0880 FB7344A9 		ldp	x27, x28, [sp, 64]
 648 0884 FE2B40F9 		ldr	x30, [sp, 80]
 649 0888 F353C7A8 		ldp	x19, x20, [sp], 112
 650 088c C0035FD6 		ret
 651              	.L176:
 652 0890 010680D2 		mov	x1, 48
 653 0894 01E6A7F2 		movk	x1, 0x3f30, lsl 16
 654 0898 33008092 		mov	x19, -2
 655 089c 200000B9 		str	w0, [x1]
 656 08a0 F0FFFF17 		b	.L128
 657              	.L177:
 658 08a4 E103162A 		mov	w1, w22
 659 08a8 40E0A252 		mov	w0, 386007040
 660 08ac 00000094 		bl	sd_cmd
 661 08b0 000340F9 		ldr	x0, [x24, #:lo12:sd_err]
 662 08b4 80F5FFB4 		cbz	x0, .L117
 663 08b8 00008052 		mov	w0, 0
 664 08bc D5FFFF17 		b	.L179
 665              	.L178:
 666 08c0 C05A1753 		lsl	w0, w22, 9
 667 08c4 F96B43A9 		ldp	x25, x26, [sp, 48]
 668 08c8 BCFFFF17 		b	.L105
 669              		.size	sd_readblock, .-sd_readblock
 670              		.align	2
 671 08cc 1F2003D5 		.p2align 4,,15
 672              		.global	sd_writeblock
 673              		.type	sd_writeblock, %function
 674              	sd_writeblock:
 675 08d0 5F000071 		cmp	w2, 0
 676 08d4 F353B9A9 		stp	x19, x20, [sp, -112]!
 677 08d8 F403012A 		mov	w20, w1
 678 08dc F55B01A9 		stp	x21, x22, [sp, 16]
 679 08e0 56149F1A 		csinc	w22, w2, wzr, ne
 680 08e4 13000090 		adrp	x19, .LC2
 681 08e8 73020091 		add	x19, x19, :lo12:.LC2
 682 08ec F76302A9 		stp	x23, x24, [sp, 32]
AARCH64 GAS  C:\Users\A01169~1\AppData\Local\Temp\ccRWduX2.s 			page 13


 683 08f0 970480D2 		mov	x23, 36
 684 08f4 17E6A7F2 		movk	x23, 0x3f30, lsl 16
 685 08f8 F96B03A9 		stp	x25, x26, [sp, 48]
 686 08fc 55808052 		mov	w21, 1026
 687 0900 FB7304A9 		stp	x27, x28, [sp, 64]
 688 0904 FC0300AA 		mov	x28, x0
 689 0908 00000090 		adrp	x0, .LC10
 690 090c 00000091 		add	x0, x0, :lo12:.LC10
 691 0910 FE2B00F9 		str	x30, [sp, 80]
 692 0914 00000094 		bl	kprintf_debug
 693 0918 E103142A 		mov	w1, w20
 694 091c E00313AA 		mov	x0, x19
 695 0920 00000094 		bl	kprintf_debug
 696 0924 00000090 		adrp	x0, .LC8
 697 0928 00000091 		add	x0, x0, :lo12:.LC8
 698 092c 00000094 		bl	kprintf_debug
 699 0930 E103162A 		mov	w1, w22
 700 0934 E00313AA 		mov	x0, x19
 701 0938 00000094 		bl	kprintf_debug
 702 093c 00000090 		adrp	x0, .LC4
 703 0940 00000091 		add	x0, x0, :lo12:.LC4
 704 0944 00000094 		bl	kprintf_debug
 705 0948 E00240B9 		ldr	w0, [x23]
 706 094c 1F00156A 		tst	w0, w21
 707 0950 E0020054 		beq	.L185
 708 0954 190680D2 		mov	x25, 48
 709 0958 19E6A7F2 		movk	x25, 0x3f30, lsl 16
 710 095c 18009052 		mov	w24, 32768
 711 0960 D82FA072 		movk	w24, 0x17e, lsl 16
 712 0964 200340B9 		ldr	w0, [x25]
 713 0968 1F00186A 		tst	w0, w24
 714 096c 01020054 		bne	.L185
 715 0970 F3478852 		mov	w19, 16959
 716 0974 F301A072 		movk	w19, 0xf, lsl 16
 717 0978 07000014 		b	.L187
 718              		.p2align 2
 719              	.L260:
 720 097c 200340B9 		ldr	w0, [x25]
 721 0980 1F00186A 		tst	w0, w24
 722 0984 21010054 		bne	.L186
 723 0988 73060051 		sub	w19, w19, #1
 724 098c 7F060031 		cmn	w19, #1
 725 0990 A00E0054 		beq	.L183
 726              	.L187:
 727 0994 20008052 		mov	w0, 1
 728 0998 00000094 		bl	delays_wait_microsecs
 729 099c E00240B9 		ldr	w0, [x23]
 730 09a0 1F00156A 		tst	w0, w21
 731 09a4 C1FEFF54 		bne	.L260
 732              	.L186:
 733 09a8 F30D0034 		cbz	w19, .L183
 734              	.L185:
 735 09ac 010680D2 		mov	x1, 48
 736 09b0 01E6A7F2 		movk	x1, 0x3f30, lsl 16
 737 09b4 00009052 		mov	w0, 32768
 738 09b8 C02FA072 		movk	w0, 0x17e, lsl 16
 739 09bc 210040B9 		ldr	w1, [x1]
AARCH64 GAS  C:\Users\A01169~1\AppData\Local\Temp\ccRWduX2.s 			page 14


 740 09c0 3F00006A 		tst	w1, w0
 741 09c4 010D0054 		bne	.L183
 742 09c8 18000090 		adrp	x24, sd_scr
 743 09cc 000340F9 		ldr	x0, [x24, #:lo12:sd_scr]
 744 09d0 01004092 		and	x1, x0, 1
 745 09d4 00080037 		tbnz	x0, 0, .L188
 746 09d8 800080D2 		mov	x0, 4
 747 09dc 00E6A7F2 		movk	x0, 0x3f30, lsl 16
 748 09e0 02408052 		mov	w2, 512
 749 09e4 2200A072 		movk	w2, 0x1, lsl 16
 750 09e8 17000090 		adrp	x23, sd_err
 751 09ec 020000B9 		str	w2, [x0]
 752              	.L194:
 753 09f0 945A1753 		lsl	w20, w20, 9
 754 09f4 9C030891 		add	x28, x28, 512
 755 09f8 80021C4B 		sub	w0, w20, w28
 756 09fc 130680D2 		mov	x19, 48
 757 0a00 13E6A7F2 		movk	x19, 0x3f30, lsl 16
 758 0a04 14029052 		mov	w20, 32784
 759 0a08 D42FA072 		movk	w20, 0x17e, lsl 16
 760 0a0c 1A009052 		mov	w26, 32768
 761 0a10 DA2FA072 		movk	w26, 0x17e, lsl 16
 762 0a14 190480D2 		mov	x25, 32
 763 0a18 19E6A7F2 		movk	x25, 0x3f30, lsl 16
 764 0a1c 15008052 		mov	w21, 0
 765 0a20 E06F00B9 		str	w0, [sp, 108]
 766 0a24 1F2003D5 		.p2align 3
 767              	.L207:
 768 0a28 010100B5 		cbnz	x1, .L259
 769 0a2c E06F40B9 		ldr	w0, [sp, 108]
 770 0a30 01001C0B 		add	w1, w0, w28
 771 0a34 00028052 		mov	w0, 16
 772 0a38 4004A372 		movk	w0, 0x1822, lsl 16
 773 0a3c 00000094 		bl	sd_cmd
 774 0a40 E00240F9 		ldr	x0, [x23, #:lo12:sd_err]
 775 0a44 C00700B5 		cbnz	x0, .L257
 776              	.L259:
 777 0a48 600240B9 		ldr	w0, [x19]
 778 0a4c FB478852 		mov	w27, 16959
 779 0a50 FB01A072 		movk	w27, 0xf, lsl 16
 780 0a54 1F00146A 		tst	w0, w20
 781 0a58 A0000054 		beq	.L198
 782 0a5c 40000014 		b	.L261
 783              		.p2align 2
 784              	.L263:
 785 0a60 7B070051 		sub	w27, w27, #1
 786 0a64 7F070031 		cmn	w27, #1
 787 0a68 E00F0054 		beq	.L262
 788              	.L198:
 789 0a6c 20008052 		mov	w0, 1
 790 0a70 00000094 		bl	delays_wait_microsecs
 791 0a74 600240B9 		ldr	w0, [x19]
 792 0a78 1F00146A 		tst	w0, w20
 793 0a7c 20FFFF54 		beq	.L263
 794 0a80 600240B9 		ldr	w0, [x19]
 795 0a84 3B0F0034 		cbz	w27, .L201
 796              	.L197:
AARCH64 GAS  C:\Users\A01169~1\AppData\Local\Temp\ccRWduX2.s 			page 15


 797 0a88 2102A052 		mov	w1, 1114112
 798 0a8c 1F00016A 		tst	w0, w1
 799 0a90 C10E0054 		bne	.L201
 800 0a94 1F001A6A 		tst	w0, w26
 801 0a98 81100054 		bne	.L264
 802 0a9c 800308D1 		sub	x0, x28, #512
 803 0aa0 01028052 		mov	w1, 16
 804 0aa4 610200B9 		str	w1, [x19]
 805              		.p2align 3
 806              	.L205:
 807 0aa8 014440B8 		ldr	w1, [x0], 4
 808 0aac 210300B9 		str	w1, [x25]
 809 0ab0 9F0300EB 		cmp	x28, x0
 810 0ab4 A1FFFF54 		bne	.L205
 811 0ab8 B5060011 		add	w21, w21, 1
 812 0abc 9C030891 		add	x28, x28, 512
 813 0ac0 BF02166B 		cmp	w21, w22
 814 0ac4 60060054 		beq	.L206
 815 0ac8 000340F9 		ldr	x0, [x24, #:lo12:sd_scr]
 816 0acc 01004092 		and	x1, x0, 1
 817 0ad0 D6FFFF17 		b	.L207
 818              	.L188:
 819 0ad4 DF060071 		cmp	w22, 1
 820 0ad8 490B0054 		bls	.L191
 821 0adc 17000090 		adrp	x23, sd_err
 822 0ae0 E00EC837 		tbnz	x0, 25, .L265
 823              	.L192:
 824 0ae4 820080D2 		mov	x2, 4
 825 0ae8 02E6A7F2 		movk	x2, 0x3f30, lsl 16
 826 0aec C13E1053 		lsl	w1, w22, 16
 827 0af0 40068052 		mov	w0, 50
 828 0af4 4024A372 		movk	w0, 0x1922, lsl 16
 829 0af8 21001732 		orr	w1, w1, 512
 830 0afc 410000B9 		str	w1, [x2]
 831              	.L219:
 832 0b00 E103142A 		mov	w1, w20
 833 0b04 00000094 		bl	sd_cmd
 834 0b08 E00240F9 		ldr	x0, [x23, #:lo12:sd_err]
 835 0b0c 800100B5 		cbnz	x0, .L257
 836 0b10 000340F9 		ldr	x0, [x24, #:lo12:sd_scr]
 837 0b14 01004092 		and	x1, x0, 1
 838 0b18 B6FFFF17 		b	.L194
 839              	.L268:
 840 0b1c 010680D2 		mov	x1, 48
 841 0b20 01E6A7F2 		movk	x1, 0x3f30, lsl 16
 842 0b24 33008092 		mov	x19, -2
 843 0b28 200000B9 		str	w0, [x1]
 844              	.L215:
 845 0b2c 00000090 		adrp	x0, .LC12
 846 0b30 00000091 		add	x0, x0, :lo12:.LC12
 847 0b34 00000094 		bl	kprintf_debug
 848 0b38 F30200F9 		str	x19, [x23, #:lo12:sd_err]
 849              	.L257:
 850 0b3c 00008052 		mov	w0, 0
 851              	.L180:
 852 0b40 F55B41A9 		ldp	x21, x22, [sp, 16]
 853 0b44 F76342A9 		ldp	x23, x24, [sp, 32]
AARCH64 GAS  C:\Users\A01169~1\AppData\Local\Temp\ccRWduX2.s 			page 16


 854 0b48 F96B43A9 		ldp	x25, x26, [sp, 48]
 855 0b4c FB7344A9 		ldp	x27, x28, [sp, 64]
 856 0b50 FE2B40F9 		ldr	x30, [sp, 80]
 857 0b54 F353C7A8 		ldp	x19, x20, [sp], 112
 858 0b58 C0035FD6 		ret
 859              	.L261:
 860 0b5c 600240B9 		ldr	w0, [x19]
 861 0b60 CAFFFF17 		b	.L197
 862              	.L183:
 863 0b64 01000090 		adrp	x1, sd_err
 864 0b68 02008092 		mov	x2, -1
 865 0b6c 00008052 		mov	w0, 0
 866 0b70 220000F9 		str	x2, [x1, #:lo12:sd_err]
 867 0b74 F55B41A9 		ldp	x21, x22, [sp, 16]
 868 0b78 F76342A9 		ldp	x23, x24, [sp, 32]
 869 0b7c F96B43A9 		ldp	x25, x26, [sp, 48]
 870 0b80 FB7344A9 		ldp	x27, x28, [sp, 64]
 871 0b84 FE2B40F9 		ldr	x30, [sp, 80]
 872 0b88 F353C7A8 		ldp	x19, x20, [sp], 112
 873 0b8c C0035FD6 		ret
 874              	.L206:
 875 0b90 140680D2 		mov	x20, 48
 876 0b94 14E6A7F2 		movk	x20, 0x3f30, lsl 16
 877 0b98 59009052 		mov	w25, 32770
 878 0b9c D92FA072 		movk	w25, 0x17e, lsl 16
 879 0ba0 800240B9 		ldr	w0, [x20]
 880 0ba4 1F00196A 		tst	w0, w25
 881 0ba8 E1090054 		bne	.L208
 882 0bac F3478852 		mov	w19, 16959
 883 0bb0 F301A072 		movk	w19, 0xf, lsl 16
 884 0bb4 04000014 		b	.L210
 885              		.p2align 2
 886              	.L267:
 887 0bb8 73060051 		sub	w19, w19, #1
 888 0bbc 7F060031 		cmn	w19, #1
 889 0bc0 60090054 		beq	.L266
 890              	.L210:
 891 0bc4 20008052 		mov	w0, 1
 892 0bc8 00000094 		bl	delays_wait_microsecs
 893 0bcc 800240B9 		ldr	w0, [x20]
 894 0bd0 1F00196A 		tst	w0, w25
 895 0bd4 20FFFF54 		beq	.L267
 896 0bd8 800240B9 		ldr	w0, [x20]
 897 0bdc B3080034 		cbz	w19, .L213
 898              	.L212:
 899 0be0 2102A052 		mov	w1, 1114112
 900 0be4 1F00016A 		tst	w0, w1
 901 0be8 41080054 		bne	.L213
 902 0bec 01009052 		mov	w1, 32768
 903 0bf0 C12FA072 		movk	w1, 0x17e, lsl 16
 904 0bf4 1F00016A 		tst	w0, w1
 905 0bf8 21F9FF54 		bne	.L268
 906 0bfc 000680D2 		mov	x0, 48
 907 0c00 00E6A7F2 		movk	x0, 0x3f30, lsl 16
 908 0c04 41008052 		mov	w1, 2
 909 0c08 DF060071 		cmp	w22, 1
 910 0c0c 010000B9 		str	w1, [x0]
AARCH64 GAS  C:\Users\A01169~1\AppData\Local\Temp\ccRWduX2.s 			page 17


 911 0c10 C9000054 		bls	.L218
 912 0c14 000340F9 		ldr	x0, [x24, #:lo12:sd_scr]
 913 0c18 00644092 		and	x0, x0, 67108863
 914 0c1c 009C6792 		and	x0, x0, -33554431
 915 0c20 1F0400F1 		cmp	x0, 1
 916 0c24 80050054 		beq	.L269
 917              	.L218:
 918 0c28 E00240F9 		ldr	x0, [x23, #:lo12:sd_err]
 919 0c2c 1F0000F1 		cmp	x0, 0
 920 0c30 C05A1753 		lsl	w0, w22, 9
 921 0c34 C002557A 		ccmp	w22, w21, 0, eq
 922 0c38 21F8FF54 		bne	.L257
 923 0c3c C1FFFF17 		b	.L180
 924              	.L191:
 925 0c40 810080D2 		mov	x1, 4
 926 0c44 01E6A7F2 		movk	x1, 0x3f30, lsl 16
 927 0c48 02408052 		mov	w2, 512
 928 0c4c 2200A072 		movk	w2, 0x1, lsl 16
 929 0c50 00028052 		mov	w0, 16
 930 0c54 4004A372 		movk	w0, 0x1822, lsl 16
 931 0c58 17000090 		adrp	x23, sd_err
 932 0c5c 220000B9 		str	w2, [x1]
 933 0c60 A8FFFF17 		b	.L219
 934              	.L262:
 935 0c64 600240B9 		ldr	w0, [x19]
 936              	.L201:
 937 0c68 010680D2 		mov	x1, 48
 938 0c6c 01E6A7F2 		movk	x1, 0x3f30, lsl 16
 939 0c70 13008092 		mov	x19, -1
 940 0c74 200000B9 		str	w0, [x1]
 941              	.L203:
 942 0c78 00000090 		adrp	x0, .LC11
 943 0c7c 00000091 		add	x0, x0, :lo12:.LC11
 944 0c80 00000094 		bl	kprintf_debug
 945 0c84 F30200F9 		str	x19, [x23, #:lo12:sd_err]
 946 0c88 00008052 		mov	w0, 0
 947 0c8c F55B41A9 		ldp	x21, x22, [sp, 16]
 948 0c90 F76342A9 		ldp	x23, x24, [sp, 32]
 949 0c94 F96B43A9 		ldp	x25, x26, [sp, 48]
 950 0c98 FB7344A9 		ldp	x27, x28, [sp, 64]
 951 0c9c FE2B40F9 		ldr	x30, [sp, 80]
 952 0ca0 F353C7A8 		ldp	x19, x20, [sp], 112
 953 0ca4 C0035FD6 		ret
 954              	.L264:
 955 0ca8 010680D2 		mov	x1, 48
 956 0cac 01E6A7F2 		movk	x1, 0x3f30, lsl 16
 957 0cb0 33008092 		mov	x19, -2
 958 0cb4 200000B9 		str	w0, [x1]
 959 0cb8 F0FFFF17 		b	.L203
 960              	.L265:
 961 0cbc E103162A 		mov	w1, w22
 962 0cc0 40E0A252 		mov	w0, 386007040
 963 0cc4 00000094 		bl	sd_cmd
 964 0cc8 E00240F9 		ldr	x0, [x23, #:lo12:sd_err]
 965 0ccc C0F0FFB4 		cbz	x0, .L192
 966 0cd0 9BFFFF17 		b	.L257
 967              	.L269:
AARCH64 GAS  C:\Users\A01169~1\AppData\Local\Temp\ccRWduX2.s 			page 18


 968 0cd4 01008052 		mov	w1, 0
 969 0cd8 6080A152 		mov	w0, 201523200
 970 0cdc 00000094 		bl	sd_cmd
 971 0ce0 D2FFFF17 		b	.L218
 972              	.L208:
 973 0ce4 800240B9 		ldr	w0, [x20]
 974 0ce8 BEFFFF17 		b	.L212
 975              	.L266:
 976 0cec 800240B9 		ldr	w0, [x20]
 977              	.L213:
 978 0cf0 010680D2 		mov	x1, 48
 979 0cf4 01E6A7F2 		movk	x1, 0x3f30, lsl 16
 980 0cf8 13008092 		mov	x19, -1
 981 0cfc 200000B9 		str	w0, [x1]
 982 0d00 8BFFFF17 		b	.L215
 983              		.size	sd_writeblock, .-sd_writeblock
 984              		.align	2
 985 0d04 1F2003D5 		.p2align 4,,15
 985      1F2003D5 
 985      1F2003D5 
 986              		.global	sd_clk
 987              		.type	sd_clk, %function
 988              	sd_clk:
 989 0d10 F353BCA9 		stp	x19, x20, [sp, -64]!
 990 0d14 940480D2 		mov	x20, 36
 991 0d18 14E6A7F2 		movk	x20, 0x3f30, lsl 16
 992 0d1c F55B01A9 		stp	x21, x22, [sp, 16]
 993 0d20 550D9952 		mov	w21, 51306
 994 0d24 754FA072 		movk	w21, 0x27b, lsl 16
 995 0d28 810240B9 		ldr	w1, [x20]
 996 0d2c B50AC01A 		udiv	w21, w21, w0
 997 0d30 FE1B00F9 		str	x30, [sp, 48]
 998 0d34 3F0440F2 		tst	x1, 3
 999 0d38 A0010054 		beq	.L271
 1000 0d3c F3D39052 		mov	w19, 34463
 1001 0d40 3300A072 		movk	w19, 0x1, lsl 16
 1002 0d44 04000014 		b	.L273
 1003              		.p2align 2
 1004              	.L300:
 1005 0d48 73060051 		sub	w19, w19, #1
 1006 0d4c 7F060031 		cmn	w19, #1
 1007 0d50 400E0054 		beq	.L274
 1008              	.L273:
 1009 0d54 20008052 		mov	w0, 1
 1010 0d58 00000094 		bl	delays_wait_microsecs
 1011 0d5c 800240B9 		ldr	w0, [x20]
 1012 0d60 1F0440F2 		tst	x0, 3
 1013 0d64 21FFFF54 		bne	.L300
 1014 0d68 930D0034 		cbz	w19, .L274
 1015              	.L271:
 1016 0d6c 820580D2 		mov	x2, 44
 1017 0d70 02E6A7F2 		movk	x2, 0x3f30, lsl 16
 1018 0d74 F76302A9 		stp	x23, x24, [sp, 32]
 1019 0d78 40018052 		mov	w0, 10
 1020 0d7c 410040B9 		ldr	w1, [x2]
 1021 0d80 21781D12 		and	w1, w1, -5
 1022 0d84 410000B9 		str	w1, [x2]
AARCH64 GAS  C:\Users\A01169~1\AppData\Local\Temp\ccRWduX2.s 			page 19


 1023 0d88 00000094 		bl	delays_wait_microsecs
 1024 0d8c B3060071 		subs	w19, w21, #1
 1025 0d90 E00A0054 		beq	.L288
 1026 0d94 7F3E1072 		tst	w19, -65536
 1027 0d98 210B0054 		bne	.L289
 1028 0d9c 733E1053 		lsl	w19, w19, 16
 1029 0da0 01018052 		mov	w1, 8
 1030 0da4 00028052 		mov	w0, 16
 1031              	.L277:
 1032 0da8 7F1E0872 		tst	w19, -16777216
 1033 0dac 61000054 		bne	.L278
 1034 0db0 735E1853 		lsl	w19, w19, 8
 1035 0db4 E003012A 		mov	w0, w1
 1036              	.L278:
 1037 0db8 7F0E0472 		tst	w19, -268435456
 1038 0dbc 61000054 		bne	.L279
 1039 0dc0 736E1C53 		lsl	w19, w19, 4
 1040 0dc4 00100051 		sub	w0, w0, #4
 1041              	.L279:
 1042 0dc8 7F060272 		tst	w19, -1073741824
 1043 0dcc 61000054 		bne	.L280
 1044 0dd0 73761E53 		lsl	w19, w19, 2
 1045 0dd4 00080051 		sub	w0, w0, #2
 1046              	.L280:
 1047 0dd8 137C530B 		add	w19, w0, w19, lsr 31
 1048 0ddc 17000090 		adrp	x23, sd_hv
 1049 0de0 E10240F9 		ldr	x1, [x23, #:lo12:sd_hv]
 1050 0de4 730A0051 		sub	w19, w19, #2
 1051 0de8 7F1E0071 		cmp	w19, 7
 1052 0dec E0008052 		mov	w0, 7
 1053 0df0 7392801A 		csel	w19, w19, w0, ls
 1054 0df4 3F0800F1 		cmp	x1, 2
 1055 0df8 20008052 		mov	w0, 1
 1056 0dfc 0020D31A 		lsl	w0, w0, w19
 1057 0e00 1530951A 		csel	w21, w0, w21, cc
 1058 0e04 BF0A0071 		cmp	w21, 2
 1059 0e08 09080054 		bls	.L290
 1060 0e0c B81E1853 		ubfiz	w24, w21, 8, 8
 1061              	.L276:
 1062 0e10 00000090 		adrp	x0, .LC14
 1063 0e14 00000091 		add	x0, x0, :lo12:.LC14
 1064 0e18 00000094 		bl	kprintf_debug
 1065 0e1c 14000090 		adrp	x20, .LC2
 1066 0e20 94020091 		add	x20, x20, :lo12:.LC2
 1067 0e24 E103152A 		mov	w1, w21
 1068 0e28 E00314AA 		mov	x0, x20
 1069 0e2c 00000094 		bl	kprintf_debug
 1070 0e30 00000090 		adrp	x0, .LC15
 1071 0e34 00000091 		add	x0, x0, :lo12:.LC15
 1072 0e38 00000094 		bl	kprintf_debug
 1073 0e3c 960580D2 		mov	x22, 44
 1074 0e40 16E6A7F2 		movk	x22, 0x3f30, lsl 16
 1075 0e44 E103132A 		mov	w1, w19
 1076 0e48 E00314AA 		mov	x0, x20
 1077 0e4c 00000094 		bl	kprintf_debug
 1078 0e50 00000090 		adrp	x0, .LC4
 1079 0e54 00000091 		add	x0, x0, :lo12:.LC4
AARCH64 GAS  C:\Users\A01169~1\AppData\Local\Temp\ccRWduX2.s 			page 20


 1080 0e58 00000094 		bl	kprintf_debug
 1081 0e5c F40316AA 		mov	x20, x22
 1082 0e60 E00240F9 		ldr	x0, [x23, #:lo12:sd_hv]
 1083 0e64 A17E0253 		lsr	w1, w21, 2
 1084 0e68 C20240B9 		ldr	w2, [x22]
 1085 0e6c 21041A12 		and	w1, w1, 192
 1086 0e70 1F0400F1 		cmp	x0, 1
 1087 0e74 40018052 		mov	w0, 10
 1088 0e78 42541012 		and	w2, w2, -65473
 1089 0e7c 21809F1A 		csel	w1, w1, wzr, hi
 1090 0e80 4200182A 		orr	w2, w2, w24
 1091 0e84 F3E18452 		mov	w19, 9999
 1092 0e88 4100012A 		orr	w1, w2, w1
 1093 0e8c C10200B9 		str	w1, [x22]
 1094 0e90 00000094 		bl	delays_wait_microsecs
 1095 0e94 C10240B9 		ldr	w1, [x22]
 1096 0e98 40018052 		mov	w0, 10
 1097 0e9c 21001E32 		orr	w1, w1, 4
 1098 0ea0 C10200B9 		str	w1, [x22]
 1099 0ea4 00000094 		bl	delays_wait_microsecs
 1100 0ea8 C00240B9 		ldr	w0, [x22]
 1101 0eac A0000836 		tbz	x0, 1, .L284
 1102 0eb0 09000014 		b	.L287
 1103              		.p2align 2
 1104              	.L301:
 1105 0eb4 73060051 		sub	w19, w19, #1
 1106 0eb8 7F060031 		cmn	w19, #1
 1107 0ebc 80030054 		beq	.L286
 1108              	.L284:
 1109 0ec0 40018052 		mov	w0, 10
 1110 0ec4 00000094 		bl	delays_wait_microsecs
 1111 0ec8 800240B9 		ldr	w0, [x20]
 1112 0ecc 40FF0F36 		tbz	x0, 1, .L301
 1113 0ed0 F3020034 		cbz	w19, .L286
 1114              	.L287:
 1115 0ed4 F76342A9 		ldp	x23, x24, [sp, 32]
 1116 0ed8 00008052 		mov	w0, 0
 1117              	.L270:
 1118 0edc F55B41A9 		ldp	x21, x22, [sp, 16]
 1119 0ee0 FE1B40F9 		ldr	x30, [sp, 48]
 1120 0ee4 F353C4A8 		ldp	x19, x20, [sp], 64
 1121 0ee8 C0035FD6 		ret
 1122              		.p2align 2
 1123              	.L288:
 1124 0eec 18408052 		mov	w24, 512
 1125 0ef0 55008052 		mov	w21, 2
 1126 0ef4 17000090 		adrp	x23, sd_hv
 1127 0ef8 C6FFFF17 		b	.L276
 1128              		.p2align 2
 1129              	.L289:
 1130 0efc 01038052 		mov	w1, 24
 1131 0f00 00048052 		mov	w0, 32
 1132 0f04 A9FFFF17 		b	.L277
 1133              	.L290:
 1134 0f08 18408052 		mov	w24, 512
 1135 0f0c 13008052 		mov	w19, 0
 1136 0f10 55008052 		mov	w21, 2
AARCH64 GAS  C:\Users\A01169~1\AppData\Local\Temp\ccRWduX2.s 			page 21


 1137 0f14 BFFFFF17 		b	.L276
 1138              	.L274:
 1139 0f18 00000090 		adrp	x0, .LC13
 1140 0f1c 00000091 		add	x0, x0, :lo12:.LC13
 1141 0f20 00000094 		bl	kprintf_debug
 1142 0f24 20008012 		mov	w0, -2
 1143 0f28 EDFFFF17 		b	.L270
 1144              	.L286:
 1145 0f2c 00000090 		adrp	x0, .LC16
 1146 0f30 00000091 		add	x0, x0, :lo12:.LC16
 1147 0f34 00000094 		bl	kprintf_debug
 1148 0f38 20008012 		mov	w0, -2
 1149 0f3c F76342A9 		ldp	x23, x24, [sp, 32]
 1150 0f40 E7FFFF17 		b	.L270
 1151              		.size	sd_clk, .-sd_clk
 1152              		.align	2
 1153 0f44 1F2003D5 		.p2align 4,,15
 1153      1F2003D5 
 1153      1F2003D5 
 1154              		.global	sd_init
 1155              		.type	sd_init, %function
 1156              	sd_init:
 1157 0f50 F353B8A9 		stp	x19, x20, [sp, -128]!
 1158 0f54 941380D2 		mov	x20, 156
 1159 0f58 14E4A7F2 		movk	x20, 0x3f20, lsl 16
 1160 0f5c F76302A9 		stp	x23, x24, [sp, 32]
 1161 0f60 170280D2 		mov	x23, 16
 1162 0f64 17E4A7F2 		movk	x23, 0x3f20, lsl 16
 1163 0f68 F55B01A9 		stp	x21, x22, [sp, 16]
 1164 0f6c 961280D2 		mov	x22, 148
 1165 0f70 16E4A7F2 		movk	x22, 0x3f20, lsl 16
 1166 0f74 E10240B9 		ldr	w1, [x23]
 1167 0f78 58008052 		mov	w24, 2
 1168 0f7c FE2B00F9 		str	x30, [sp, 80]
 1169 0f80 C0128052 		mov	w0, 150
 1170 0f84 217C4092 		and	x1, x1, 4294967295
 1171 0f88 15000090 		adrp	x21, sd_hv
 1172 0f8c 21F06892 		and	x1, x1, -14680065
 1173 0f90 E10200B9 		str	w1, [x23]
 1174 0f94 D80200B9 		str	w24, [x22]
 1175 0f98 13E284D2 		mov	x19, 10000
 1176 0f9c 00000094 		bl	delays_wait_cycles
 1177 0fa0 00009052 		mov	w0, 32768
 1178 0fa4 800200B9 		str	w0, [x20]
 1179 0fa8 C0128052 		mov	w0, 150
 1180 0fac 00000094 		bl	delays_wait_cycles
 1181 0fb0 DF0200B9 		str	wzr, [x22]
 1182 0fb4 020D80D2 		mov	x2, 104
 1183 0fb8 02E4A7F2 		movk	x2, 0x3f20, lsl 16
 1184 0fbc 9F0200B9 		str	wzr, [x20]
 1185 0fc0 C0128052 		mov	w0, 150
 1186 0fc4 410040B9 		ldr	w1, [x2]
 1187 0fc8 21001132 		orr	w1, w1, 32768
 1188 0fcc 410000B9 		str	w1, [x2]
 1189 0fd0 E10240B9 		ldr	w1, [x23]
 1190 0fd4 21140832 		orr	w1, w1, 1056964608
 1191 0fd8 E10200B9 		str	w1, [x23]
AARCH64 GAS  C:\Users\A01169~1\AppData\Local\Temp\ccRWduX2.s 			page 22


 1192 0fdc D80200B9 		str	w24, [x22]
 1193 0fe0 00000094 		bl	delays_wait_cycles
 1194 0fe4 6000A052 		mov	w0, 196608
 1195 0fe8 800200B9 		str	w0, [x20]
 1196 0fec C0128052 		mov	w0, 150
 1197 0ff0 00000094 		bl	delays_wait_cycles
 1198 0ff4 DF0200B9 		str	wzr, [x22]
 1199 0ff8 820280D2 		mov	x2, 20
 1200 0ffc 02E4A7F2 		movk	x2, 0x3f20, lsl 16
 1201 1000 9F0200B9 		str	wzr, [x20]
 1202 1004 C0128052 		mov	w0, 150
 1203 1008 410040B9 		ldr	w1, [x2]
 1204 100c 212C0032 		orr	w1, w1, 4095
 1205 1010 410000B9 		str	w1, [x2]
 1206 1014 D80200B9 		str	w24, [x22]
 1207 1018 00000094 		bl	delays_wait_cycles
 1208 101c 8007A052 		mov	w0, 3932160
 1209 1020 800200B9 		str	w0, [x20]
 1210 1024 C0128052 		mov	w0, 150
 1211 1028 00000094 		bl	delays_wait_cycles
 1212 102c DF0200B9 		str	wzr, [x22]
 1213 1030 811F80D2 		mov	x1, 252
 1214 1034 01E6A7F2 		movk	x1, 0x3f30, lsl 16
 1215 1038 9F0200B9 		str	wzr, [x20]
 1216 103c 00000090 		adrp	x0, .LC17
 1217 1040 00000091 		add	x0, x0, :lo12:.LC17
 1218 1044 210040B9 		ldr	w1, [x1]
 1219 1048 215C50D3 		ubfx	x1, x1, 16, 8
 1220 104c A10200F9 		str	x1, [x21, #:lo12:sd_hv]
 1221 1050 00000094 		bl	kprintf_debug
 1222 1054 010580D2 		mov	x1, 40
 1223 1058 01E6A7F2 		movk	x1, 0x3f30, lsl 16
 1224 105c 800580D2 		mov	x0, 44
 1225 1060 00E6A7F2 		movk	x0, 0x3f30, lsl 16
 1226 1064 3F0000B9 		str	wzr, [x1]
 1227 1068 F40300AA 		mov	x20, x0
 1228 106c 010040B9 		ldr	w1, [x0]
 1229 1070 21000832 		orr	w1, w1, 16777216
 1230 1074 010000B9 		str	w1, [x0]
 1231 1078 04000014 		b	.L304
 1232              		.p2align 2
 1233              	.L403:
 1234 107c 730600D1 		sub	x19, x19, #1
 1235 1080 7F0600B1 		cmn	x19, #1
 1236 1084 20290054 		beq	.L305
 1237              	.L304:
 1238 1088 40018052 		mov	w0, 10
 1239 108c 00000094 		bl	delays_wait_microsecs
 1240 1090 800240B9 		ldr	w0, [x20]
 1241 1094 40FFC737 		tbnz	x0, 24, .L403
 1242 1098 932800B4 		cbz	x19, .L305
 1243 109c 00000090 		adrp	x0, .LC19
 1244 10a0 00000091 		add	x0, x0, :lo12:.LC19
 1245 10a4 00000094 		bl	kprintf_debug
 1246 10a8 810240B9 		ldr	w1, [x20]
 1247 10ac 22008052 		mov	w2, 1
 1248 10b0 C201A072 		movk	w2, 0xe, lsl 16
AARCH64 GAS  C:\Users\A01169~1\AppData\Local\Temp\ccRWduX2.s 			page 23


 1249 10b4 40018052 		mov	w0, 10
 1250 10b8 2100022A 		orr	w1, w1, w2
 1251 10bc 810200B9 		str	w1, [x20]
 1252 10c0 940480D2 		mov	x20, 36
 1253 10c4 14E6A7F2 		movk	x20, 0x3f30, lsl 16
 1254 10c8 00000094 		bl	delays_wait_microsecs
 1255 10cc 800240B9 		ldr	w0, [x20]
 1256 10d0 1F0440F2 		tst	x0, 3
 1257 10d4 A0010054 		beq	.L308
 1258 10d8 F3D39052 		mov	w19, 34463
 1259 10dc 3300A072 		movk	w19, 0x1, lsl 16
 1260 10e0 04000014 		b	.L310
 1261              		.p2align 2
 1262              	.L404:
 1263 10e4 73060051 		sub	w19, w19, #1
 1264 10e8 7F060031 		cmn	w19, #1
 1265 10ec 40250054 		beq	.L311
 1266              	.L310:
 1267 10f0 20008052 		mov	w0, 1
 1268 10f4 00000094 		bl	delays_wait_microsecs
 1269 10f8 800240B9 		ldr	w0, [x20]
 1270 10fc 1F0440F2 		tst	x0, 3
 1271 1100 21FFFF54 		bne	.L404
 1272 1104 93240034 		cbz	w19, .L311
 1273              	.L308:
 1274 1108 960580D2 		mov	x22, 44
 1275 110c 16E6A7F2 		movk	x22, 0x3f30, lsl 16
 1276 1110 40018052 		mov	w0, 10
 1277 1114 140D8052 		mov	w20, 104
 1278 1118 C10240B9 		ldr	w1, [x22]
 1279 111c 13000090 		adrp	x19, .LC2
 1280 1120 73020091 		add	x19, x19, :lo12:.LC2
 1281 1124 21781D12 		and	w1, w1, -5
 1282 1128 C10200B9 		str	w1, [x22]
 1283 112c 00000094 		bl	delays_wait_microsecs
 1284 1130 A20240F9 		ldr	x2, [x21, #:lo12:sd_hv]
 1285 1134 03088052 		mov	w3, 64
 1286 1138 01008D52 		mov	w1, 26624
 1287 113c 15008852 		mov	w21, 16384
 1288 1140 5F0400F1 		cmp	x2, 1
 1289 1144 00000090 		adrp	x0, .LC14
 1290 1148 00000091 		add	x0, x0, :lo12:.LC14
 1291 114c 3580951A 		csel	w21, w1, w21, hi
 1292 1150 9482831A 		csel	w20, w20, w3, hi
 1293 1154 00000094 		bl	kprintf_debug
 1294 1158 E103142A 		mov	w1, w20
 1295 115c E00313AA 		mov	x0, x19
 1296 1160 00000094 		bl	kprintf_debug
 1297 1164 14000090 		adrp	x20, .LC4
 1298 1168 94020091 		add	x20, x20, :lo12:.LC4
 1299 116c 00000090 		adrp	x0, .LC15
 1300 1170 00000091 		add	x0, x0, :lo12:.LC15
 1301 1174 00000094 		bl	kprintf_debug
 1302 1178 C1008052 		mov	w1, 6
 1303 117c E00313AA 		mov	x0, x19
 1304 1180 00000094 		bl	kprintf_debug
 1305 1184 E00314AA 		mov	x0, x20
AARCH64 GAS  C:\Users\A01169~1\AppData\Local\Temp\ccRWduX2.s 			page 24


 1306 1188 00000094 		bl	kprintf_debug
 1307 118c C10240B9 		ldr	w1, [x22]
 1308 1190 40018052 		mov	w0, 10
 1309 1194 21541012 		and	w1, w1, -65473
 1310 1198 2100152A 		orr	w1, w1, w21
 1311 119c C10200B9 		str	w1, [x22]
 1312 11a0 00000094 		bl	delays_wait_microsecs
 1313 11a4 C10240B9 		ldr	w1, [x22]
 1314 11a8 40018052 		mov	w0, 10
 1315 11ac 21001E32 		orr	w1, w1, 4
 1316 11b0 C10200B9 		str	w1, [x22]
 1317 11b4 00000094 		bl	delays_wait_microsecs
 1318 11b8 C00240B9 		ldr	w0, [x22]
 1319 11bc 60010837 		tbnz	x0, 1, .L313
 1320 11c0 F5E18452 		mov	w21, 9999
 1321 11c4 04000014 		b	.L315
 1322              		.p2align 2
 1323              	.L405:
 1324 11c8 B5060051 		sub	w21, w21, #1
 1325 11cc BF060031 		cmn	w21, #1
 1326 11d0 60230054 		beq	.L316
 1327              	.L315:
 1328 11d4 40018052 		mov	w0, 10
 1329 11d8 00000094 		bl	delays_wait_microsecs
 1330 11dc C00240B9 		ldr	w0, [x22]
 1331 11e0 40FF0F36 		tbz	x0, 1, .L405
 1332 11e4 D5220034 		cbz	w21, .L316
 1333              	.L313:
 1334 11e8 020780D2 		mov	x2, 56
 1335 11ec 02E6A7F2 		movk	x2, 0x3f30, lsl 16
 1336 11f0 810680D2 		mov	x1, 52
 1337 11f4 01E6A7F2 		movk	x1, 0x3f30, lsl 16
 1338 11f8 F96B03A9 		stp	x25, x26, [sp, 48]
 1339 11fc 00008012 		mov	w0, -1
 1340 1200 16000090 		adrp	x22, sd_scr
 1341 1204 D9020091 		add	x25, x22, :lo12:sd_scr
 1342 1208 400000B9 		str	w0, [x2]
 1343 120c 15000090 		adrp	x21, sd_err
 1344 1210 18000090 		adrp	x24, sd_rca
 1345 1214 200000B9 		str	w0, [x1]
 1346 1218 01008052 		mov	w1, 0
 1347 121c DF0200F9 		str	xzr, [x22, #:lo12:sd_scr]
 1348 1220 00008052 		mov	w0, 0
 1349 1224 BF0200F9 		str	xzr, [x21, #:lo12:sd_err]
 1350 1228 1F0300F9 		str	xzr, [x24, #:lo12:sd_rca]
 1351 122c 3F0700F9 		str	xzr, [x25, 8]
 1352 1230 00000094 		bl	sd_cmd
 1353 1234 A00240F9 		ldr	x0, [x21, #:lo12:sd_err]
 1354 1238 200100B4 		cbz	x0, .L317
 1355              	.L394:
 1356 123c F96B43A9 		ldp	x25, x26, [sp, 48]
 1357 1240 F303002A 		mov	w19, w0
 1358              	.L302:
 1359 1244 E003132A 		mov	w0, w19
 1360 1248 F55B41A9 		ldp	x21, x22, [sp, 16]
 1361 124c F76342A9 		ldp	x23, x24, [sp, 32]
 1362 1250 FE2B40F9 		ldr	x30, [sp, 80]
AARCH64 GAS  C:\Users\A01169~1\AppData\Local\Temp\ccRWduX2.s 			page 25


 1363 1254 F353C8A8 		ldp	x19, x20, [sp], 128
 1364 1258 C0035FD6 		ret
 1365              		.p2align 2
 1366              	.L317:
 1367 125c 41358052 		mov	w1, 426
 1368 1260 4000A152 		mov	w0, 134348800
 1369 1264 00000094 		bl	sd_cmd
 1370 1268 D70080D2 		mov	x23, 6
 1371 126c A00240F9 		ldr	x0, [x21, #:lo12:sd_err]
 1372 1270 60FEFFB5 		cbnz	x0, .L394
 1373 1274 FB7304A9 		stp	x27, x28, [sp, 64]
 1374 1278 1B000090 		adrp	x27, .LC20
 1375 127c 60030091 		add	x0, x27, :lo12:.LC20
 1376 1280 E03700F9 		str	x0, [sp, 104]
 1377 1284 00000090 		adrp	x0, .LC21
 1378 1288 00000091 		add	x0, x0, :lo12:.LC21
 1379 128c E03F00F9 		str	x0, [sp, 120]
 1380              	.L318:
 1381 1290 F70600D1 		sub	x23, x23, #1
 1382 1294 00328052 		mov	w0, 400
 1383 1298 FF0600B1 		cmn	x23, #1
 1384 129c 40090054 		beq	.L328
 1385 12a0 00000094 		bl	delays_wait_cycles
 1386 12a4 BC020091 		add	x28, x21, :lo12:sd_err
 1387 12a8 01009052 		mov	w1, 32768
 1388 12ac E13FAA72 		movk	w1, 0x51ff, lsl 16
 1389 12b0 4020B552 		mov	w0, -1459486720
 1390 12b4 00000094 		bl	sd_cmd
 1391 12b8 1A7C4093 		sxtw	x26, w0
 1392 12bc E03740F9 		ldr	x0, [sp, 104]
 1393 12c0 41030212 		and	w1, w26, 1073741824
 1394 12c4 FB031AAA 		mov	x27, x26
 1395 12c8 E17700B9 		str	w1, [sp, 116]
 1396 12cc 00000094 		bl	kprintf_debug
 1397 12d0 5A07F837 		tbnz	w26, #31, .L406
 1398              	.L319:
 1399 12d4 60231172 		ands	w0, w27, 16744448
 1400 12d8 E07300B9 		str	w0, [sp, 112]
 1401 12dc E1050054 		bne	.L407
 1402 12e0 5B06F037 		tbnz	x27, 30, .L408
 1403              	.L321:
 1404 12e4 41FF7F93 		asr	x1, x26, 63
 1405 12e8 E00313AA 		mov	x0, x19
 1406 12ec 00000094 		bl	kprintf_debug
 1407 12f0 E1031AAA 		mov	x1, x26
 1408 12f4 E00313AA 		mov	x0, x19
 1409 12f8 00000094 		bl	kprintf_debug
 1410 12fc E00314AA 		mov	x0, x20
 1411 1300 00000094 		bl	kprintf_debug
 1412 1304 A00240F9 		ldr	x0, [x21, #:lo12:sd_err]
 1413 1308 000400D1 		sub	x0, x0, #1
 1414 130c 1F0C00B1 		cmn	x0, #3
 1415 1310 49130054 		bls	.L409
 1416 1314 FBFBFF36 		tbz	w27, #31, .L318
 1417 1318 770500B4 		cbz	x23, .L328
 1418 131c E07340B9 		ldr	w0, [sp, 112]
 1419 1320 80190034 		cbz	w0, .L352
AARCH64 GAS  C:\Users\A01169~1\AppData\Local\Temp\ccRWduX2.s 			page 26


 1420 1324 01008052 		mov	w1, 0
 1421 1328 2040A052 		mov	w0, 33619968
 1422 132c 00000094 		bl	sd_cmd
 1423 1330 01008052 		mov	w1, 0
 1424 1334 4060A052 		mov	w0, 50462720
 1425 1338 00000094 		bl	sd_cmd
 1426 133c 017C4093 		sxtw	x1, w0
 1427 1340 00000090 		adrp	x0, .LC25
 1428 1344 00000091 		add	x0, x0, :lo12:.LC25
 1429 1348 010300F9 		str	x1, [x24, #:lo12:sd_rca]
 1430 134c 00000094 		bl	kprintf_debug
 1431 1350 010340B9 		ldr	w1, [x24, #:lo12:sd_rca+4]
 1432 1354 E00313AA 		mov	x0, x19
 1433 1358 00000094 		bl	kprintf_debug
 1434 135c 010340F9 		ldr	x1, [x24, #:lo12:sd_rca]
 1435 1360 E00313AA 		mov	x0, x19
 1436 1364 00000094 		bl	kprintf_debug
 1437 1368 E00314AA 		mov	x0, x20
 1438 136c 00000094 		bl	kprintf_debug
 1439 1370 800340F9 		ldr	x0, [x28]
 1440 1374 A00300B5 		cbnz	x0, .L401
 1441 1378 00088F52 		mov	w0, 30784
 1442 137c A02FA072 		movk	w0, 0x17d, lsl 16
 1443 1380 00000094 		bl	sd_clk
 1444 1384 F303002A 		mov	w19, w0
 1445 1388 80030034 		cbz	w0, .L410
 1446 138c F96B43A9 		ldp	x25, x26, [sp, 48]
 1447 1390 FB7344A9 		ldp	x27, x28, [sp, 64]
 1448 1394 ACFFFF17 		b	.L302
 1449              		.p2align 2
 1450              	.L407:
 1451 1398 00000090 		adrp	x0, .LC22
 1452 139c 00000091 		add	x0, x0, :lo12:.LC22
 1453 13a0 00000094 		bl	kprintf_debug
 1454 13a4 1BFAF736 		tbz	x27, 30, .L321
 1455              	.L408:
 1456 13a8 00000090 		adrp	x0, .LC23
 1457 13ac 00000091 		add	x0, x0, :lo12:.LC23
 1458 13b0 00000094 		bl	kprintf_debug
 1459 13b4 CCFFFF17 		b	.L321
 1460              		.p2align 2
 1461              	.L406:
 1462 13b8 E03F40F9 		ldr	x0, [sp, 120]
 1463 13bc 00000094 		bl	kprintf_debug
 1464 13c0 C5FFFF17 		b	.L319
 1465              	.L328:
 1466 13c4 13008012 		mov	w19, -1
 1467 13c8 E003132A 		mov	w0, w19
 1468 13cc F55B41A9 		ldp	x21, x22, [sp, 16]
 1469 13d0 F76342A9 		ldp	x23, x24, [sp, 32]
 1470 13d4 F96B43A9 		ldp	x25, x26, [sp, 48]
 1471 13d8 FB7344A9 		ldp	x27, x28, [sp, 64]
 1472 13dc FE2B40F9 		ldr	x30, [sp, 80]
 1473 13e0 F353C8A8 		ldp	x19, x20, [sp], 128
 1474 13e4 C0035FD6 		ret
 1475              	.L401:
 1476 13e8 F303002A 		mov	w19, w0
AARCH64 GAS  C:\Users\A01169~1\AppData\Local\Temp\ccRWduX2.s 			page 27


 1477 13ec F96B43A9 		ldp	x25, x26, [sp, 48]
 1478 13f0 FB7344A9 		ldp	x27, x28, [sp, 64]
 1479 13f4 94FFFF17 		b	.L302
 1480              	.L410:
 1481 13f8 010340B9 		ldr	w1, [x24, #:lo12:sd_rca]
 1482 13fc 60E0A052 		mov	w0, 117637120
 1483 1400 00000094 		bl	sd_cmd
 1484 1404 800340F9 		ldr	x0, [x28]
 1485 1408 00FFFFB5 		cbnz	x0, .L401
 1486 140c 970480D2 		mov	x23, 36
 1487 1410 17E6A7F2 		movk	x23, 0x3f30, lsl 16
 1488 1414 E00240B9 		ldr	w0, [x23]
 1489 1418 E0020836 		tbz	x0, 1, .L331
 1490 141c 000680D2 		mov	x0, 48
 1491 1420 00E6A7F2 		movk	x0, 0x3f30, lsl 16
 1492 1424 FB0300AA 		mov	x27, x0
 1493 1428 1A009052 		mov	w26, 32768
 1494 142c DA2FA072 		movk	w26, 0x17e, lsl 16
 1495 1430 000040B9 		ldr	w0, [x0]
 1496 1434 FC478852 		mov	w28, 16959
 1497 1438 FC01A072 		movk	w28, 0xf, lsl 16
 1498 143c 1F001A6A 		tst	w0, w26
 1499 1440 00010054 		beq	.L330
 1500 1444 0C000014 		b	.L331
 1501              		.p2align 2
 1502              	.L411:
 1503 1448 600340B9 		ldr	w0, [x27]
 1504 144c 1F001A6A 		tst	w0, w26
 1505 1450 01010054 		bne	.L332
 1506 1454 9C070051 		sub	w28, w28, #1
 1507 1458 9F070031 		cmn	w28, #1
 1508 145c 40FBFF54 		beq	.L328
 1509              	.L330:
 1510 1460 20008052 		mov	w0, 1
 1511 1464 00000094 		bl	delays_wait_microsecs
 1512 1468 E00240B9 		ldr	w0, [x23]
 1513 146c E0FE0F37 		tbnz	x0, 1, .L411
 1514              	.L332:
 1515 1470 BCFAFF34 		cbz	w28, .L328
 1516              	.L331:
 1517 1474 1C0680D2 		mov	x28, 48
 1518 1478 1CE6A7F2 		movk	x28, 0x3f30, lsl 16
 1519 147c 00009052 		mov	w0, 32768
 1520 1480 C02FA072 		movk	w0, 0x17e, lsl 16
 1521 1484 810340B9 		ldr	w1, [x28]
 1522 1488 3F00006A 		tst	w1, w0
 1523 148c C1F9FF54 		bne	.L328
 1524 1490 810080D2 		mov	x1, 4
 1525 1494 01E6A7F2 		movk	x1, 0x3f30, lsl 16
 1526 1498 02018052 		mov	w2, 8
 1527 149c 2200A072 		movk	w2, 0x1, lsl 16
 1528 14a0 220000B9 		str	w2, [x1]
 1529 14a4 00028052 		mov	w0, 16
 1530 14a8 4064B672 		movk	w0, 0xb322, lsl 16
 1531 14ac 01008052 		mov	w1, 0
 1532 14b0 00000094 		bl	sd_cmd
 1533 14b4 A00240F9 		ldr	x0, [x21, #:lo12:sd_err]
AARCH64 GAS  C:\Users\A01169~1\AppData\Local\Temp\ccRWduX2.s 			page 28


 1534 14b8 80F9FFB5 		cbnz	x0, .L401
 1535 14bc 800340B9 		ldr	w0, [x28]
 1536 14c0 1A049052 		mov	w26, 32800
 1537 14c4 DA2FA072 		movk	w26, 0x17e, lsl 16
 1538 14c8 F7478852 		mov	w23, 16959
 1539 14cc F701A072 		movk	w23, 0xf, lsl 16
 1540 14d0 FB031CAA 		mov	x27, x28
 1541 14d4 1F001A6A 		tst	w0, w26
 1542 14d8 A0000054 		beq	.L334
 1543 14dc 71000014 		b	.L412
 1544              		.p2align 2
 1545              	.L414:
 1546 14e0 F7060051 		sub	w23, w23, #1
 1547 14e4 FF060031 		cmn	w23, #1
 1548 14e8 C00C0054 		beq	.L413
 1549              	.L334:
 1550 14ec 20008052 		mov	w0, 1
 1551 14f0 00000094 		bl	delays_wait_microsecs
 1552 14f4 600340B9 		ldr	w0, [x27]
 1553 14f8 1F001A6A 		tst	w0, w26
 1554 14fc 20FFFF54 		beq	.L414
 1555 1500 600340B9 		ldr	w0, [x27]
 1556 1504 170C0034 		cbz	w23, .L402
 1557              	.L335:
 1558 1508 2102A052 		mov	w1, 1114112
 1559 150c 1F00016A 		tst	w0, w1
 1560 1510 A10B0054 		bne	.L402
 1561 1514 01009052 		mov	w1, 32768
 1562 1518 C12FA072 		movk	w1, 0x17e, lsl 16
 1563 151c 1F00016A 		tst	w0, w1
 1564 1520 210B0054 		bne	.L402
 1565 1524 000680D2 		mov	x0, 48
 1566 1528 00E6A7F2 		movk	x0, 0x3f30, lsl 16
 1567 152c 01048052 		mov	w1, 32
 1568 1530 9A0480D2 		mov	x26, 36
 1569 1534 1AE6A7F2 		movk	x26, 0x3f30, lsl 16
 1570 1538 1B0480D2 		mov	x27, 32
 1571 153c 1BE6A7F2 		movk	x27, 0x3f30, lsl 16
 1572 1540 170080D2 		mov	x23, 0
 1573 1544 010000B9 		str	w1, [x0]
 1574              	.L341:
 1575 1548 400340B9 		ldr	w0, [x26]
 1576 154c 00015836 		tbz	x0, 11, .L342
 1577              	.L416:
 1578 1550 600340B9 		ldr	w0, [x27]
 1579 1554 E003002A 		uxtw	x0, w0
 1580 1558 207B37F8 		str	x0, [x25, x23, lsl 3]
 1581 155c 170300B5 		cbnz	x23, .L415
 1582 1560 400340B9 		ldr	w0, [x26]
 1583 1564 370080D2 		mov	x23, 1
 1584 1568 40FF5F37 		tbnz	x0, 11, .L416
 1585              	.L342:
 1586 156c 20008052 		mov	w0, 1
 1587 1570 00000094 		bl	delays_wait_microsecs
 1588 1574 F5FFFF17 		b	.L341
 1589              	.L409:
 1590 1578 00000090 		adrp	x0, .LC24
AARCH64 GAS  C:\Users\A01169~1\AppData\Local\Temp\ccRWduX2.s 			page 29


 1591 157c 00000091 		add	x0, x0, :lo12:.LC24
 1592 1580 00000094 		bl	kprintf_debug
 1593 1584 930340B9 		ldr	w19, [x28]
 1594 1588 F96B43A9 		ldp	x25, x26, [sp, 48]
 1595 158c FB7344A9 		ldp	x27, x28, [sp, 64]
 1596 1590 2DFFFF17 		b	.L302
 1597              	.L311:
 1598 1594 00000090 		adrp	x0, .LC13
 1599 1598 00000091 		add	x0, x0, :lo12:.LC13
 1600 159c 33008012 		mov	w19, -2
 1601 15a0 00000094 		bl	kprintf_debug
 1602 15a4 28FFFF17 		b	.L302
 1603              	.L305:
 1604 15a8 00000090 		adrp	x0, .LC18
 1605 15ac 00000091 		add	x0, x0, :lo12:.LC18
 1606 15b0 33008012 		mov	w19, -2
 1607 15b4 00000094 		bl	kprintf_debug
 1608 15b8 23FFFF17 		b	.L302
 1609              	.L415:
 1610 15bc 200340F9 		ldr	x0, [x25]
 1611 15c0 80015036 		tbz	x0, 10, .L345
 1612 15c4 010340F9 		ldr	x1, [x24, #:lo12:sd_rca]
 1613 15c8 40C0B052 		mov	w0, -2046689280
 1614 15cc 21001F32 		orr	w1, w1, 2
 1615 15d0 00000094 		bl	sd_cmd
 1616 15d4 A00240F9 		ldr	x0, [x21, #:lo12:sd_err]
 1617 15d8 80F0FFB5 		cbnz	x0, .L401
 1618 15dc 010580D2 		mov	x1, 40
 1619 15e0 01E6A7F2 		movk	x1, 0x3f30, lsl 16
 1620 15e4 200040B9 		ldr	w0, [x1]
 1621 15e8 00001F32 		orr	w0, w0, 2
 1622 15ec 200000B9 		str	w0, [x1]
 1623              	.L345:
 1624 15f0 00000090 		adrp	x0, .LC26
 1625 15f4 00000091 		add	x0, x0, :lo12:.LC26
 1626 15f8 00000094 		bl	kprintf_debug
 1627 15fc C00240F9 		ldr	x0, [x22, #:lo12:sd_scr]
 1628 1600 8003C837 		tbnz	x0, 25, .L417
 1629              	.L347:
 1630 1604 E07740B9 		ldr	w0, [sp, 116]
 1631 1608 C0020035 		cbnz	w0, .L418
 1632              	.L348:
 1633 160c E00314AA 		mov	x0, x20
 1634 1610 00000094 		bl	kprintf_debug
 1635 1614 C00240F9 		ldr	x0, [x22, #:lo12:sd_scr]
 1636 1618 E17740B9 		ldr	w1, [sp, 116]
 1637 161c 00F87F92 		and	x0, x0, -2
 1638 1620 3F000071 		cmp	w1, 0
 1639 1624 E1079F9A 		cset	x1, ne
 1640 1628 000001AA 		orr	x0, x0, x1
 1641 162c C00200F9 		str	x0, [x22, #:lo12:sd_scr]
 1642 1630 F96B43A9 		ldp	x25, x26, [sp, 48]
 1643 1634 FB7344A9 		ldp	x27, x28, [sp, 64]
 1644 1638 03FFFF17 		b	.L302
 1645              	.L316:
 1646 163c 00000090 		adrp	x0, .LC16
 1647 1640 00000091 		add	x0, x0, :lo12:.LC16
AARCH64 GAS  C:\Users\A01169~1\AppData\Local\Temp\ccRWduX2.s 			page 30


 1648 1644 33008012 		mov	w19, -2
 1649 1648 00000094 		bl	kprintf_debug
 1650 164c FEFEFF17 		b	.L302
 1651              	.L352:
 1652 1650 33008012 		mov	w19, -2
 1653 1654 F96B43A9 		ldp	x25, x26, [sp, 48]
 1654 1658 FB7344A9 		ldp	x27, x28, [sp, 64]
 1655 165c FAFEFF17 		b	.L302
 1656              	.L418:
 1657 1660 00000090 		adrp	x0, .LC23
 1658 1664 00000091 		add	x0, x0, :lo12:.LC23
 1659 1668 00000094 		bl	kprintf_debug
 1660 166c E8FFFF17 		b	.L348
 1661              	.L417:
 1662 1670 00000090 		adrp	x0, .LC27
 1663 1674 00000091 		add	x0, x0, :lo12:.LC27
 1664 1678 00000094 		bl	kprintf_debug
 1665 167c E2FFFF17 		b	.L347
 1666              	.L413:
 1667 1680 600340B9 		ldr	w0, [x27]
 1668              	.L402:
 1669 1684 010680D2 		mov	x1, 48
 1670 1688 01E6A7F2 		movk	x1, 0x3f30, lsl 16
 1671 168c 13008012 		mov	w19, -1
 1672 1690 F96B43A9 		ldp	x25, x26, [sp, 48]
 1673 1694 FB7344A9 		ldp	x27, x28, [sp, 64]
 1674 1698 200000B9 		str	w0, [x1]
 1675 169c EAFEFF17 		b	.L302
 1676              	.L412:
 1677 16a0 800340B9 		ldr	w0, [x28]
 1678 16a4 99FFFF17 		b	.L335
 1679              		.size	sd_init, .-sd_init
 1680              		.comm	sd_hv,8,8
 1681              		.comm	sd_err,8,8
 1682              		.comm	sd_rca,8,8
 1683              		.comm	sd_ocr,8,8
 1684              		.comm	sd_scr,16,8
 1685              		.section	.rodata.str1.8,"aMS",@progbits,1
 1686              		.align	3
 1687              	.LC0:
 1688 0000 4552524F 		.string	"ERROR: failed to send SD APP command\n"
 1688      523A2066 
 1688      61696C65 
 1688      6420746F 
 1688      2073656E 
 1689 0026 0000     		.zero	2
 1690              	.LC1:
 1691 0028 454D4D43 		.string	"EMMC: Sending command "
 1691      3A205365 
 1691      6E64696E 
 1691      6720636F 
 1691      6D6D616E 
 1692 003f 00       		.zero	1
 1693              	.LC2:
 1694 0040 256400   		.string	"%d"
 1695 0043 00000000 		.zero	5
 1695      00
AARCH64 GAS  C:\Users\A01169~1\AppData\Local\Temp\ccRWduX2.s 			page 31


 1696              	.LC3:
 1697 0048 20617267 		.string	" arg "
 1697      2000
 1698 004e 0000     		.zero	2
 1699              	.LC4:
 1700 0050 0A00     		.string	"\n"
 1701 0052 00000000 		.zero	6
 1701      0000
 1702              	.LC5:
 1703 0058 4552524F 		.string	"ERROR: EMMC busy\n"
 1703      523A2045 
 1703      4D4D4320 
 1703      62757379 
 1703      0A00
 1704 006a 00000000 		.zero	6
 1704      0000
 1705              	.LC6:
 1706 0070 4552524F 		.string	"ERROR: failed to send EMMC command\n"
 1706      523A2066 
 1706      61696C65 
 1706      6420746F 
 1706      2073656E 
 1707 0094 00000000 		.zero	4
 1708              	.LC7:
 1709 0098 73645F72 		.string	"sd_readblock lba "
 1709      65616462 
 1709      6C6F636B 
 1709      206C6261 
 1709      2000
 1710 00aa 00000000 		.zero	6
 1710      0000
 1711              	.LC8:
 1712 00b0 206E756D 		.string	" num "
 1712      2000
 1713 00b6 0000     		.zero	2
 1714              	.LC9:
 1715 00b8 0D455252 		.string	"\rERROR: Timeout waiting for ready to read\n"
 1715      4F523A20 
 1715      54696D65 
 1715      6F757420 
 1715      77616974 
 1716 00e3 00000000 		.zero	5
 1716      00
 1717              	.LC10:
 1718 00e8 73645F77 		.string	"sd_writeblock lba "
 1718      72697465 
 1718      626C6F63 
 1718      6B206C62 
 1718      612000
 1719 00fb 00000000 		.zero	5
 1719      00
 1720              	.LC11:
 1721 0100 0D455252 		.string	"\rERROR: Timeout waiting for ready to write\n"
 1721      4F523A20 
 1721      54696D65 
 1721      6F757420 
 1721      77616974 
AARCH64 GAS  C:\Users\A01169~1\AppData\Local\Temp\ccRWduX2.s 			page 32


 1722 012c 00000000 		.zero	4
 1723              	.LC12:
 1724 0130 0D455252 		.string	"\rERROR: Timeout waiting for data done\n"
 1724      4F523A20 
 1724      54696D65 
 1724      6F757420 
 1724      77616974 
 1725 0157 00       		.zero	1
 1726              	.LC13:
 1727 0158 4552524F 		.string	"ERROR: timeout waiting for inhibit flag\n"
 1727      523A2074 
 1727      696D656F 
 1727      75742077 
 1727      61697469 
 1728 0181 00000000 		.zero	7
 1728      000000
 1729              	.LC14:
 1730 0188 73645F63 		.string	"sd_clk divisor "
 1730      6C6B2064 
 1730      69766973 
 1730      6F722000 
 1731              	.LC15:
 1732 0198 2C207368 		.string	", shift "
 1732      69667420 
 1732      00
 1733 01a1 00000000 		.zero	7
 1733      000000
 1734              	.LC16:
 1735 01a8 4552524F 		.string	"ERROR: failed to get stable clock\n"
 1735      523A2066 
 1735      61696C65 
 1735      6420746F 
 1735      20676574 
 1736 01cb 00000000 		.zero	5
 1736      00
 1737              	.LC17:
 1738 01d0 454D4D43 		.string	"EMMC: GPIO set up\n"
 1738      3A204750 
 1738      494F2073 
 1738      65742075 
 1738      700A00
 1739 01e3 00000000 		.zero	5
 1739      00
 1740              	.LC18:
 1741 01e8 4552524F 		.string	"ERROR: failed to reset EMMC\n"
 1741      523A2066 
 1741      61696C65 
 1741      6420746F 
 1741      20726573 
 1742 0205 000000   		.zero	3
 1743              	.LC19:
 1744 0208 454D4D43 		.string	"EMMC: reset OK\n"
 1744      3A207265 
 1744      73657420 
 1744      4F4B0A00 
 1745              	.LC20:
 1746 0218 454D4D43 		.string	"EMMC: CMD_SEND_OP_COND returned "
AARCH64 GAS  C:\Users\A01169~1\AppData\Local\Temp\ccRWduX2.s 			page 33


 1746      3A20434D 
 1746      445F5345 
 1746      4E445F4F 
 1746      505F434F 
 1747 0239 00000000 		.zero	7
 1747      000000
 1748              	.LC21:
 1749 0240 434F4D50 		.string	"COMPLETE "
 1749      4C455445 
 1749      2000
 1750 024a 00000000 		.zero	6
 1750      0000
 1751              	.LC22:
 1752 0250 564F4C54 		.string	"VOLTAGE "
 1752      41474520 
 1752      00
 1753 0259 00000000 		.zero	7
 1753      000000
 1754              	.LC23:
 1755 0260 43435320 		.string	"CCS "
 1755      00
 1756 0265 000000   		.zero	3
 1757              	.LC24:
 1758 0268 4552524F 		.string	"ERROR: EMMC ACMD41 returned error\n"
 1758      523A2045 
 1758      4D4D4320 
 1758      41434D44 
 1758      34312072 
 1759 028b 00000000 		.zero	5
 1759      00
 1760              	.LC25:
 1761 0290 454D4D43 		.string	"EMMC: CMD_SEND_REL_ADDR returned "
 1761      3A20434D 
 1761      445F5345 
 1761      4E445F52 
 1761      454C5F41 
 1762 02b2 00000000 		.zero	6
 1762      0000
 1763              	.LC26:
 1764 02b8 454D4D43 		.string	"EMMC: supports "
 1764      3A207375 
 1764      70706F72 
 1764      74732000 
 1765              	.LC27:
 1766 02c8 5345545F 		.string	"SET_BLKCNT "
 1766      424C4B43 
 1766      4E542000 
 1767              		.ident	"GCC: (GNU Toolchain for the A-profile Architecture 8.3-2019.03 (arm-rel-8.36)) 8.3.0"
AARCH64 GAS  C:\Users\A01169~1\AppData\Local\Temp\ccRWduX2.s 			page 34


DEFINED SYMBOLS
                            *ABS*:0000000000000000 sd.c
C:\Users\A01169~1\AppData\Local\Temp\ccRWduX2.s:4      .text:0000000000000000 $x
C:\Users\A01169~1\AppData\Local\Temp\ccRWduX2.s:8      .text:0000000000000000 sd_status
C:\Users\A01169~1\AppData\Local\Temp\ccRWduX2.s:73     .text:00000000000000d0 sd_int
C:\Users\A01169~1\AppData\Local\Temp\ccRWduX2.s:141    .text:00000000000001b0 sd_cmd
                            *COM*:0000000000000008 sd_err
                            *COM*:0000000000000008 sd_rca
C:\Users\A01169~1\AppData\Local\Temp\ccRWduX2.s:416    .text:0000000000000560 sd_readblock
                            *COM*:0000000000000010 sd_scr
C:\Users\A01169~1\AppData\Local\Temp\ccRWduX2.s:674    .text:00000000000008d0 sd_writeblock
C:\Users\A01169~1\AppData\Local\Temp\ccRWduX2.s:988    .text:0000000000000d10 sd_clk
                            *COM*:0000000000000008 sd_hv
C:\Users\A01169~1\AppData\Local\Temp\ccRWduX2.s:1156   .text:0000000000000f50 sd_init
                            *COM*:0000000000000008 sd_ocr
C:\Users\A01169~1\AppData\Local\Temp\ccRWduX2.s:1686   .rodata.str1.8:0000000000000000 $d

UNDEFINED SYMBOLS
delays_wait_microsecs
kprintf_debug
delays_wait_cycles
AARCH64 GAS  C:\Users\A01169~1\AppData\Local\Temp\ccRWduX2.s 			page 1


   1              		.arch armv8-a
   2              		.file	"uart.c"
   3              		.text
   4              		.align	2
   5              		.p2align 4,,15
   6              		.global	uart0_init
   7              		.type	uart0_init, %function
   8              	uart0_init:
   9 0000 F353BEA9 		stp	x19, x20, [sp, -32]!
  10 0004 130682D2 		mov	x19, 4144
  11 0008 13E4A7F2 		movk	x19, 0x3f20, lsl 16
  12 000c 00000090 		adrp	x0, mbox
  13 0010 01000091 		add	x1, x0, :lo12:mbox
  14 0014 F57B01A9 		stp	x21, x30, [sp, 16]
  15 0018 82048052 		mov	w2, 36
  16 001c 43009052 		mov	w3, 32770
  17 0020 6300A072 		movk	w3, 0x3, lsl 16
  18 0024 7F0200B9 		str	wzr, [x19]
  19 0028 020000B9 		str	w2, [x0, #:lo12:mbox]
  20 002c 82018052 		mov	w2, 12
  21 0030 3F0400B9 		str	wzr, [x1, 4]
  22 0034 00018052 		mov	w0, 8
  23 0038 230800B9 		str	w3, [x1, 8]
  24 003c 54008052 		mov	w20, 2
  25 0040 220C00B9 		str	w2, [x1, 12]
  26 0044 02208152 		mov	w2, 2304
  27 0048 A207A072 		movk	w2, 0x3d, lsl 16
  28 004c 201000B9 		str	w0, [x1, 16]
  29 0050 341400B9 		str	w20, [x1, 20]
  30 0054 151380D2 		mov	x21, 152
  31 0058 15E4A7F2 		movk	x21, 0x3f20, lsl 16
  32 005c 221800B9 		str	w2, [x1, 24]
  33 0060 3F1C00B9 		str	wzr, [x1, 28]
  34 0064 3F2000B9 		str	wzr, [x1, 32]
  35 0068 00000094 		bl	mbox_call
  36 006c 820080D2 		mov	x2, 4
  37 0070 02E4A7F2 		movk	x2, 0x3f20, lsl 16
  38 0074 831280D2 		mov	x3, 148
  39 0078 03E4A7F2 		movk	x3, 0x3f20, lsl 16
  40 007c 410040B9 		ldr	w1, [x2]
  41 0080 04008852 		mov	w4, 16384
  42 0084 4400A072 		movk	w4, 0x2, lsl 16
  43 0088 C0128052 		mov	w0, 150
  44 008c 21640E12 		and	w1, w1, -258049
  45 0090 2100042A 		orr	w1, w1, w4
  46 0094 410000B9 		str	w1, [x2]
  47 0098 7F0000B9 		str	wzr, [x3]
  48 009c 00000094 		bl	delays_wait_cycles
  49 00a0 00009852 		mov	w0, 49152
  50 00a4 A00200B9 		str	w0, [x21]
  51 00a8 C0128052 		mov	w0, 150
  52 00ac 00000094 		bl	delays_wait_cycles
  53 00b0 BF0200B9 		str	wzr, [x21]
  54 00b4 800882D2 		mov	x0, 4164
  55 00b8 00E4A7F2 		movk	x0, 0x3f20, lsl 16
  56 00bc 820482D2 		mov	x2, 4132
  57 00c0 02E4A7F2 		movk	x2, 0x3f20, lsl 16
AARCH64 GAS  C:\Users\A01169~1\AppData\Local\Temp\ccRWduX2.s 			page 2


  58 00c4 E3FF8052 		mov	w3, 2047
  59 00c8 010582D2 		mov	x1, 4136
  60 00cc 01E4A7F2 		movk	x1, 0x3f20, lsl 16
  61 00d0 F57B41A9 		ldp	x21, x30, [sp, 16]
  62 00d4 030000B9 		str	w3, [x0]
  63 00d8 800582D2 		mov	x0, 4140
  64 00dc 00E4A7F2 		movk	x0, 0x3f20, lsl 16
  65 00e0 540000B9 		str	w20, [x2]
  66 00e4 62018052 		mov	w2, 11
  67 00e8 220000B9 		str	w2, [x1]
  68 00ec 010C8052 		mov	w1, 96
  69 00f0 010000B9 		str	w1, [x0]
  70 00f4 20608052 		mov	w0, 769
  71 00f8 600200B9 		str	w0, [x19]
  72 00fc F353C2A8 		ldp	x19, x20, [sp], 32
  73 0100 C0035FD6 		ret
  74              		.size	uart0_init, .-uart0_init
  75              		.align	2
  76 0104 1F2003D5 		.p2align 4,,15
  76      1F2003D5 
  76      1F2003D5 
  77              		.global	uart0_puthex_64_bits
  78              		.type	uart0_puthex_64_bits, %function
  79              	uart0_puthex_64_bits:
  80 0110 020382D2 		mov	x2, 4120
  81 0114 02E4A7F2 		movk	x2, 0x3f20, lsl 16
  82 0118 050082D2 		mov	x5, 4096
  83 011c 05E4A7F2 		movk	x5, 0x3f20, lsl 16
  84 0120 83078052 		mov	w3, 60
  85 0124 E7068052 		mov	w7, 55
  86 0128 06068052 		mov	w6, 48
  87 012c 1F2003D5 		.p2align 3
  88              	.L7:
  89 0130 0124C39A 		lsr	x1, x0, x3
  90 0134 210C0012 		and	w1, w1, 15
  91 0138 3F240071 		cmp	w1, 9
  92 013c E480861A 		csel	w4, w7, w6, hi
  93 0140 8400010B 		add	w4, w4, w1
  94 0144 1F2003D5 		.p2align 3
  95              	.L6:
  96              		// Start of user assembly
  97              	// 136 "src/drivers/uart/uart.c" 1
  98 0148 1F2003D5 		nop
  99              	// 0 "" 2
 100              		// End of user assembly
 101 014c 410040B9 		ldr	w1, [x2]
 102 0150 C1FF2F37 		tbnz	x1, 5, .L6
 103 0154 A40000B9 		str	w4, [x5]
 104 0158 63100051 		sub	w3, w3, #4
 105 015c 7F100031 		cmn	w3, #4
 106 0160 81FEFF54 		bne	.L7
 107 0164 C0035FD6 		ret
 108              		.size	uart0_puthex_64_bits, .-uart0_puthex_64_bits
 109              		.align	2
 110 0168 1F2003D5 		.p2align 4,,15
 110      1F2003D5 
 111              		.global	uart0_puthex_32_bits
AARCH64 GAS  C:\Users\A01169~1\AppData\Local\Temp\ccRWduX2.s 			page 3


 112              		.type	uart0_puthex_32_bits, %function
 113              	uart0_puthex_32_bits:
 114 0170 020382D2 		mov	x2, 4120
 115 0174 02E4A7F2 		movk	x2, 0x3f20, lsl 16
 116 0178 050082D2 		mov	x5, 4096
 117 017c 05E4A7F2 		movk	x5, 0x3f20, lsl 16
 118 0180 83038052 		mov	w3, 28
 119 0184 E7068052 		mov	w7, 55
 120 0188 06068052 		mov	w6, 48
 121 018c 1F2003D5 		.p2align 3
 122              	.L14:
 123 0190 0124C31A 		lsr	w1, w0, w3
 124 0194 210C0012 		and	w1, w1, 15
 125 0198 3F240071 		cmp	w1, 9
 126 019c E480861A 		csel	w4, w7, w6, hi
 127 01a0 8400010B 		add	w4, w4, w1
 128 01a4 1F2003D5 		.p2align 3
 129              	.L13:
 130              		// Start of user assembly
 131              	// 136 "src/drivers/uart/uart.c" 1
 132 01a8 1F2003D5 		nop
 133              	// 0 "" 2
 134              		// End of user assembly
 135 01ac 410040B9 		ldr	w1, [x2]
 136 01b0 C1FF2F37 		tbnz	x1, 5, .L13
 137 01b4 A40000B9 		str	w4, [x5]
 138 01b8 63100051 		sub	w3, w3, #4
 139 01bc 7F100031 		cmn	w3, #4
 140 01c0 81FEFF54 		bne	.L14
 141 01c4 C0035FD6 		ret
 142              		.size	uart0_puthex_32_bits, .-uart0_puthex_32_bits
 143              		.align	2
 144 01c8 1F2003D5 		.p2align 4,,15
 144      1F2003D5 
 145              		.global	uart0_putc
 146              		.type	uart0_putc, %function
 147              	uart0_putc:
 148 01d0 001C0012 		and	w0, w0, 255
 149 01d4 020382D2 		mov	x2, 4120
 150 01d8 02E4A7F2 		movk	x2, 0x3f20, lsl 16
 151 01dc 1F2003D5 		.p2align 3
 152              	.L19:
 153              		// Start of user assembly
 154              	// 136 "src/drivers/uart/uart.c" 1
 155 01e0 1F2003D5 		nop
 156              	// 0 "" 2
 157              		// End of user assembly
 158 01e4 410040B9 		ldr	w1, [x2]
 159 01e8 C1FF2F37 		tbnz	x1, 5, .L19
 160 01ec 010082D2 		mov	x1, 4096
 161 01f0 01E4A7F2 		movk	x1, 0x3f20, lsl 16
 162 01f4 200000B9 		str	w0, [x1]
 163 01f8 C0035FD6 		ret
 164              		.size	uart0_putc, .-uart0_putc
 165              		.align	2
 166 01fc 1F2003D5 		.p2align 4,,15
 167              		.global	uart0_nonblocking_getc
AARCH64 GAS  C:\Users\A01169~1\AppData\Local\Temp\ccRWduX2.s 			page 4


 168              		.type	uart0_nonblocking_getc, %function
 169              	uart0_nonblocking_getc:
 170 0200 010382D2 		mov	x1, 4120
 171 0204 01E4A7F2 		movk	x1, 0x3f20, lsl 16
 172 0208 E20300AA 		mov	x2, x0
 173 020c 00008052 		mov	w0, 0
 174 0210 210040B9 		ldr	w1, [x1]
 175 0214 21012037 		tbnz	x1, 4, .L21
 176 0218 000082D2 		mov	x0, 4096
 177 021c 00E4A7F2 		movk	x0, 0x3f20, lsl 16
 178 0220 010040B9 		ldr	w1, [x0]
 179 0224 211C0012 		and	w1, w1, 255
 180 0228 3F340071 		cmp	w1, 13
 181 022c 80000054 		beq	.L23
 182 0230 20008052 		mov	w0, 1
 183 0234 41000039 		strb	w1, [x2]
 184              	.L21:
 185 0238 C0035FD6 		ret
 186              		.p2align 2
 187              	.L23:
 188 023c 41018052 		mov	w1, 10
 189 0240 20008052 		mov	w0, 1
 190 0244 41000039 		strb	w1, [x2]
 191 0248 FCFFFF17 		b	.L21
 192              		.size	uart0_nonblocking_getc, .-uart0_nonblocking_getc
 193              		.align	2
 194 024c 1F2003D5 		.p2align 4,,15
 195              		.global	uart0_getc
 196              		.type	uart0_getc, %function
 197              	uart0_getc:
 198 0250 010382D2 		mov	x1, 4120
 199 0254 01E4A7F2 		movk	x1, 0x3f20, lsl 16
 200              		.p2align 3
 201              	.L27:
 202              		// Start of user assembly
 203              	// 163 "src/drivers/uart/uart.c" 1
 204 0258 1F2003D5 		nop
 205              	// 0 "" 2
 206              		// End of user assembly
 207 025c 200040B9 		ldr	w0, [x1]
 208 0260 C0FF2737 		tbnz	x0, 4, .L27
 209 0264 000082D2 		mov	x0, 4096
 210 0268 00E4A7F2 		movk	x0, 0x3f20, lsl 16
 211 026c 41018052 		mov	w1, 10
 212 0270 000040B9 		ldr	w0, [x0]
 213 0274 001C0012 		and	w0, w0, 255
 214 0278 1F340071 		cmp	w0, 13
 215 027c 0010811A 		csel	w0, w0, w1, ne
 216 0280 C0035FD6 		ret
 217              		.size	uart0_getc, .-uart0_getc
 218              		.align	2
 219 0284 1F2003D5 		.p2align 4,,15
 219      1F2003D5 
 219      1F2003D5 
 220              		.global	uart0_puts
 221              		.type	uart0_puts, %function
 222              	uart0_puts:
AARCH64 GAS  C:\Users\A01169~1\AppData\Local\Temp\ccRWduX2.s 			page 5


 223 0290 03004039 		ldrb	w3, [x0]
 224 0294 23020034 		cbz	w3, .L30
 225 0298 020382D2 		mov	x2, 4120
 226 029c 02E4A7F2 		movk	x2, 0x3f20, lsl 16
 227 02a0 040082D2 		mov	x4, 4096
 228 02a4 04E4A7F2 		movk	x4, 0x3f20, lsl 16
 229 02a8 A5018052 		mov	w5, 13
 230 02ac 1F2003D5 		.p2align 3
 231              	.L31:
 232 02b0 7F280071 		cmp	w3, 10
 233 02b4 40010054 		beq	.L33
 234              	.L32:
 235 02b8 00040091 		add	x0, x0, 1
 236 02bc 1F2003D5 		.p2align 3
 237              	.L34:
 238              		// Start of user assembly
 239              	// 136 "src/drivers/uart/uart.c" 1
 240 02c0 1F2003D5 		nop
 241              	// 0 "" 2
 242              		// End of user assembly
 243 02c4 410040B9 		ldr	w1, [x2]
 244 02c8 C1FF2F37 		tbnz	x1, 5, .L34
 245 02cc 830000B9 		str	w3, [x4]
 246 02d0 03004039 		ldrb	w3, [x0]
 247 02d4 E3FEFF35 		cbnz	w3, .L31
 248              	.L30:
 249 02d8 C0035FD6 		ret
 250              		.p2align 2
 251              	.L33:
 252              		// Start of user assembly
 253              	// 136 "src/drivers/uart/uart.c" 1
 254 02dc 1F2003D5 		nop
 255              	// 0 "" 2
 256              		// End of user assembly
 257 02e0 410040B9 		ldr	w1, [x2]
 258 02e4 C1FF2F37 		tbnz	x1, 5, .L33
 259 02e8 850000B9 		str	w5, [x4]
 260 02ec 03004039 		ldrb	w3, [x0]
 261 02f0 F2FFFF17 		b	.L32
 262              		.size	uart0_puts, .-uart0_puts
 263              		.align	2
 264 02f4 1F2003D5 		.p2align 4,,15
 264      1F2003D5 
 264      1F2003D5 
 265              		.global	uart0_dump
 266              		.type	uart0_dump, %function
 267              	uart0_dump:
 268 0300 02000891 		add	x2, x0, 512
 269 0304 5F0000EB 		cmp	x2, x0
 270 0308 A90F0054 		bls	.L40
 271 030c 0D400091 		add	x13, x0, 16
 272 0310 010480D2 		mov	x1, 32
 273 0314 5F000DEB 		cmp	x2, x13
 274 0318 E803012A 		mov	w8, w1
 275 031c 21249F9A 		csinc	x1, x1, xzr, cs
 276 0320 10000090 		adrp	x16, .LC0
 277 0324 10020091 		add	x16, x16, :lo12:.LC0
AARCH64 GAS  C:\Users\A01169~1\AppData\Local\Temp\ccRWduX2.s 			page 6


 278 0328 E9030DAA 		mov	x9, x13
 279 032c 0F10018B 		add	x15, x0, x1, lsl 4
 280 0330 040082D2 		mov	x4, 4096
 281 0334 04E4A7F2 		movk	x4, 0x3f20, lsl 16
 282 0338 010382D2 		mov	x1, 4120
 283 033c 01E4A7F2 		movk	x1, 0x3f20, lsl 16
 284 0340 EC068052 		mov	w12, 55
 285 0344 0B068052 		mov	w11, 48
 286 0348 AE018052 		mov	w14, 13
 287 034c E70680D2 		mov	x7, 55
 288 0350 060680D2 		mov	x6, 48
 289 0354 CA058052 		mov	w10, 46
 290 0358 51018052 		mov	w17, 10
 291              	.L63:
 292 035c F203002A 		mov	w18, w0
 293 0360 85038052 		mov	w5, 28
 294 0364 1F2003D5 		.p2align 3
 295              	.L44:
 296 0368 4226C51A 		lsr	w2, w18, w5
 297 036c 420C0012 		and	w2, w2, 15
 298 0370 5F240071 		cmp	w2, 9
 299 0374 83818B1A 		csel	w3, w12, w11, hi
 300 0378 4300030B 		add	w3, w2, w3
 301 037c 1F2003D5 		.p2align 3
 302              	.L43:
 303              		// Start of user assembly
 304              	// 136 "src/drivers/uart/uart.c" 1
 305 0380 1F2003D5 		nop
 306              	// 0 "" 2
 307              		// End of user assembly
 308 0384 220040B9 		ldr	w2, [x1]
 309 0388 C2FF2F37 		tbnz	x2, 5, .L43
 310 038c 830000B9 		str	w3, [x4]
 311 0390 A5100051 		sub	w5, w5, #4
 312 0394 BF100031 		cmn	w5, #4
 313 0398 81FEFF54 		bne	.L44
 314 039c E50310AA 		mov	x5, x16
 315 03a0 43078052 		mov	w3, 58
 316 03a4 1F2003D5 		.p2align 3
 317              	.L45:
 318 03a8 A5040091 		add	x5, x5, 1
 319 03ac 1F2003D5 		.p2align 3
 320              	.L48:
 321              		// Start of user assembly
 322              	// 136 "src/drivers/uart/uart.c" 1
 323 03b0 1F2003D5 		nop
 324              	// 0 "" 2
 325              		// End of user assembly
 326 03b4 220040B9 		ldr	w2, [x1]
 327 03b8 C2FF2F37 		tbnz	x2, 5, .L48
 328 03bc 830000B9 		str	w3, [x4]
 329 03c0 A2004039 		ldrb	w2, [x5]
 330 03c4 82010034 		cbz	w2, .L82
 331 03c8 5F280071 		cmp	w2, 10
 332 03cc 60000054 		beq	.L47
 333 03d0 E303022A 		mov	w3, w2
 334 03d4 F5FFFF17 		b	.L45
AARCH64 GAS  C:\Users\A01169~1\AppData\Local\Temp\ccRWduX2.s 			page 7


 335              		.p2align 2
 336              	.L47:
 337              		// Start of user assembly
 338              	// 136 "src/drivers/uart/uart.c" 1
 339 03d8 1F2003D5 		nop
 340              	// 0 "" 2
 341              		// End of user assembly
 342 03dc 220040B9 		ldr	w2, [x1]
 343 03e0 C2FF2F37 		tbnz	x2, 5, .L47
 344 03e4 8E0000B9 		str	w14, [x4]
 345 03e8 A2004039 		ldrb	w2, [x5]
 346 03ec E303022A 		mov	w3, w2
 347 03f0 EEFFFF17 		b	.L45
 348              	.L82:
 349 03f4 050080D2 		mov	x5, 0
 350              		.p2align 3
 351              	.L57:
 352 03f8 03686538 		ldrb	w3, [x0, x5]
 353 03fc 621C44D3 		ubfx	x2, x3, 4, 4
 354 0400 5F2400F1 		cmp	x2, 9
 355 0404 F280869A 		csel	x18, x7, x6, hi
 356 0408 5202028B 		add	x18, x18, x2
 357 040c 1F2003D5 		.p2align 3
 358              	.L51:
 359              		// Start of user assembly
 360              	// 136 "src/drivers/uart/uart.c" 1
 361 0410 1F2003D5 		nop
 362              	// 0 "" 2
 363              		// End of user assembly
 364 0414 220040B9 		ldr	w2, [x1]
 365 0418 C2FF2F37 		tbnz	x2, 5, .L51
 366 041c 620C0012 		and	w2, w3, 15
 367 0420 920000B9 		str	w18, [x4]
 368 0424 5F280071 		cmp	w2, 10
 369 0428 421C4092 		and	x2, x2, 255
 370 042c C330879A 		csel	x3, x6, x7, cc
 371 0430 6300028B 		add	x3, x3, x2
 372 0434 1F2003D5 		.p2align 3
 373              	.L53:
 374              		// Start of user assembly
 375              	// 136 "src/drivers/uart/uart.c" 1
 376 0438 1F2003D5 		nop
 377              	// 0 "" 2
 378              		// End of user assembly
 379 043c 220040B9 		ldr	w2, [x1]
 380 0440 C2FF2F37 		tbnz	x2, 5, .L53
 381 0444 830000B9 		str	w3, [x4]
 382              		.p2align 3
 383              	.L54:
 384              		// Start of user assembly
 385              	// 136 "src/drivers/uart/uart.c" 1
 386 0448 1F2003D5 		nop
 387              	// 0 "" 2
 388              		// End of user assembly
 389 044c 220040B9 		ldr	w2, [x1]
 390 0450 C2FF2F37 		tbnz	x2, 5, .L54
 391 0454 880000B9 		str	w8, [x4]
AARCH64 GAS  C:\Users\A01169~1\AppData\Local\Temp\ccRWduX2.s 			page 8


 392 0458 A2044092 		and	x2, x5, 3
 393 045c 5F0C00F1 		cmp	x2, 3
 394 0460 40040054 		beq	.L56
 395              	.L55:
 396 0464 A5040091 		add	x5, x5, 1
 397 0468 BF4000F1 		cmp	x5, 16
 398 046c 61FCFF54 		bne	.L57
 399 0470 E30300AA 		mov	x3, x0
 400 0474 1F2003D5 		.p2align 3
 401              	.L60:
 402 0478 62004039 		ldrb	w2, [x3]
 403 047c 40800051 		sub	w0, w2, #32
 404 0480 001C0012 		and	w0, w0, 255
 405 0484 1F7C0171 		cmp	w0, 95
 406 0488 42308A1A 		csel	w2, w2, w10, cc
 407 048c 1F2003D5 		.p2align 3
 408              	.L59:
 409              		// Start of user assembly
 410              	// 136 "src/drivers/uart/uart.c" 1
 411 0490 1F2003D5 		nop
 412              	// 0 "" 2
 413              		// End of user assembly
 414 0494 200040B9 		ldr	w0, [x1]
 415 0498 C0FF2F37 		tbnz	x0, 5, .L59
 416 049c 820000B9 		str	w2, [x4]
 417 04a0 63040091 		add	x3, x3, 1
 418 04a4 3F0103EB 		cmp	x9, x3
 419 04a8 81FEFF54 		bne	.L60
 420 04ac 1F2003D5 		.p2align 3
 421              	.L61:
 422              		// Start of user assembly
 423              	// 136 "src/drivers/uart/uart.c" 1
 424 04b0 1F2003D5 		nop
 425              	// 0 "" 2
 426              		// End of user assembly
 427 04b4 200040B9 		ldr	w0, [x1]
 428 04b8 C0FF2F37 		tbnz	x0, 5, .L61
 429 04bc 8E0000B9 		str	w14, [x4]
 430              		.p2align 3
 431              	.L62:
 432              		// Start of user assembly
 433              	// 136 "src/drivers/uart/uart.c" 1
 434 04c0 1F2003D5 		nop
 435              	// 0 "" 2
 436              		// End of user assembly
 437 04c4 200040B9 		ldr	w0, [x1]
 438 04c8 C0FF2F37 		tbnz	x0, 5, .L62
 439 04cc 910000B9 		str	w17, [x4]
 440 04d0 29410091 		add	x9, x9, 16
 441 04d4 BF010FEB 		cmp	x13, x15
 442 04d8 E0030DAA 		mov	x0, x13
 443 04dc 00010054 		beq	.L40
 444 04e0 AD410091 		add	x13, x13, 16
 445 04e4 9EFFFF17 		b	.L63
 446              		.p2align 2
 447              	.L56:
 448              		// Start of user assembly
AARCH64 GAS  C:\Users\A01169~1\AppData\Local\Temp\ccRWduX2.s 			page 9


 449              	// 136 "src/drivers/uart/uart.c" 1
 450 04e8 1F2003D5 		nop
 451              	// 0 "" 2
 452              		// End of user assembly
 453 04ec 220040B9 		ldr	w2, [x1]
 454 04f0 C2FF2F37 		tbnz	x2, 5, .L56
 455 04f4 880000B9 		str	w8, [x4]
 456 04f8 DBFFFF17 		b	.L55
 457              	.L40:
 458 04fc C0035FD6 		ret
 459              		.size	uart0_dump, .-uart0_dump
 460              		.section	.rodata.str1.8,"aMS",@progbits,1
 461              		.align	3
 462              	.LC0:
 463 0000 3A2000   		.string	": "
 464              		.ident	"GCC: (GNU Toolchain for the A-profile Architecture 8.3-2019.03 (arm-rel-8.36)) 8.3.0"
AARCH64 GAS  C:\Users\A01169~1\AppData\Local\Temp\ccRWduX2.s 			page 10


DEFINED SYMBOLS
                            *ABS*:0000000000000000 uart.c
C:\Users\A01169~1\AppData\Local\Temp\ccRWduX2.s:4      .text:0000000000000000 $x
C:\Users\A01169~1\AppData\Local\Temp\ccRWduX2.s:8      .text:0000000000000000 uart0_init
C:\Users\A01169~1\AppData\Local\Temp\ccRWduX2.s:79     .text:0000000000000110 uart0_puthex_64_bits
C:\Users\A01169~1\AppData\Local\Temp\ccRWduX2.s:113    .text:0000000000000170 uart0_puthex_32_bits
C:\Users\A01169~1\AppData\Local\Temp\ccRWduX2.s:147    .text:00000000000001d0 uart0_putc
C:\Users\A01169~1\AppData\Local\Temp\ccRWduX2.s:169    .text:0000000000000200 uart0_nonblocking_getc
C:\Users\A01169~1\AppData\Local\Temp\ccRWduX2.s:197    .text:0000000000000250 uart0_getc
C:\Users\A01169~1\AppData\Local\Temp\ccRWduX2.s:222    .text:0000000000000290 uart0_puts
C:\Users\A01169~1\AppData\Local\Temp\ccRWduX2.s:267    .text:0000000000000300 uart0_dump
C:\Users\A01169~1\AppData\Local\Temp\ccRWduX2.s:461    .rodata.str1.8:0000000000000000 $d

UNDEFINED SYMBOLS
mbox
mbox_call
delays_wait_cycles
AARCH64 GAS  C:\Users\A01169~1\AppData\Local\Temp\ccRWduX2.s 			page 1


   1              		.arch armv8-a
   2              		.file	"fat.c"
   3              		.text
   4              		.align	2
   5              		.p2align 4,,15
   6              		.global	fat_init
   7              		.type	fat_init, %function
   8              	fat_init:
   9 0000 F353BDA9 		stp	x19, x20, [sp, -48]!
  10 0004 13000090 		adrp	x19, buffer
  11 0008 73020091 		add	x19, x19, :lo12:buffer
  12 000c 22008052 		mov	w2, 1
  13 0010 01008052 		mov	w1, 0
  14 0014 E00313AA 		mov	x0, x19
  15 0018 F55B01A9 		stp	x21, x22, [sp, 16]
  16 001c FE1300F9 		str	x30, [sp, 32]
  17 0020 00000094 		bl	hal_sd_card_read_block
  18 0024 62FA4739 		ldrb	w2, [x19, 510]
  19 0028 A14A9552 		mov	w1, 43605
  20 002c 75FE4739 		ldrb	w21, [x19, 511]
  21 0030 40008052 		mov	w0, 2
  22 0034 5520152A 		orr	w21, w2, w21, lsl 8
  23 0038 BF02016B 		cmp	w21, w1
  24 003c 01030054 		bne	.L1
  25 0040 610A4739 		ldrb	w1, [x19, 450]
  26 0044 60008052 		mov	w0, 3
  27 0048 3F300071 		cmp	w1, 12
  28 004c 81020054 		bne	.L1
  29 0050 661A4739 		ldrb	w6, [x19, 454]
  30 0054 16000090 		adrp	x22, boot_sector
  31 0058 D4020091 		add	x20, x22, :lo12:boot_sector
  32 005c 651E4739 		ldrb	w5, [x19, 455]
  33 0060 64224739 		ldrb	w4, [x19, 456]
  34 0064 22008052 		mov	w2, 1
  35 0068 61264739 		ldrb	w1, [x19, 457]
  36 006c E00313AA 		mov	x0, x19
  37 0070 C32005AA 		orr	x3, x6, x5, lsl 8
  38 0074 634004AA 		orr	x3, x3, x4, lsl 16
  39 0078 616001AA 		orr	x1, x3, x1, lsl 24
  40 007c 812600B9 		str	w1, [x20, 36]
  41 0080 00000094 		bl	hal_sd_card_read_block
  42 0084 62FA4739 		ldrb	w2, [x19, 510]
  43 0088 80008052 		mov	w0, 4
  44 008c 61FE4739 		ldrb	w1, [x19, 511]
  45 0090 4120012A 		orr	w1, w2, w1, lsl 8
  46 0094 3F00156B 		cmp	w1, w21
  47 0098 A0000054 		beq	.L8
  48              	.L1:
  49 009c F55B41A9 		ldp	x21, x22, [sp, 16]
  50 00a0 FE1340F9 		ldr	x30, [sp, 32]
  51 00a4 F353C3A8 		ldp	x19, x20, [sp], 48
  52 00a8 C0035FD6 		ret
  53              		.p2align 2
  54              	.L8:
  55 00ac 61464039 		ldrb	w1, [x19, 17]
  56 00b0 82578052 		mov	w2, 700
  57 00b4 664A4039 		ldrb	w6, [x19, 18]
AARCH64 GAS  C:\Users\A01169~1\AppData\Local\Temp\ccRWduX2.s 			page 2


  58 00b8 00000090 		adrp	x0, fat_table_buffer
  59 00bc 642E4039 		ldrb	w4, [x19, 11]
  60 00c0 00000091 		add	x0, x0, :lo12:fat_table_buffer
  61 00c4 68324039 		ldrb	w8, [x19, 12]
  62 00c8 2620062A 		orr	w6, w1, w6, lsl 8
  63 00cc 693A4039 		ldrb	w9, [x19, 14]
  64 00d0 673E4039 		ldrb	w7, [x19, 15]
  65 00d4 61924039 		ldrb	w1, [x19, 36]
  66 00d8 8820082A 		orr	w8, w4, w8, lsl 8
  67 00dc 65964039 		ldrb	w5, [x19, 37]
  68 00e0 C3681B53 		lsl	w3, w6, 5
  69 00e4 842640B9 		ldr	w4, [x20, 36]
  70 00e8 2721072A 		orr	w7, w9, w7, lsl 8
  71 00ec 6D424039 		ldrb	w13, [x19, 16]
  72 00f0 2520052A 		orr	w5, w1, w5, lsl 8
  73 00f4 E400040B 		add	w4, w7, w4
  74 00f8 6E724139 		ldrb	w14, [x19, 92]
  75 00fc E103042A 		mov	w1, w4
  76 0100 6B764139 		ldrb	w11, [x19, 93]
  77 0104 6A7A4139 		ldrb	w10, [x19, 94]
  78 0108 AC11051B 		madd	w12, w13, w5, w4
  79 010c 6308C81A 		udiv	w3, w3, w8
  80 0110 697E4139 		ldrb	w9, [x19, 95]
  81 0114 CB210BAA 		orr	x11, x14, x11, lsl 8
  82 0118 6F364039 		ldrb	w15, [x19, 13]
  83 011c 6A410AAA 		orr	x10, x11, x10, lsl 16
  84 0120 6E564039 		ldrb	w14, [x19, 21]
  85 0124 6BC24139 		ldrb	w11, [x19, 112]
  86 0128 C80200B9 		str	w8, [x22, #:lo12:boot_sector]
  87 012c 63000C0B 		add	w3, w3, w12
  88 0130 486109AA 		orr	x8, x10, x9, lsl 24
  89 0134 8F9E0029 		stp	w15, w7, [x20, 4]
  90 0138 86BA0129 		stp	w6, w14, [x20, 12]
  91 013c 8D960229 		stp	w13, w5, [x20, 20]
  92 0140 88AE0329 		stp	w8, w11, [x20, 28]
  93 0144 84320529 		stp	w4, w12, [x20, 40]
  94 0148 833200B9 		str	w3, [x20, 48]
  95 014c 00000094 		bl	hal_sd_card_read_block
  96 0150 00008052 		mov	w0, 0
  97 0154 F55B41A9 		ldp	x21, x22, [sp, 16]
  98 0158 FE1340F9 		ldr	x30, [sp, 32]
  99 015c F353C3A8 		ldp	x19, x20, [sp], 48
 100 0160 C0035FD6 		ret
 101              		.size	fat_init, .-fat_init
 102              		.align	2
 103 0164 1F2003D5 		.p2align 4,,15
 103      1F2003D5 
 103      1F2003D5 
 104              		.global	fat_file_read
 105              		.type	fat_file_read, %function
 106              	fat_file_read:
 107 0170 F353BDA9 		stp	x19, x20, [sp, -48]!
 108 0174 14000090 		adrp	x20, fat_table_buffer
 109 0178 94020091 		add	x20, x20, :lo12:fat_table_buffer
 110 017c F55B01A9 		stp	x21, x22, [sp, 16]
 111 0180 16000090 		adrp	x22, boot_sector
 112 0184 D6020091 		add	x22, x22, :lo12:boot_sector
AARCH64 GAS  C:\Users\A01169~1\AppData\Local\Temp\ccRWduX2.s 			page 3


 113 0188 131040B9 		ldr	w19, [x0, 16]
 114 018c 1500BE12 		mov	w21, 268435455
 115 0190 F77B02A9 		stp	x23, x30, [sp, 32]
 116 0194 F70301AA 		mov	x23, x1
 117 0198 C20640B9 		ldr	w2, [x22, 4]
 118 019c 1F2003D5 		.p2align 3
 119              	.L10:
 120 01a0 C13240B9 		ldr	w1, [x22, 48]
 121 01a4 630A0051 		sub	w3, w19, #2
 122 01a8 E00317AA 		mov	x0, x23
 123 01ac 73761E53 		lsl	w19, w19, 2
 124 01b0 6104021B 		madd	w1, w3, w2, w1
 125 01b4 00000094 		bl	hal_sd_card_read_block
 126 01b8 630A0011 		add	w3, w19, 2
 127 01bc 62060011 		add	w2, w19, 1
 128 01c0 600E0011 		add	w0, w19, 3
 129 01c4 844A7338 		ldrb	w4, [x20, w19, uxtw]
 130 01c8 834A6338 		ldrb	w3, [x20, w3, uxtw]
 131 01cc 934A6238 		ldrb	w19, [x20, w2, uxtw]
 132 01d0 804A6038 		ldrb	w0, [x20, w0, uxtw]
 133 01d4 C10A4029 		ldp	w1, w2, [x22]
 134 01d8 633C1053 		lsl	w3, w3, 16
 135 01dc 8060002A 		orr	w0, w4, w0, lsl 24
 136 01e0 7320132A 		orr	w19, w3, w19, lsl 8
 137 01e4 7302002A 		orr	w19, w19, w0
 138 01e8 7F02156B 		cmp	w19, w21
 139 01ec 417C011B 		mul	w1, w2, w1
 140 01f0 E0079F1A 		cset	w0, ne
 141 01f4 7F020071 		cmp	w19, 0
 142 01f8 00109F1A 		csel	w0, w0, wzr, ne
 143 01fc F702018B 		add	x23, x23, x1
 144 0200 00FDFF35 		cbnz	w0, .L10
 145 0204 F55B41A9 		ldp	x21, x22, [sp, 16]
 146 0208 F77B42A9 		ldp	x23, x30, [sp, 32]
 147 020c F353C3A8 		ldp	x19, x20, [sp], 48
 148 0210 C0035FD6 		ret
 149              		.size	fat_file_read, .-fat_file_read
 150              		.align	2
 151 0214 1F2003D5 		.p2align 4,,15
 151      1F2003D5 
 151      1F2003D5 
 152              		.global	fat_file_open
 153              		.type	fat_file_open, %function
 154              	fat_file_open:
 155 0220 10E886D2 		mov	x16, 14144
 156 0224 FF6330CB 		sub	sp, sp, x16
 157 0228 F35300A9 		stp	x19, x20, [sp]
 158 022c F40301AA 		mov	x20, x1
 159 0230 53008052 		mov	w19, 2
 160 0234 F55B01A9 		stp	x21, x22, [sp, 16]
 161 0238 15000090 		adrp	x21, fat_table_buffer
 162 023c B5020091 		add	x21, x21, :lo12:fat_table_buffer
 163 0240 F96B03A9 		stp	x25, x26, [sp, 48]
 164 0244 19000090 		adrp	x25, boot_sector
 165 0248 39030091 		add	x25, x25, :lo12:boot_sector
 166 024c FB7304A9 		stp	x27, x28, [sp, 64]
 167 0250 FB530291 		add	x27, sp, 148
AARCH64 GAS  C:\Users\A01169~1\AppData\Local\Temp\ccRWduX2.s 			page 4


 168 0254 1C008052 		mov	w28, 0
 169 0258 F76302A9 		stp	x23, x24, [sp, 32]
 170 025c FE2B00F9 		str	x30, [sp, 80]
 171 0260 E23700F9 		str	x2, [sp, 104]
 172 0264 E03F00F9 		str	x0, [sp, 120]
 173 0268 18000090 		adrp	x24, buffer
 174 026c 00030091 		add	x0, x24, :lo12:buffer
 175 0270 E03B00F9 		str	x0, [sp, 112]
 176 0274 1F2003D5 		.p2align 3
 177              	.L17:
 178 0278 260740B9 		ldr	w6, [x25, 4]
 179 027c 640A0051 		sub	w4, w19, #2
 180 0280 213340B9 		ldr	w1, [x25, 48]
 181 0284 F77F0291 		add	x23, sp, 159
 182 0288 E03B40F9 		ldr	x0, [sp, 112]
 183 028c F6770291 		add	x22, sp, 157
 184 0290 22008052 		mov	w2, 1
 185 0294 8104061B 		madd	w1, w4, w6, w1
 186 0298 F80300AA 		mov	x24, x0
 187 029c 00000094 		bl	hal_sd_card_read_block
 188              		.p2align 3
 189              	.L16:
 190 02a0 84038052 		mov	w4, 28
 191 02a4 06034039 		ldrb	w6, [x24]
 192 02a8 E10318AA 		mov	x1, x24
 193 02ac 020180D2 		mov	x2, 8
 194 02b0 9A7FA49B 		umull	x26, w28, w4
 195 02b4 DF940371 		cmp	w6, 229
 196 02b8 60060054 		beq	.L14
 197 02bc E0230291 		add	x0, sp, 136
 198 02c0 00001A8B 		add	x0, x0, x26
 199 02c4 46060034 		cbz	w6, .L15
 200 02c8 00000094 		bl	memcpy
 201 02cc E1230291 		add	x1, sp, 136
 202 02d0 40270091 		add	x0, x26, 9
 203 02d4 2000008B 		add	x0, x1, x0
 204 02d8 620080D2 		mov	x2, 3
 205 02dc 01230091 		add	x1, x24, 8
 206 02e0 00000094 		bl	memcpy
 207 02e4 E1031C2A 		uxtw	x1, w28
 208 02e8 0D534039 		ldrb	w13, [x24, 20]
 209 02ec 800380D2 		mov	x0, 28
 210 02f0 08574039 		ldrb	w8, [x24, 21]
 211 02f4 077B4039 		ldrb	w7, [x24, 30]
 212 02f8 EC7B0291 		add	x12, sp, 158
 213 02fc 207C009B 		mul	x0, x1, x0
 214 0300 0E734039 		ldrb	w14, [x24, 28]
 215 0304 046F4039 		ldrb	w4, [x24, 27]
 216 0308 AD3D1053 		lsl	w13, w13, 16
 217 030c 02774039 		ldrb	w2, [x24, 29]
 218 0310 EB730291 		add	x11, sp, 156
 219 0314 067F4039 		ldrb	w6, [x24, 31]
 220 0318 EA830291 		add	x10, sp, 160
 221 031c 012F4039 		ldrb	w1, [x24, 11]
 222 0320 E9870291 		add	x9, sp, 161
 223 0324 E3630291 		add	x3, sp, 152
 224 0328 A861080B 		add	w8, w13, w8, lsl 24
AARCH64 GAS  C:\Users\A01169~1\AppData\Local\Temp\ccRWduX2.s 			page 5


 225 032c E73C1053 		lsl	w7, w7, 16
 226 0330 0D6B4039 		ldrb	w13, [x24, 26]
 227 0334 C661062A 		orr	w6, w14, w6, lsl 24
 228 0338 0421040B 		add	w4, w8, w4, lsl 8
 229 033c E220022A 		orr	w2, w7, w2, lsl 8
 230 0340 9C070011 		add	w28, w28, 1
 231 0344 84000D0B 		add	w4, w4, w13
 232 0348 4200062A 		orr	w2, w2, w6
 233 034c 2E000012 		and	w14, w1, 1
 234 0350 2D0441D3 		ubfx	x13, x1, 1, 1
 235 0354 280842D3 		ubfx	x8, x1, 2, 1
 236 0358 270C43D3 		ubfx	x7, x1, 3, 1
 237 035c 261445D3 		ubfx	x6, x1, 5, 1
 238 0360 211044D3 		ubfx	x1, x1, 4, 1
 239 0364 646820B8 		str	w4, [x3, x0]
 240 0368 626B20B8 		str	w2, [x27, x0]
 241 036c EE6A2038 		strb	w14, [x23, x0]
 242 0370 CD6A2038 		strb	w13, [x22, x0]
 243 0374 88692038 		strb	w8, [x12, x0]
 244 0378 67692038 		strb	w7, [x11, x0]
 245 037c 46692038 		strb	w6, [x10, x0]
 246 0380 21692038 		strb	w1, [x9, x0]
 247              	.L14:
 248 0384 18830091 		add	x24, x24, 32
 249 0388 C6FFFF17 		b	.L16
 250              		.p2align 2
 251              	.L15:
 252 038c 73761E53 		lsl	w19, w19, 2
 253 0390 0200BE12 		mov	w2, 268435455
 254 0394 610A0011 		add	w1, w19, 2
 255 0398 600E0011 		add	w0, w19, 3
 256 039c 64060011 		add	w4, w19, 1
 257 03a0 A34A7338 		ldrb	w3, [x21, w19, uxtw]
 258 03a4 A14A6138 		ldrb	w1, [x21, w1, uxtw]
 259 03a8 B34A6438 		ldrb	w19, [x21, w4, uxtw]
 260 03ac A04A6038 		ldrb	w0, [x21, w0, uxtw]
 261 03b0 213C1053 		lsl	w1, w1, 16
 262 03b4 3320132A 		orr	w19, w1, w19, lsl 8
 263 03b8 6060002A 		orr	w0, w3, w0, lsl 24
 264 03bc 7302002A 		orr	w19, w19, w0
 265 03c0 7F02026B 		cmp	w19, w2
 266 03c4 F6079F1A 		cset	w22, ne
 267 03c8 7F020071 		cmp	w19, 0
 268 03cc D6129F1A 		csel	w22, w22, wzr, ne
 269 03d0 56F5FF35 		cbnz	w22, .L17
 270 03d4 FC3B37B9 		str	w28, [sp, 14136]
 271 03d8 5C0B0034 		cbz	w28, .L29
 272 03dc E03F40F9 		ldr	x0, [sp, 120]
 273 03e0 F3230291 		add	x19, sp, 136
 274 03e4 17008052 		mov	w23, 0
 275 03e8 1B240091 		add	x27, x0, 9
 276 03ec 05000014 		b	.L28
 277              		.p2align 2
 278              	.L20:
 279 03f0 F7060011 		add	w23, w23, 1
 280 03f4 73720091 		add	x19, x19, 28
 281 03f8 FF021C6B 		cmp	w23, w28
AARCH64 GAS  C:\Users\A01169~1\AppData\Local\Temp\ccRWduX2.s 			page 6


 282 03fc 22050054 		bcs	.L38
 283              	.L28:
 284 0400 78624039 		ldrb	w24, [x19, 24]
 285 0404 78FFFF34 		cbz	w24, .L20
 286 0408 190080D2 		mov	x25, 0
 287 040c 15008052 		mov	w21, 0
 288 0410 06000014 		b	.L19
 289              		.p2align 2
 290              	.L22:
 291 0414 616A7938 		ldrb	w1, [x19, x25]
 292 0418 806A7938 		ldrb	w0, [x20, x25]
 293 041c 39070091 		add	x25, x25, 1
 294 0420 3F00006B 		cmp	w1, w0
 295 0424 B516951A 		cinc	w21, w21, eq
 296              	.L19:
 297 0428 E00314AA 		mov	x0, x20
 298 042c 00000094 		bl	strlen
 299 0430 1F0019EB 		cmp	x0, x25
 300 0434 08FFFF54 		bhi	.L22
 301 0438 E03740F9 		ldr	x0, [sp, 104]
 302 043c 1C0080D2 		mov	x28, 0
 303 0440 19008052 		mov	w25, 0
 304 0444 7A260091 		add	x26, x19, 9
 305 0448 00000094 		bl	strlen
 306 044c 1F001CEB 		cmp	x0, x28
 307 0450 69010054 		bls	.L39
 308              	.L25:
 309 0454 E03740F9 		ldr	x0, [sp, 104]
 310 0458 426B7C38 		ldrb	w2, [x26, x28]
 311 045c 00687C38 		ldrb	w0, [x0, x28]
 312 0460 9C070091 		add	x28, x28, 1
 313 0464 5F00006B 		cmp	w2, w0
 314 0468 E03740F9 		ldr	x0, [sp, 104]
 315 046c 3917991A 		cinc	w25, w25, eq
 316 0470 00000094 		bl	strlen
 317 0474 1F001CEB 		cmp	x0, x28
 318 0478 E8FEFF54 		bhi	.L25
 319              	.L39:
 320 047c E00314AA 		mov	x0, x20
 321 0480 00000094 		bl	strlen
 322 0484 1F4035EB 		cmp	x0, x21, uxtw
 323 0488 00020054 		beq	.L26
 324              	.L37:
 325 048c FC3B77B9 		ldr	w28, [sp, 14136]
 326 0490 F7060011 		add	w23, w23, 1
 327 0494 73720091 		add	x19, x19, 28
 328 0498 FF021C6B 		cmp	w23, w28
 329 049c 23FBFF54 		bcc	.L28
 330              	.L38:
 331 04a0 C0020052 		eor	w0, w22, 1
 332              	.L13:
 333 04a4 10E886D2 		mov	x16, 14144
 334 04a8 F35340A9 		ldp	x19, x20, [sp]
 335 04ac F55B41A9 		ldp	x21, x22, [sp, 16]
 336 04b0 F76342A9 		ldp	x23, x24, [sp, 32]
 337 04b4 F96B43A9 		ldp	x25, x26, [sp, 48]
 338 04b8 FB7344A9 		ldp	x27, x28, [sp, 64]
AARCH64 GAS  C:\Users\A01169~1\AppData\Local\Temp\ccRWduX2.s 			page 7


 339 04bc FE2B40F9 		ldr	x30, [sp, 80]
 340 04c0 FF63308B 		add	sp, sp, x16
 341 04c4 C0035FD6 		ret
 342              		.p2align 2
 343              	.L26:
 344 04c8 E03740F9 		ldr	x0, [sp, 104]
 345 04cc 00000094 		bl	strlen
 346 04d0 1F4039EB 		cmp	x0, x25, uxtw
 347 04d4 C1FDFF54 		bne	.L37
 348 04d8 F53F40F9 		ldr	x21, [sp, 120]
 349 04dc 020180D2 		mov	x2, 8
 350 04e0 E10313AA 		mov	x1, x19
 351 04e4 F603182A 		mov	w22, w24
 352 04e8 E00315AA 		mov	x0, x21
 353 04ec 00000094 		bl	memcpy
 354 04f0 620080D2 		mov	x2, 3
 355 04f4 61260091 		add	x1, x19, 9
 356 04f8 E0031BAA 		mov	x0, x27
 357 04fc 00000094 		bl	memcpy
 358 0500 66524039 		ldrb	w6, [x19, 20]
 359 0504 64564039 		ldrb	w4, [x19, 21]
 360 0508 635A4039 		ldrb	w3, [x19, 22]
 361 050c 625E4039 		ldrb	w2, [x19, 23]
 362 0510 61624039 		ldrb	w1, [x19, 24]
 363 0514 60664039 		ldrb	w0, [x19, 25]
 364 0518 689E4129 		ldp	w8, w7, [x19, 12]
 365 051c A89E0129 		stp	w8, w7, [x21, 12]
 366 0520 FC3B77B9 		ldr	w28, [sp, 14136]
 367 0524 A6520039 		strb	w6, [x21, 20]
 368 0528 A4560039 		strb	w4, [x21, 21]
 369 052c A35A0039 		strb	w3, [x21, 22]
 370 0530 A25E0039 		strb	w2, [x21, 23]
 371 0534 A1620039 		strb	w1, [x21, 24]
 372 0538 A0660039 		strb	w0, [x21, 25]
 373 053c ADFFFF17 		b	.L20
 374              	.L29:
 375 0540 20008052 		mov	w0, 1
 376 0544 D8FFFF17 		b	.L13
 377              		.size	fat_file_open, .-fat_file_open
 378              		.align	2
 379 0548 1F2003D5 		.p2align 4,,15
 379      1F2003D5 
 380              		.global	fat_read_files_in_dir
 381              		.type	fat_read_files_in_dir, %function
 382              	fat_read_files_in_dir:
 383 0550 F353BAA9 		stp	x19, x20, [sp, -96]!
 384 0554 F40300AA 		mov	x20, x0
 385 0558 F76302A9 		stp	x23, x24, [sp, 32]
 386 055c 18000090 		adrp	x24, fat_table_buffer
 387 0560 18030091 		add	x24, x24, :lo12:fat_table_buffer
 388 0564 F96B03A9 		stp	x25, x26, [sp, 48]
 389 0568 1A000090 		adrp	x26, boot_sector
 390 056c 5A030091 		add	x26, x26, :lo12:boot_sector
 391 0570 19000090 		adrp	x25, buffer
 392 0574 39030091 		add	x25, x25, :lo12:buffer
 393 0578 970380D2 		mov	x23, 28
 394 057c F55B01A9 		stp	x21, x22, [sp, 16]
AARCH64 GAS  C:\Users\A01169~1\AppData\Local\Temp\ccRWduX2.s 			page 8


 395 0580 55008052 		mov	w21, 2
 396 0584 96038052 		mov	w22, 28
 397 0588 FB7304A9 		stp	x27, x28, [sp, 64]
 398 058c 1C008052 		mov	w28, 0
 399 0590 FE2B00F9 		str	x30, [sp, 80]
 400 0594 1F2003D5 		.p2align 3
 401              	.L44:
 402 0598 440740B9 		ldr	w4, [x26, 4]
 403 059c A30A0051 		sub	w3, w21, #2
 404 05a0 413340B9 		ldr	w1, [x26, 48]
 405 05a4 F30319AA 		mov	x19, x25
 406 05a8 22008052 		mov	w2, 1
 407 05ac E00319AA 		mov	x0, x25
 408 05b0 6104041B 		madd	w1, w3, w4, w1
 409 05b4 00000094 		bl	hal_sd_card_read_block
 410              		.p2align 3
 411              	.L43:
 412 05b8 9B7FB69B 		umull	x27, w28, w22
 413 05bc 63024039 		ldrb	w3, [x19]
 414 05c0 E10313AA 		mov	x1, x19
 415 05c4 020180D2 		mov	x2, 8
 416 05c8 80021B8B 		add	x0, x20, x27
 417 05cc 7F940371 		cmp	w3, 229
 418 05d0 40050054 		beq	.L41
 419 05d4 63050034 		cbz	w3, .L42
 420 05d8 00000094 		bl	memcpy
 421 05dc 60270091 		add	x0, x27, 9
 422 05e0 620080D2 		mov	x2, 3
 423 05e4 61220091 		add	x1, x19, 8
 424 05e8 8002008B 		add	x0, x20, x0
 425 05ec 00000094 		bl	memcpy
 426 05f0 E0031C2A 		uxtw	x0, w28
 427 05f4 637A4039 		ldrb	w3, [x19, 30]
 428 05f8 64724039 		ldrb	w4, [x19, 28]
 429 05fc 9C070011 		add	w28, w28, 1
 430 0600 61764039 		ldrb	w1, [x19, 29]
 431 0604 627E4039 		ldrb	w2, [x19, 31]
 432 0608 0050179B 		madd	x0, x0, x23, x20
 433 060c 633C1053 		lsl	w3, w3, 16
 434 0610 6120012A 		orr	w1, w3, w1, lsl 8
 435 0614 8260022A 		orr	w2, w4, w2, lsl 24
 436 0618 2100022A 		orr	w1, w1, w2
 437 061c 010C00B9 		str	w1, [x0, 12]
 438 0620 63524039 		ldrb	w3, [x19, 20]
 439 0624 62564039 		ldrb	w2, [x19, 21]
 440 0628 616E4039 		ldrb	w1, [x19, 27]
 441 062c 633C1053 		lsl	w3, w3, 16
 442 0630 646A4039 		ldrb	w4, [x19, 26]
 443 0634 6260020B 		add	w2, w3, w2, lsl 24
 444 0638 4120010B 		add	w1, w2, w1, lsl 8
 445 063c 2100040B 		add	w1, w1, w4
 446 0640 011000B9 		str	w1, [x0, 16]
 447 0644 612E4039 		ldrb	w1, [x19, 11]
 448 0648 22000012 		and	w2, w1, 1
 449 064c 025C0039 		strb	w2, [x0, 23]
 450 0650 240441D3 		ubfx	x4, x1, 1, 1
 451 0654 230842D3 		ubfx	x3, x1, 2, 1
AARCH64 GAS  C:\Users\A01169~1\AppData\Local\Temp\ccRWduX2.s 			page 9


 452 0658 250C43D3 		ubfx	x5, x1, 3, 1
 453 065c 221445D3 		ubfx	x2, x1, 5, 1
 454 0660 211044D3 		ubfx	x1, x1, 4, 1
 455 0664 05500039 		strb	w5, [x0, 20]
 456 0668 04540039 		strb	w4, [x0, 21]
 457 066c 03580039 		strb	w3, [x0, 22]
 458 0670 02600039 		strb	w2, [x0, 24]
 459 0674 01640039 		strb	w1, [x0, 25]
 460              	.L41:
 461 0678 73820091 		add	x19, x19, 32
 462 067c CFFFFF17 		b	.L43
 463              		.p2align 2
 464              	.L42:
 465 0680 B5761E53 		lsl	w21, w21, 2
 466 0684 0200BE12 		mov	w2, 268435455
 467 0688 A10A0011 		add	w1, w21, 2
 468 068c A00E0011 		add	w0, w21, 3
 469 0690 A4060011 		add	w4, w21, 1
 470 0694 034B7538 		ldrb	w3, [x24, w21, uxtw]
 471 0698 014B6138 		ldrb	w1, [x24, w1, uxtw]
 472 069c 154B6438 		ldrb	w21, [x24, w4, uxtw]
 473 06a0 004B6038 		ldrb	w0, [x24, w0, uxtw]
 474 06a4 213C1053 		lsl	w1, w1, 16
 475 06a8 3520152A 		orr	w21, w1, w21, lsl 8
 476 06ac 6060002A 		orr	w0, w3, w0, lsl 24
 477 06b0 B502002A 		orr	w21, w21, w0
 478 06b4 BF02026B 		cmp	w21, w2
 479 06b8 E0079F1A 		cset	w0, ne
 480 06bc BF020071 		cmp	w21, 0
 481 06c0 00109F1A 		csel	w0, w0, wzr, ne
 482 06c4 A0F6FF35 		cbnz	w0, .L44
 483 06c8 F55B41A9 		ldp	x21, x22, [sp, 16]
 484 06cc F76342A9 		ldp	x23, x24, [sp, 32]
 485 06d0 F96B43A9 		ldp	x25, x26, [sp, 48]
 486 06d4 FE2B40F9 		ldr	x30, [sp, 80]
 487 06d8 9CB236B9 		str	w28, [x20, 14000]
 488 06dc FB7344A9 		ldp	x27, x28, [sp, 64]
 489 06e0 F353C6A8 		ldp	x19, x20, [sp], 96
 490 06e4 C0035FD6 		ret
 491              		.size	fat_read_files_in_dir, .-fat_read_files_in_dir
 492              		.align	2
 493 06e8 1F2003D5 		.p2align 4,,15
 493      1F2003D5 
 494              		.global	cluster_to_sector
 495              		.type	cluster_to_sector, %function
 496              	cluster_to_sector:
 497 06f0 01000090 		adrp	x1, boot_sector
 498 06f4 21000091 		add	x1, x1, :lo12:boot_sector
 499 06f8 00080051 		sub	w0, w0, #2
 500 06fc 220440B9 		ldr	w2, [x1, 4]
 501 0700 213040B9 		ldr	w1, [x1, 48]
 502 0704 0004021B 		madd	w0, w0, w2, w1
 503 0708 C0035FD6 		ret
 504              		.size	cluster_to_sector, .-cluster_to_sector
 505              		.align	2
 506 070c 1F2003D5 		.p2align 4,,15
 507              		.global	num_of_clusters_to_sectors
AARCH64 GAS  C:\Users\A01169~1\AppData\Local\Temp\ccRWduX2.s 			page 10


 508              		.type	num_of_clusters_to_sectors, %function
 509              	num_of_clusters_to_sectors:
 510 0710 01000090 		adrp	x1, boot_sector+4
 511 0714 210040B9 		ldr	w1, [x1, #:lo12:boot_sector+4]
 512 0718 007C011B 		mul	w0, w0, w1
 513 071c C0035FD6 		ret
 514              		.size	num_of_clusters_to_sectors, .-num_of_clusters_to_sectors
 515              		.align	2
 516              		.p2align 4,,15
 517              		.global	cluster_to_fat_table_offset
 518              		.type	cluster_to_fat_table_offset, %function
 519              	cluster_to_fat_table_offset:
 520 0720 00741E53 		lsl	w0, w0, 2
 521 0724 C0035FD6 		ret
 522              		.size	cluster_to_fat_table_offset, .-cluster_to_fat_table_offset
 523              		.align	2
 524 0728 1F2003D5 		.p2align 4,,15
 524      1F2003D5 
 525              		.global	num_of_sectors_to_bytes
 526              		.type	num_of_sectors_to_bytes, %function
 527              	num_of_sectors_to_bytes:
 528 0730 01000090 		adrp	x1, boot_sector
 529 0734 210040B9 		ldr	w1, [x1, #:lo12:boot_sector]
 530 0738 007C011B 		mul	w0, w0, w1
 531 073c C0035FD6 		ret
 532              		.size	num_of_sectors_to_bytes, .-num_of_sectors_to_bytes
 533              		.align	2
 534              		.p2align 4,,15
 535              		.global	offset_read_n_bytes
 536              		.type	offset_read_n_bytes, %function
 537              	offset_read_n_bytes:
 538 0740 E50300AA 		mov	x5, x0
 539 0744 A2010034 		cbz	w2, .L57
 540 0748 4200010B 		add	w2, w2, w1
 541 074c 04008052 		mov	w4, 0
 542 0750 00008052 		mov	w0, 0
 543 0754 1F2003D5 		.p2align 3
 544              	.L56:
 545 0758 A3486138 		ldrb	w3, [x5, w1, uxtw]
 546 075c 21040011 		add	w1, w1, 1
 547 0760 5F00016B 		cmp	w2, w1
 548 0764 6320C41A 		lsl	w3, w3, w4
 549 0768 84200011 		add	w4, w4, 8
 550 076c 0000032A 		orr	w0, w0, w3
 551 0770 41FFFF54 		bne	.L56
 552 0774 C0035FD6 		ret
 553              		.p2align 2
 554              	.L57:
 555 0778 00008052 		mov	w0, 0
 556 077c C0035FD6 		ret
 557              		.size	offset_read_n_bytes, .-offset_read_n_bytes
 558              		.comm	boot_sector,52,8
 559              		.comm	buffer,512,8
 560              		.comm	fat_table_buffer,358400,8
 561              		.ident	"GCC: (GNU Toolchain for the A-profile Architecture 8.3-2019.03 (arm-rel-8.36)) 8.3.0"
AARCH64 GAS  C:\Users\A01169~1\AppData\Local\Temp\ccRWduX2.s 			page 11


DEFINED SYMBOLS
                            *ABS*:0000000000000000 fat.c
C:\Users\A01169~1\AppData\Local\Temp\ccRWduX2.s:4      .text:0000000000000000 $x
C:\Users\A01169~1\AppData\Local\Temp\ccRWduX2.s:8      .text:0000000000000000 fat_init
                            *COM*:0000000000000200 buffer
                            *COM*:0000000000000034 boot_sector
                            *COM*:0000000000057800 fat_table_buffer
C:\Users\A01169~1\AppData\Local\Temp\ccRWduX2.s:106    .text:0000000000000170 fat_file_read
C:\Users\A01169~1\AppData\Local\Temp\ccRWduX2.s:154    .text:0000000000000220 fat_file_open
C:\Users\A01169~1\AppData\Local\Temp\ccRWduX2.s:382    .text:0000000000000550 fat_read_files_in_dir
C:\Users\A01169~1\AppData\Local\Temp\ccRWduX2.s:496    .text:00000000000006f0 cluster_to_sector
C:\Users\A01169~1\AppData\Local\Temp\ccRWduX2.s:509    .text:0000000000000710 num_of_clusters_to_sectors
C:\Users\A01169~1\AppData\Local\Temp\ccRWduX2.s:519    .text:0000000000000720 cluster_to_fat_table_offset
C:\Users\A01169~1\AppData\Local\Temp\ccRWduX2.s:527    .text:0000000000000730 num_of_sectors_to_bytes
C:\Users\A01169~1\AppData\Local\Temp\ccRWduX2.s:537    .text:0000000000000740 offset_read_n_bytes

UNDEFINED SYMBOLS
hal_sd_card_read_block
memcpy
strlen
AARCH64 GAS  C:\Users\A01169~1\AppData\Local\Temp\ccRWduX2.s 			page 1


   1              		.arch armv8-a
   2              		.file	"fonts.c"
   3              		.text
   4              		.align	2
   5              		.p2align 4,,15
   6              		.global	fonts_char_to_font
   7              		.type	fonts_char_to_font, %function
   8              	fonts_char_to_font:
   9 0000 001C0012 		and	w0, w0, 255
  10 0004 60013837 		tbnz	x0, 7, .L4
  11 0008 03840151 		sub	w3, w0, #97
  12 000c 01800051 		sub	w1, w0, #32
  13 0010 631C0012 		and	w3, w3, 255
  14 0014 02000090 		adrp	x2, char_font_map
  15 0018 42000091 		add	x2, x2, :lo12:char_font_map
  16 001c 7F680071 		cmp	w3, 26
  17 0020 2030801A 		csel	w0, w1, w0, cc
  18 0024 810C8052 		mov	w1, 100
  19 0028 0008219B 		smaddl	x0, w0, w1, x2
  20 002c C0035FD6 		ret
  21              		.p2align 2
  22              	.L4:
  23 0030 00000090 		adrp	x0, char_font_map+3200
  24 0034 00000091 		add	x0, x0, :lo12:char_font_map+3200
  25 0038 C0035FD6 		ret
  26              		.size	fonts_char_to_font, .-fonts_char_to_font
  27              		.align	2
  28 003c 1F2003D5 		.p2align 4,,15
  29              		.global	fonts_init
  30              		.type	fonts_init, %function
  31              	fonts_init:
  32 0040 F353BAA9 		stp	x19, x20, [sp, -96]!
  33 0044 00000090 		adrp	x0, .LANCHOR0
  34 0048 893386D2 		mov	x9, 12700
  35 004c F76302A9 		stp	x23, x24, [sp, 32]
  36 0050 17000090 		adrp	x23, char_font_map
  37 0054 F7020091 		add	x23, x23, :lo12:char_font_map
  38 0058 F30317AA 		mov	x19, x23
  39 005c F402098B 		add	x20, x23, x9
  40 0060 FB7304A9 		stp	x27, x28, [sp, 64]
  41 0064 1B000091 		add	x27, x0, :lo12:.LANCHOR0
  42 0068 1F0000B9 		str	wzr, [x0, #:lo12:.LANCHOR0]
  43 006c F55B01A9 		stp	x21, x22, [sp, 16]
  44 0070 F96B03A9 		stp	x25, x26, [sp, 48]
  45 0074 FE2B00F9 		str	x30, [sp, 80]
  46 0078 E82F00FD 		str	d8, [sp, 88]
  47 007c 1F2003D5 		.p2align 3
  48              	.L7:
  49 0080 820C80D2 		mov	x2, 100
  50 0084 E00313AA 		mov	x0, x19
  51 0088 E1031BAA 		mov	x1, x27
  52 008c 7302028B 		add	x19, x19, x2
  53 0090 00000094 		bl	memcpy
  54 0094 7F0214EB 		cmp	x19, x20
  55 0098 41FFFF54 		bne	.L7
  56 009c F5023291 		add	x21, x23, 3200
  57 00a0 E1031BAA 		mov	x1, x27
AARCH64 GAS  C:\Users\A01169~1\AppData\Local\Temp\ccRWduX2.s 			page 2


  58 00a4 820C80D2 		mov	x2, 100
  59 00a8 E00315AA 		mov	x0, x21
  60 00ac 00000094 		bl	memcpy
  61 00b0 94008052 		mov	w20, 4
  62 00b4 630080D2 		mov	x3, 3
  63 00b8 4600C0D2 		mov	x6, 8589934592
  64 00bc A4008012 		mov	w4, 4294967290
  65 00c0 631B00A9 		stp	x3, x6, [x27]
  66 00c4 A3008012 		mov	w3, 4294967290
  67 00c8 2A00C0D2 		mov	x10, 4294967296
  68 00cc 25008012 		mov	w5, -2
  69 00d0 4400C0F2 		movk	x4, 0x2, lsl 32
  70 00d4 E7837FB2 		mov	x7, 17179869182
  71 00d8 8300C0F2 		movk	x3, 0x4, lsl 32
  72 00dc E1031BAA 		mov	x1, x27
  73 00e0 A0923391 		add	x0, x21, 3300
  74 00e4 820C80D2 		mov	x2, 100
  75 00e8 640B00F9 		str	x4, [x27, 16]
  76 00ec B3008012 		mov	w19, -6
  77 00f0 630F00F9 		str	x3, [x27, 24]
  78 00f4 B9008012 		mov	w25, 4294967290
  79 00f8 6A1F02A9 		stp	x10, x7, [x27, 32]
  80 00fc 56008012 		mov	w22, -3
  81 0100 9C00C0D2 		mov	x28, 17179869184
  82 0104 653300B9 		str	w5, [x27, 48]
  83 0108 00000094 		bl	memcpy
  84 010c A3008052 		mov	w3, 5
  85 0110 630300B9 		str	w3, [x27]
  86 0114 E3777EB2 		mov	x3, 4294967292
  87 0118 E87B7FB2 		mov	x8, 4294967294
  88 011c 8300C0F2 		movk	x3, 0x4, lsl 32
  89 0120 631300F9 		str	x3, [x27, 32]
  90 0124 E3777EB2 		mov	x3, 4294967292
  91 0128 631700F9 		str	x3, [x27, 40]
  92 012c 43008012 		mov	w3, 4294967293
  93 0130 631B00F9 		str	x3, [x27, 48]
  94 0134 43008012 		mov	w3, 4294967293
  95 0138 8800C0F2 		movk	x8, 0x4, lsl 32
  96 013c E77B7FB2 		mov	x7, 4294967294
  97 0140 8300C0F2 		movk	x3, 0x4, lsl 32
  98 0144 E1031BAA 		mov	x1, x27
  99 0148 A0223591 		add	x0, x21, 3400
 100 014c 820C80D2 		mov	x2, 100
 101 0150 7F0F00B9 		str	wzr, [x27, 12]
 102 0154 7F1700B9 		str	wzr, [x27, 20]
 103 0158 BA023E91 		add	x26, x21, 3968
 104 015c 631F00F9 		str	x3, [x27, 56]
 105 0160 58008052 		mov	w24, 2
 106 0164 681F04A9 		stp	x8, x7, [x27, 64]
 107 0168 7F5300B9 		str	wzr, [x27, 80]
 108 016c 00000094 		bl	memcpy
 109 0170 63008052 		mov	w3, 3
 110 0174 E1031BAA 		mov	x1, x27
 111 0178 A0B23691 		add	x0, x21, 3500
 112 017c 820C80D2 		mov	x2, 100
 113 0180 630300B9 		str	w3, [x27]
 114 0184 74FF0129 		stp	w20, wzr, [x27, 12]
AARCH64 GAS  C:\Users\A01169~1\AppData\Local\Temp\ccRWduX2.s 			page 3


 115 0188 791300F9 		str	x25, [x27, 32]
 116 018c 732B00B9 		str	w19, [x27, 40]
 117 0190 7F3300B9 		str	wzr, [x27, 48]
 118 0194 00000094 		bl	memcpy
 119 0198 43008012 		mov	w3, 4294967293
 120 019c E1031BAA 		mov	x1, x27
 121 01a0 8300C0F2 		movk	x3, 0x4, lsl 32
 122 01a4 A0423891 		add	x0, x21, 3600
 123 01a8 820C80D2 		mov	x2, 100
 124 01ac 7FCF0129 		stp	wzr, w19, [x27, 12]
 125 01b0 631300F9 		str	x3, [x27, 32]
 126 01b4 762B00B9 		str	w22, [x27, 40]
 127 01b8 00000094 		bl	memcpy
 128 01bc E1031BAA 		mov	x1, x27
 129 01c0 A0D23991 		add	x0, x21, 3700
 130 01c4 820C80D2 		mov	x2, 100
 131 01c8 740300B9 		str	w20, [x27]
 132 01cc 74FF0129 		stp	w20, wzr, [x27, 12]
 133 01d0 791300F9 		str	x25, [x27, 32]
 134 01d4 74DB0529 		stp	w20, w22, [x27, 44]
 135 01d8 791F00F9 		str	x25, [x27, 56]
 136 01dc 7F4300B9 		str	wzr, [x27, 64]
 137 01e0 00000094 		bl	memcpy
 138 01e4 63008052 		mov	w3, 3
 139 01e8 E1031BAA 		mov	x1, x27
 140 01ec A0623B91 		add	x0, x21, 3800
 141 01f0 820C80D2 		mov	x2, 100
 142 01f4 630300B9 		str	w3, [x27]
 143 01f8 730B00B9 		str	w19, [x27, 8]
 144 01fc 731300B9 		str	w19, [x27, 16]
 145 0200 761B00B9 		str	w22, [x27, 24]
 146 0204 762300B9 		str	w22, [x27, 32]
 147 0208 791700F9 		str	x25, [x27, 40]
 148 020c 7F3300B9 		str	wzr, [x27, 48]
 149 0210 00000094 		bl	memcpy
 150 0214 A3008052 		mov	w3, 5
 151 0218 630300B9 		str	w3, [x27]
 152 021c 43008012 		mov	w3, 4294967293
 153 0220 E1031BAA 		mov	x1, x27
 154 0224 8300C0F2 		movk	x3, 0x4, lsl 32
 155 0228 A0F23C91 		add	x0, x21, 3900
 156 022c 820C80D2 		mov	x2, 100
 157 0230 7F0B00B9 		str	wzr, [x27, 8]
 158 0234 7F1300B9 		str	wzr, [x27, 16]
 159 0238 731B00B9 		str	w19, [x27, 24]
 160 023c 732300B9 		str	w19, [x27, 32]
 161 0240 631700F9 		str	x3, [x27, 40]
 162 0244 763300B9 		str	w22, [x27, 48]
 163 0248 7C2700F9 		str	x28, [x27, 72]
 164 024c 765300B9 		str	w22, [x27, 80]
 165 0250 00000094 		bl	memcpy
 166 0254 63008052 		mov	w3, 3
 167 0258 630300B9 		str	w3, [x27]
 168 025c A3008012 		mov	w3, 4294967290
 169 0260 E1031BAA 		mov	x1, x27
 170 0264 8300C0F2 		movk	x3, 0x4, lsl 32
 171 0268 A0823E91 		add	x0, x21, 4000
AARCH64 GAS  C:\Users\A01169~1\AppData\Local\Temp\ccRWduX2.s 			page 4


 172 026c 820C80D2 		mov	x2, 100
 173 0270 7F0F00B9 		str	wzr, [x27, 12]
 174 0274 630B00F9 		str	x3, [x27, 16]
 175 0278 7F2300B9 		str	wzr, [x27, 32]
 176 027c 00000094 		bl	memcpy
 177 0280 A4008012 		mov	w4, 4294967290
 178 0284 E1031BAA 		mov	x1, x27
 179 0288 4400C0F2 		movk	x4, 0x2, lsl 32
 180 028c 40130291 		add	x0, x26, 132
 181 0290 820C80D2 		mov	x2, 100
 182 0294 740F00B9 		str	w20, [x27, 12]
 183 0298 7F0B00F9 		str	xzr, [x27, 16]
 184 029c 641302A9 		stp	x4, x4, [x27, 32]
 185 02a0 7F3300B9 		str	wzr, [x27, 48]
 186 02a4 00000094 		bl	memcpy
 187 02a8 43008012 		mov	w3, 4294967293
 188 02ac E1031BAA 		mov	x1, x27
 189 02b0 8300C0F2 		movk	x3, 0x4, lsl 32
 190 02b4 40330591 		add	x0, x26, 332
 191 02b8 820C80D2 		mov	x2, 100
 192 02bc 7FCF0129 		stp	wzr, w19, [x27, 12]
 193 02c0 761B00B9 		str	w22, [x27, 24]
 194 02c4 7F2700B9 		str	wzr, [x27, 36]
 195 02c8 631700F9 		str	x3, [x27, 40]
 196 02cc 00000094 		bl	memcpy
 197 02d0 E1031BAA 		mov	x1, x27
 198 02d4 40C30691 		add	x0, x26, 432
 199 02d8 820C80D2 		mov	x2, 100
 200 02dc 780300B9 		str	w24, [x27]
 201 02e0 74FF0129 		stp	w20, wzr, [x27, 12]
 202 02e4 FA0A4091 		add	x26, x23, 8192
 203 02e8 790F00F9 		str	x25, [x27, 24]
 204 02ec 7F2300B9 		str	wzr, [x27, 32]
 205 02f0 00000094 		bl	memcpy
 206 02f4 E37F40B2 		mov	x3, 4294967295
 207 02f8 E1031BAA 		mov	x1, x27
 208 02fc 4300C0F2 		movk	x3, 0x2, lsl 32
 209 0300 631300F9 		str	x3, [x27, 32]
 210 0304 03008012 		mov	w3, -1
 211 0308 632B00B9 		str	w3, [x27, 40]
 212 030c A3008012 		mov	w3, 4294967290
 213 0310 820C80D2 		mov	x2, 100
 214 0314 8300C0F2 		movk	x3, 0x4, lsl 32
 215 0318 80C283D2 		mov	x0, 7700
 216 031c E002008B 		add	x0, x23, x0
 217 0320 740300B9 		str	w20, [x27]
 218 0324 790700F9 		str	x25, [x27, 8]
 219 0328 781F00B9 		str	w24, [x27, 28]
 220 032c 631B00F9 		str	x3, [x27, 48]
 221 0330 743F00B9 		str	w20, [x27, 60]
 222 0334 00000094 		bl	memcpy
 223 0338 03CF83D2 		mov	x3, 7800
 224 033c E002038B 		add	x0, x23, x3
 225 0340 63008052 		mov	w3, 3
 226 0344 E1031BAA 		mov	x1, x27
 227 0348 820C80D2 		mov	x2, 100
 228 034c 630300B9 		str	w3, [x27]
AARCH64 GAS  C:\Users\A01169~1\AppData\Local\Temp\ccRWduX2.s 			page 5


 229 0350 741F00B9 		str	w20, [x27, 28]
 230 0354 7C1300F9 		str	x28, [x27, 32]
 231 0358 7F2B00B9 		str	wzr, [x27, 40]
 232 035c 00000094 		bl	memcpy
 233 0360 84DB83D2 		mov	x4, 7900
 234 0364 E1031BAA 		mov	x1, x27
 235 0368 E002048B 		add	x0, x23, x4
 236 036c 820C80D2 		mov	x2, 100
 237 0370 740300B9 		str	w20, [x27]
 238 0374 7C0700F9 		str	x28, [x27, 8]
 239 0378 7F1F00B9 		str	wzr, [x27, 28]
 240 037c 7FCF0429 		stp	wzr, w19, [x27, 36]
 241 0380 00000094 		bl	memcpy
 242 0384 4804004F 		movi	v8.4s, 0x2
 243 0388 E3777EB2 		mov	x3, 4294967292
 244 038c 8300C0F2 		movk	x3, 0x4, lsl 32
 245 0390 25008012 		mov	w5, -2
 246 0394 631300F9 		str	x3, [x27, 32]
 247 0398 E3777EB2 		mov	x3, 4294967292
 248 039c 653300B9 		str	w5, [x27, 48]
 249 03a0 05E883D2 		mov	x5, 8000
 250 03a4 60008052 		mov	w0, 3
 251 03a8 E1031BAA 		mov	x1, x27
 252 03ac 820C80D2 		mov	x2, 100
 253 03b0 600300B9 		str	w0, [x27]
 254 03b4 E002058B 		add	x0, x23, x5
 255 03b8 790700F9 		str	x25, [x27, 8]
 256 03bc 741F00B9 		str	w20, [x27, 28]
 257 03c0 631700F9 		str	x3, [x27, 40]
 258 03c4 00000094 		bl	memcpy
 259 03c8 25008012 		mov	w5, -2
 260 03cc E1031BAA 		mov	x1, x27
 261 03d0 40230091 		add	x0, x26, 8
 262 03d4 820C80D2 		mov	x2, 100
 263 03d8 740300B9 		str	w20, [x27]
 264 03dc 7F970629 		stp	wzr, w5, [x27, 52]
 265 03e0 00000094 		bl	memcpy
 266 03e4 A3008052 		mov	w3, 5
 267 03e8 630300B9 		str	w3, [x27]
 268 03ec 43008012 		mov	w3, 4294967293
 269 03f0 E1031BAA 		mov	x1, x27
 270 03f4 8300C0F2 		movk	x3, 0x4, lsl 32
 271 03f8 40B30191 		add	x0, x26, 108
 272 03fc 820C80D2 		mov	x2, 100
 273 0400 7C0700F9 		str	x28, [x27, 8]
 274 0404 791300F9 		str	x25, [x27, 32]
 275 0408 631700F9 		str	x3, [x27, 40]
 276 040c 763300B9 		str	w22, [x27, 48]
 277 0410 791F00F9 		str	x25, [x27, 56]
 278 0414 764300B9 		str	w22, [x27, 64]
 279 0418 00000094 		bl	memcpy
 280 041c A4008012 		mov	w4, 4294967290
 281 0420 E1031BAA 		mov	x1, x27
 282 0424 4400C0F2 		movk	x4, 0x2, lsl 32
 283 0428 40430391 		add	x0, x26, 208
 284 042c 820C80D2 		mov	x2, 100
 285 0430 780300B9 		str	w24, [x27]
AARCH64 GAS  C:\Users\A01169~1\AppData\Local\Temp\ccRWduX2.s 			page 6


 286 0434 730B00B9 		str	w19, [x27, 8]
 287 0438 640B00F9 		str	x4, [x27, 16]
 288 043c 78FF0329 		stp	w24, wzr, [x27, 28]
 289 0440 00000094 		bl	memcpy
 290 0444 61008052 		mov	w1, 3
 291 0448 40D30491 		add	x0, x26, 308
 292 044c 820C80D2 		mov	x2, 100
 293 0450 610300B9 		str	w1, [x27]
 294 0454 E1031BAA 		mov	x1, x27
 295 0458 7F0700F9 		str	xzr, [x27, 8]
 296 045c 741700B9 		str	w20, [x27, 20]
 297 0460 7C0F00F9 		str	x28, [x27, 24]
 298 0464 FC064091 		add	x28, x23, 4096
 299 0468 732300B9 		str	w19, [x27, 32]
 300 046c 7F2B00B9 		str	wzr, [x27, 40]
 301 0470 7F3300B9 		str	wzr, [x27, 48]
 302 0474 00000094 		bl	memcpy
 303 0478 E1031BAA 		mov	x1, x27
 304 047c 40630691 		add	x0, x26, 408
 305 0480 820C80D2 		mov	x2, 100
 306 0484 680300FD 		str	d8, [x27]
 307 0488 781700B9 		str	w24, [x27, 20]
 308 048c 00000094 		bl	memcpy
 309 0490 43008012 		mov	w3, 4294967293
 310 0494 2A00C0D2 		mov	x10, 4294967296
 311 0498 890080D2 		mov	x9, 4
 312 049c 4300C0F2 		movk	x3, 0x2, lsl 32
 313 04a0 A1008012 		mov	w1, 4294967290
 314 04a4 40F30791 		add	x0, x26, 508
 315 04a8 2100C0F2 		movk	x1, 0x1, lsl 32
 316 04ac 820C80D2 		mov	x2, 100
 317 04b0 690700A9 		stp	x9, x1, [x27]
 318 04b4 E1031BAA 		mov	x1, x27
 319 04b8 6A0B00F9 		str	x10, [x27, 16]
 320 04bc 781F00B9 		str	w24, [x27, 28]
 321 04c0 631300F9 		str	x3, [x27, 32]
 322 04c4 762B00B9 		str	w22, [x27, 40]
 323 04c8 693700B9 		str	w9, [x27, 52]
 324 04cc 74FF0729 		stp	w20, wzr, [x27, 60]
 325 04d0 00000094 		bl	memcpy
 326 04d4 064C84D2 		mov	x6, 8800
 327 04d8 E1031BAA 		mov	x1, x27
 328 04dc E002068B 		add	x0, x23, x6
 329 04e0 820C80D2 		mov	x2, 100
 330 04e4 780300B9 		str	w24, [x27]
 331 04e8 740F00B9 		str	w20, [x27, 12]
 332 04ec 7F1700B9 		str	wzr, [x27, 20]
 333 04f0 74CF0329 		stp	w20, w19, [x27, 28]
 334 04f4 00000094 		bl	memcpy
 335 04f8 43008012 		mov	w3, 4294967293
 336 04fc 690080D2 		mov	x9, 3
 337 0500 4300C0F2 		movk	x3, 0x2, lsl 32
 338 0504 875884D2 		mov	x7, 8900
 339 0508 4900C0F2 		movk	x9, 0x2, lsl 32
 340 050c 4600C0D2 		mov	x6, 8589934592
 341 0510 630B00F9 		str	x3, [x27, 16]
 342 0514 43008012 		mov	w3, 4294967293
AARCH64 GAS  C:\Users\A01169~1\AppData\Local\Temp\ccRWduX2.s 			page 7


 343 0518 E002078B 		add	x0, x23, x7
 344 051c E1031BAA 		mov	x1, x27
 345 0520 820C80D2 		mov	x2, 100
 346 0524 691B00A9 		stp	x9, x6, [x27]
 347 0528 630F00F9 		str	x3, [x27, 24]
 348 052c 733300B9 		str	w19, [x27, 48]
 349 0530 00000094 		bl	memcpy
 350 0534 A3008012 		mov	w3, 4294967290
 351 0538 086584D2 		mov	x8, 9000
 352 053c 8300C0F2 		movk	x3, 0x4, lsl 32
 353 0540 E002088B 		add	x0, x23, x8
 354 0544 E1031BAA 		mov	x1, x27
 355 0548 820C80D2 		mov	x2, 100
 356 054c 7F0700B9 		str	wzr, [x27, 4]
 357 0550 638F00A9 		stp	x3, x3, [x27, 8]
 358 0554 731B00B9 		str	w19, [x27, 24]
 359 0558 7F1300F9 		str	xzr, [x27, 32]
 360 055c 7F2B00B9 		str	wzr, [x27, 40]
 361 0560 7F3300B9 		str	wzr, [x27, 48]
 362 0564 00000094 		bl	memcpy
 363 0568 290080D2 		mov	x9, 1
 364 056c 4600C0D2 		mov	x6, 8589934592
 365 0570 4900C0F2 		movk	x9, 0x2, lsl 32
 366 0574 E1031BAA 		mov	x1, x27
 367 0578 A0921A91 		add	x0, x21, 1700
 368 057c 820C80D2 		mov	x2, 100
 369 0580 691B00A9 		stp	x9, x6, [x27]
 370 0584 00000094 		bl	memcpy
 371 0588 630080D2 		mov	x3, 3
 372 058c 630300F9 		str	x3, [x27]
 373 0590 A3008012 		mov	w3, 4294967290
 374 0594 85008012 		mov	w5, -5
 375 0598 8300C0F2 		movk	x3, 0x4, lsl 32
 376 059c E1031BAA 		mov	x1, x27
 377 05a0 A0221C91 		add	x0, x21, 1800
 378 05a4 820C80D2 		mov	x2, 100
 379 05a8 630700F9 		str	x3, [x27, 8]
 380 05ac 651300B9 		str	w5, [x27, 16]
 381 05b0 651B00B9 		str	w5, [x27, 24]
 382 05b4 00000094 		bl	memcpy
 383 05b8 A3008012 		mov	w3, 4294967290
 384 05bc E1031BAA 		mov	x1, x27
 385 05c0 8300C0F2 		movk	x3, 0x4, lsl 32
 386 05c4 A0B21D91 		add	x0, x21, 1900
 387 05c8 820C80D2 		mov	x2, 100
 388 05cc 740300B9 		str	w20, [x27]
 389 05d0 7F0B00B9 		str	wzr, [x27, 8]
 390 05d4 7F0F01A9 		stp	xzr, x3, [x27, 16]
 391 05d8 732300B9 		str	w19, [x27, 32]
 392 05dc 762B00B9 		str	w22, [x27, 40]
 393 05e0 763300B9 		str	w22, [x27, 48]
 394 05e4 00000094 		bl	memcpy
 395 05e8 660080D2 		mov	x6, 3
 396 05ec A3008012 		mov	w3, 4294967290
 397 05f0 8600C0F2 		movk	x6, 0x4, lsl 32
 398 05f4 8300C0F2 		movk	x3, 0x4, lsl 32
 399 05f8 E1031BAA 		mov	x1, x27
AARCH64 GAS  C:\Users\A01169~1\AppData\Local\Temp\ccRWduX2.s 			page 8


 400 05fc A0421F91 		add	x0, x21, 2000
 401 0600 820C80D2 		mov	x2, 100
 402 0604 660300F9 		str	x6, [x27]
 403 0608 630B00F9 		str	x3, [x27, 16]
 404 060c 7FDB0329 		stp	wzr, w22, [x27, 28]
 405 0610 00000094 		bl	memcpy
 406 0614 A30080D2 		mov	x3, 5
 407 0618 E1031BAA 		mov	x1, x27
 408 061c A0D22091 		add	x0, x21, 2100
 409 0620 820C80D2 		mov	x2, 100
 410 0624 630300F9 		str	x3, [x27]
 411 0628 7F0B00F9 		str	xzr, [x27, 16]
 412 062c 74CF0329 		stp	w20, w19, [x27, 28]
 413 0630 7F3700B9 		str	wzr, [x27, 52]
 414 0634 7FDB0729 		stp	wzr, w22, [x27, 60]
 415 0638 00000094 		bl	memcpy
 416 063c E1031BAA 		mov	x1, x27
 417 0640 A0622291 		add	x0, x21, 2200
 418 0644 820C80D2 		mov	x2, 100
 419 0648 7F4300B9 		str	wzr, [x27, 64]
 420 064c 00000094 		bl	memcpy
 421 0650 780300B9 		str	w24, [x27]
 422 0654 A3008012 		mov	w3, 4294967290
 423 0658 E1031BAA 		mov	x1, x27
 424 065c 8300C0F2 		movk	x3, 0x4, lsl 32
 425 0660 A0F22391 		add	x0, x21, 2300
 426 0664 820C80D2 		mov	x2, 100
 427 0668 730B00B9 		str	w19, [x27, 8]
 428 066c 630B00F9 		str	x3, [x27, 16]
 429 0670 7FFF0329 		stp	wzr, wzr, [x27, 28]
 430 0674 00000094 		bl	memcpy
 431 0678 A3008052 		mov	w3, 5
 432 067c E1031BAA 		mov	x1, x27
 433 0680 A0822591 		add	x0, x21, 2400
 434 0684 820C80D2 		mov	x2, 100
 435 0688 630300B9 		str	w3, [x27]
 436 068c 7F0B00B9 		str	wzr, [x27, 8]
 437 0690 7F0B00F9 		str	xzr, [x27, 16]
 438 0694 74CF0329 		stp	w20, w19, [x27, 28]
 439 0698 735300B9 		str	w19, [x27, 80]
 440 069c 00000094 		bl	memcpy
 441 06a0 E1031BAA 		mov	x1, x27
 442 06a4 A0122791 		add	x0, x21, 2500
 443 06a8 820C80D2 		mov	x2, 100
 444 06ac 764300B9 		str	w22, [x27, 64]
 445 06b0 00000094 		bl	memcpy
 446 06b4 7F2B00B9 		str	wzr, [x27, 40]
 447 06b8 E1031BAA 		mov	x1, x27
 448 06bc A0021991 		add	x0, x21, 1600
 449 06c0 820C80D2 		mov	x2, 100
 450 06c4 733300B9 		str	w19, [x27, 48]
 451 06c8 7F4300B9 		str	wzr, [x27, 64]
 452 06cc 00000094 		bl	memcpy
 453 06d0 E87B7FB2 		mov	x8, 4294967294
 454 06d4 E77B7FB2 		mov	x7, 4294967294
 455 06d8 8800C0F2 		movk	x8, 0x4, lsl 32
 456 06dc 64008012 		mov	w4, -4
AARCH64 GAS  C:\Users\A01169~1\AppData\Local\Temp\ccRWduX2.s 			page 9


 457 06e0 E1031BAA 		mov	x1, x27
 458 06e4 820C80D2 		mov	x2, 100
 459 06e8 E0423891 		add	x0, x23, 3600
 460 06ec 740300B9 		str	w20, [x27]
 461 06f0 681F01A9 		stp	x8, x7, [x27, 16]
 462 06f4 642300B9 		str	w4, [x27, 32]
 463 06f8 642B00B9 		str	w4, [x27, 40]
 464 06fc 783700B9 		str	w24, [x27, 52]
 465 0700 783F00B9 		str	w24, [x27, 60]
 466 0704 00000094 		bl	memcpy
 467 0708 E37F40B2 		mov	x3, 4294967295
 468 070c E1031BAA 		mov	x1, x27
 469 0710 4300C0F2 		movk	x3, 0x2, lsl 32
 470 0714 630B00F9 		str	x3, [x27, 16]
 471 0718 43008012 		mov	w3, 4294967293
 472 071c 820C80D2 		mov	x2, 100
 473 0720 4300C0F2 		movk	x3, 0x2, lsl 32
 474 0724 E0923391 		add	x0, x23, 3300
 475 0728 680300FD 		str	d8, [x27]
 476 072c 780F00B9 		str	w24, [x27, 12]
 477 0730 630F00F9 		str	x3, [x27, 24]
 478 0734 732300B9 		str	w19, [x27, 32]
 479 0738 00000094 		bl	memcpy
 480 073c 43008012 		mov	w3, 4294967293
 481 0740 C6008052 		mov	w6, 6
 482 0744 4300C0F2 		movk	x3, 0x2, lsl 32
 483 0748 631300F9 		str	x3, [x27, 32]
 484 074c 43008012 		mov	w3, 4294967293
 485 0750 85008012 		mov	w5, -5
 486 0754 8300C0F2 		movk	x3, 0x4, lsl 32
 487 0758 E1031BAA 		mov	x1, x27
 488 075c A0723091 		add	x0, x21, 3100
 489 0760 820C80D2 		mov	x2, 100
 490 0764 660300B9 		str	w6, [x27]
 491 0768 762B00B9 		str	w22, [x27, 40]
 492 076c 630F03A9 		stp	x3, x3, [x27, 48]
 493 0770 734300B9 		str	w19, [x27, 64]
 494 0774 792700F9 		str	x25, [x27, 72]
 495 0778 7F5700B9 		str	wzr, [x27, 84]
 496 077c 792F00F9 		str	x25, [x27, 88]
 497 0780 656300B9 		str	w5, [x27, 96]
 498 0784 00000094 		bl	memcpy
 499 0788 64008012 		mov	w4, -4
 500 078c 03008012 		mov	w3, -1
 501 0790 E1031BAA 		mov	x1, x27
 502 0794 A0A22891 		add	x0, x21, 2600
 503 0798 820C80D2 		mov	x2, 100
 504 079c 780300B9 		str	w24, [x27]
 505 07a0 760B00B9 		str	w22, [x27, 8]
 506 07a4 641300B9 		str	w4, [x27, 16]
 507 07a8 631B00B9 		str	w3, [x27, 24]
 508 07ac 7F2300B9 		str	wzr, [x27, 32]
 509 07b0 00000094 		bl	memcpy
 510 07b4 43008012 		mov	w3, 4294967293
 511 07b8 E1031BAA 		mov	x1, x27
 512 07bc 820C80D2 		mov	x2, 100
 513 07c0 E0823E91 		add	x0, x23, 4000
AARCH64 GAS  C:\Users\A01169~1\AppData\Local\Temp\ccRWduX2.s 			page 10


 514 07c4 798F00A9 		stp	x25, x3, [x27, 8]
 515 07c8 761B00B9 		str	w22, [x27, 24]
 516 07cc 00000094 		bl	memcpy
 517 07d0 E1031BAA 		mov	x1, x27
 518 07d4 80130091 		add	x0, x28, 4
 519 07d8 820C80D2 		mov	x2, 100
 520 07dc 740F00B9 		str	w20, [x27, 12]
 521 07e0 741700B9 		str	w20, [x27, 20]
 522 07e4 00000094 		bl	memcpy
 523 07e8 E1031BAA 		mov	x1, x27
 524 07ec 80330391 		add	x0, x28, 204
 525 07f0 820C80D2 		mov	x2, 100
 526 07f4 7FDB0029 		stp	wzr, w22, [x27, 4]
 527 07f8 78CF0229 		stp	w24, w19, [x27, 20]
 528 07fc 00000094 		bl	memcpy
 529 0800 24008052 		mov	w4, 1
 530 0804 E1031BAA 		mov	x1, x27
 531 0808 80530691 		add	x0, x28, 404
 532 080c 820C80D2 		mov	x2, 100
 533 0810 640300B9 		str	w4, [x27]
 534 0814 00000094 		bl	memcpy
 535 0818 F55B41A9 		ldp	x21, x22, [sp, 16]
 536 081c F76342A9 		ldp	x23, x24, [sp, 32]
 537 0820 F96B43A9 		ldp	x25, x26, [sp, 48]
 538 0824 FB7344A9 		ldp	x27, x28, [sp, 64]
 539 0828 FE2B40F9 		ldr	x30, [sp, 80]
 540 082c E82F40FD 		ldr	d8, [sp, 88]
 541 0830 F353C6A8 		ldp	x19, x20, [sp], 96
 542 0834 C0035FD6 		ret
 543              		.size	fonts_init, .-fonts_init
 544              		.bss
 545              		.align	3
 546              		.set	.LANCHOR0,. + 0
 547              		.type	font, %object
 548              		.size	font, 100
 549              	font:
 550 0000 00000000 		.zero	100
 550      00000000 
 550      00000000 
 550      00000000 
 550      00000000 
 551 0064 00000000 		.zero	4
 552              		.type	char_font_map, %object
 553              		.size	char_font_map, 12700
 554              	char_font_map:
 555 0068 00000000 		.zero	12700
 555      00000000 
 555      00000000 
 555      00000000 
 555      00000000 
 556              		.ident	"GCC: (GNU Toolchain for the A-profile Architecture 8.3-2019.03 (arm-rel-8.36)) 8.3.0"
AARCH64 GAS  C:\Users\A01169~1\AppData\Local\Temp\ccRWduX2.s 			page 11


DEFINED SYMBOLS
                            *ABS*:0000000000000000 fonts.c
C:\Users\A01169~1\AppData\Local\Temp\ccRWduX2.s:4      .text:0000000000000000 $x
C:\Users\A01169~1\AppData\Local\Temp\ccRWduX2.s:8      .text:0000000000000000 fonts_char_to_font
C:\Users\A01169~1\AppData\Local\Temp\ccRWduX2.s:554    .bss:0000000000000068 char_font_map
C:\Users\A01169~1\AppData\Local\Temp\ccRWduX2.s:31     .text:0000000000000040 fonts_init
C:\Users\A01169~1\AppData\Local\Temp\ccRWduX2.s:545    .bss:0000000000000000 $d
C:\Users\A01169~1\AppData\Local\Temp\ccRWduX2.s:549    .bss:0000000000000000 font

UNDEFINED SYMBOLS
memcpy
AARCH64 GAS  C:\Users\A01169~1\AppData\Local\Temp\ccRWduX2.s 			page 1


   1              		.arch armv8-a
   2              		.file	"hal_cpu.c"
   3              		.text
   4              		.align	2
   5              		.p2align 4,,15
   6              		.global	hal_cpu_init
   7              		.type	hal_cpu_init, %function
   8              	hal_cpu_init:
   9 0000 F37BBFA9 		stp	x19, x30, [sp, -16]!
  10 0004 F30300AA 		mov	x19, x0
  11 0008 1F0800B9 		str	wzr, [x0, 8]
  12 000c 00000094 		bl	RPi_CpuIdString
  13 0010 01000090 		adrp	x1, RPi_CoresReady
  14 0014 210040B9 		ldr	w1, [x1, #:lo12:RPi_CoresReady]
  15 0018 600200F9 		str	x0, [x19]
  16 001c 610E00B9 		str	w1, [x19, 12]
  17 0020 F37BC1A8 		ldp	x19, x30, [sp], 16
  18 0024 C0035FD6 		ret
  19              		.size	hal_cpu_init, .-hal_cpu_init
  20              		.align	2
  21 0028 1F2003D5 		.p2align 4,,15
  21      1F2003D5 
  22              		.global	hal_cpu_ints_enable
  23              		.type	hal_cpu_ints_enable, %function
  24              	hal_cpu_ints_enable:
  25 0030 00000014 		b	EnableInterrupts
  26              		.size	hal_cpu_ints_enable, .-hal_cpu_ints_enable
  27              		.align	2
  28 0034 1F2003D5 		.p2align 4,,15
  28      1F2003D5 
  28      1F2003D5 
  29              		.global	hal_cpu_ints_disable
  30              		.type	hal_cpu_ints_disable, %function
  31              	hal_cpu_ints_disable:
  32 0040 00000014 		b	DisableInterrupts
  33              		.size	hal_cpu_ints_disable, .-hal_cpu_ints_disable
  34              		.align	2
  35 0044 1F2003D5 		.p2align 4,,15
  35      1F2003D5 
  35      1F2003D5 
  36              		.global	hal_cpu_thread_start
  37              		.type	hal_cpu_thread_start, %function
  38              	hal_cpu_thread_start:
  39 0050 00000014 		b	CoreExecute
  40              		.size	hal_cpu_thread_start, .-hal_cpu_thread_start
  41              		.align	2
  42 0054 1F2003D5 		.p2align 4,,15
  42      1F2003D5 
  42      1F2003D5 
  43              		.global	hal_cpu_svc_start
  44              		.type	hal_cpu_svc_start, %function
  45              	hal_cpu_svc_start:
  46 0060 01000090 		adrp	x1, svc_callback
  47 0064 200000F9 		str	x0, [x1, #:lo12:svc_callback]
  48 0068 C0035FD6 		ret
  49              		.size	hal_cpu_svc_start, .-hal_cpu_svc_start
  50              		.align	2
AARCH64 GAS  C:\Users\A01169~1\AppData\Local\Temp\ccRWduX2.s 			page 2


  51 006c 1F2003D5 		.p2align 4,,15
  52              		.global	hal_cpu_delay
  53              		.type	hal_cpu_delay, %function
  54              	hal_cpu_delay:
  55 0070 017D8052 		mov	w1, 1000
  56 0074 007C011B 		mul	w0, w0, w1
  57 0078 00000014 		b	delays_wait_microsecs
  58              		.size	hal_cpu_delay, .-hal_cpu_delay
  59              		.comm	svc_callback,8,8
  60              		.ident	"GCC: (GNU Toolchain for the A-profile Architecture 8.3-2019.03 (arm-rel-8.36)) 8.3.0"
AARCH64 GAS  C:\Users\A01169~1\AppData\Local\Temp\ccRWduX2.s 			page 3


DEFINED SYMBOLS
                            *ABS*:0000000000000000 hal_cpu.c
C:\Users\A01169~1\AppData\Local\Temp\ccRWduX2.s:4      .text:0000000000000000 $x
C:\Users\A01169~1\AppData\Local\Temp\ccRWduX2.s:8      .text:0000000000000000 hal_cpu_init
C:\Users\A01169~1\AppData\Local\Temp\ccRWduX2.s:24     .text:0000000000000030 hal_cpu_ints_enable
C:\Users\A01169~1\AppData\Local\Temp\ccRWduX2.s:31     .text:0000000000000040 hal_cpu_ints_disable
C:\Users\A01169~1\AppData\Local\Temp\ccRWduX2.s:38     .text:0000000000000050 hal_cpu_thread_start
C:\Users\A01169~1\AppData\Local\Temp\ccRWduX2.s:45     .text:0000000000000060 hal_cpu_svc_start
                            *COM*:0000000000000008 svc_callback
C:\Users\A01169~1\AppData\Local\Temp\ccRWduX2.s:54     .text:0000000000000070 hal_cpu_delay

UNDEFINED SYMBOLS
RPi_CpuIdString
RPi_CoresReady
EnableInterrupts
DisableInterrupts
CoreExecute
delays_wait_microsecs
AARCH64 GAS  C:\Users\A01169~1\AppData\Local\Temp\ccRWduX2.s 			page 1


   1              	# 1 "src/hal/hal_cpu.S"
   1              	
   0              	
   0              	
   2              	.section .text
   3              	.align 2
   4              	
   5              	//SVC Handler
   6              	.global hal_synchronous_handler
   7              	hal_synchronous_handler:
   8 0000 FD7BBFA9 		stp	x29, x30, [sp, #-16]!
   9 0004 FB73BFA9 		stp	x27, x28, [sp, #-16]!
  10 0008 F96BBFA9 		stp	x25, x26, [sp, #-16]!
  11 000c F763BFA9 		stp	x23, x24, [sp, #-16]!
  12 0010 F55BBFA9 		stp	x21, x22, [sp, #-16]!
  13 0014 F353BFA9 		stp	x19, x20, [sp, #-16]!
  14 0018 F14BBFA9 		stp	x17, x18, [sp, #-16]!
  15 001c EF43BFA9 		stp	x15, x16, [sp, #-16]!
  16 0020 ED3BBFA9 		stp	x13, x14, [sp, #-16]!
  17 0024 EB33BFA9 		stp	x11, x12, [sp, #-16]!
  18 0028 E92BBFA9 		stp	x9, x10, [sp, #-16]!
  19 002c E723BFA9 		stp	x7, x8, [sp, #-16]!
  20 0030 E51BBFA9 		stp	x5, x6, [sp, #-16]!
  21 0034 E313BFA9 		stp	x3, x4, [sp, #-16]!
  22 0038 E10BBFA9 		stp	x1, x2, [sp, #-16]!
  23 003c E00F1FF8 		str	x0, [sp, #-16]!
  24              	
  25 0040 85020058 		ldr x5, =svc_callback
  26 0044 A50040F9 		ldr x5, [x5]
  27 0048 A0003FD6 		blr x5
  28              	
  29 004c E00741F8 		ldr	x0, [sp], #16
  30 0050 E10BC1A8 		ldp	x1, x2, [sp], #16
  31 0054 E313C1A8 		ldp	x3, x4, [sp], #16
  32 0058 E51BC1A8 		ldp	x5, x6, [sp], #16
  33 005c E723C1A8 		ldp	x7, x8, [sp], #16
  34 0060 E92BC1A8 		ldp	x9, x10, [sp], #16
  35 0064 EB33C1A8 		ldp	x11, x12, [sp], #16
  36 0068 ED3BC1A8 		ldp	x13, x14, [sp], #16
  37 006c EF43C1A8 		ldp	x15, x16, [sp], #16
  38 0070 F14BC1A8 		ldp	x17, x18, [sp], #16
  39 0074 F353C1A8 		ldp	x19, x20, [sp], #16
  40 0078 F55BC1A8 		ldp	x21, x22, [sp], #16
  41 007c F763C1A8 		ldp	x23, x24, [sp], #16
  42 0080 F96BC1A8 		ldp	x25, x26, [sp], #16
  43 0084 FB73C1A8 		ldp	x27, x28, [sp], #16
  44 0088 FD7BC1A8 		ldp	x29, x30, [sp], #16
  45              	
  46 008c E0039FD6 		eret
  46      00000000 
  46      00000000 
AARCH64 GAS  C:\Users\A01169~1\AppData\Local\Temp\ccRWduX2.s 			page 2


DEFINED SYMBOLS
   src/hal/hal_cpu.S:3      .text:0000000000000000 $x
   src/hal/hal_cpu.S:7      .text:0000000000000000 hal_synchronous_handler
   src/hal/hal_cpu.S:46     .text:0000000000000090 $d

UNDEFINED SYMBOLS
svc_callback
AARCH64 GAS  C:\Users\A01169~1\AppData\Local\Temp\ccRWduX2.s 			page 1


   1              		.arch armv8-a
   2              		.file	"hal_io.c"
   3              		.text
   4              		.align	2
   5              		.p2align 4,,15
   6              		.global	hal_io_serial_init
   7              		.type	hal_io_serial_init, %function
   8              	hal_io_serial_init:
   9 0000 FE0F1FF8 		str	x30, [sp, -16]!
  10 0004 00000094 		bl	uart0_init
  11 0008 00008052 		mov	w0, 0
  12 000c FE0741F8 		ldr	x30, [sp], 16
  13 0010 C0035FD6 		ret
  14              		.size	hal_io_serial_init, .-hal_io_serial_init
  15              		.align	2
  16 0014 1F2003D5 		.p2align 4,,15
  16      1F2003D5 
  16      1F2003D5 
  17              		.global	hal_io_serial_hex_dump_512_bytes
  18              		.type	hal_io_serial_hex_dump_512_bytes, %function
  19              	hal_io_serial_hex_dump_512_bytes:
  20 0020 E00301AA 		mov	x0, x1
  21 0024 00000014 		b	uart0_dump
  22              		.size	hal_io_serial_hex_dump_512_bytes, .-hal_io_serial_hex_dump_512_bytes
  23              		.align	2
  24 0028 1F2003D5 		.p2align 4,,15
  24      1F2003D5 
  25              		.global	hal_io_serial_puthex_64_bits
  26              		.type	hal_io_serial_puthex_64_bits, %function
  27              	hal_io_serial_puthex_64_bits:
  28 0030 E00301AA 		mov	x0, x1
  29 0034 00000014 		b	uart0_puthex_64_bits
  30              		.size	hal_io_serial_puthex_64_bits, .-hal_io_serial_puthex_64_bits
  31              		.align	2
  32 0038 1F2003D5 		.p2align 4,,15
  32      1F2003D5 
  33              		.global	hal_io_serial_puts
  34              		.type	hal_io_serial_puts, %function
  35              	hal_io_serial_puts:
  36 0040 F353BEA9 		stp	x19, x20, [sp, -32]!
  37 0044 F30301AA 		mov	x19, x1
  38 0048 FE0B00F9 		str	x30, [sp, 16]
  39 004c 20020034 		cbz	w0, .L7
  40              		.p2align 3
  41              	.L10:
  42 0050 60024039 		ldrb	w0, [x19]
  43 0054 73060091 		add	x19, x19, 1
  44 0058 1F280071 		cmp	w0, 10
  45 005c 00010034 		cbz	w0, .L6
  46              	.L18:
  47 0060 81FFFF54 		bne	.L10
  48 0064 A0018052 		mov	w0, 13
  49 0068 00000094 		bl	uart0_putc
  50 006c 60024039 		ldrb	w0, [x19]
  51 0070 73060091 		add	x19, x19, 1
  52 0074 1F280071 		cmp	w0, 10
  53 0078 40FFFF35 		cbnz	w0, .L18
AARCH64 GAS  C:\Users\A01169~1\AppData\Local\Temp\ccRWduX2.s 			page 2


  54              	.L6:
  55 007c FE0B40F9 		ldr	x30, [sp, 16]
  56 0080 F353C2A8 		ldp	x19, x20, [sp], 32
  57 0084 C0035FD6 		ret
  58              		.p2align 2
  59              	.L19:
  60 0088 A0018052 		mov	w0, 13
  61 008c 00000094 		bl	uart0_putc
  62              		.p2align 3
  63              	.L7:
  64 0090 74024039 		ldrb	w20, [x19]
  65 0094 73060091 		add	x19, x19, 1
  66 0098 E003142A 		mov	w0, w20
  67 009c 14FFFF34 		cbz	w20, .L6
  68 00a0 00000094 		bl	uart0_putc
  69 00a4 9F2A0071 		cmp	w20, 10
  70 00a8 41FFFF54 		bne	.L7
  71 00ac F7FFFF17 		b	.L19
  72              		.size	hal_io_serial_puts, .-hal_io_serial_puts
  73              		.align	2
  74              		.p2align 4,,15
  75              		.global	hal_io_serial_putc
  76              		.type	hal_io_serial_putc, %function
  77              	hal_io_serial_putc:
  78 00b0 F37BBFA9 		stp	x19, x30, [sp, -16]!
  79 00b4 331C0012 		and	w19, w1, 255
  80 00b8 A0000034 		cbz	w0, .L24
  81 00bc 7F2A0071 		cmp	w19, 10
  82 00c0 E0000054 		beq	.L25
  83              	.L20:
  84 00c4 F37BC1A8 		ldp	x19, x30, [sp], 16
  85 00c8 C0035FD6 		ret
  86              		.p2align 2
  87              	.L24:
  88 00cc E003132A 		mov	w0, w19
  89 00d0 00000094 		bl	uart0_putc
  90 00d4 7F2A0071 		cmp	w19, 10
  91 00d8 61FFFF54 		bne	.L20
  92              	.L25:
  93 00dc F37BC1A8 		ldp	x19, x30, [sp], 16
  94 00e0 A0018052 		mov	w0, 13
  95 00e4 00000014 		b	uart0_putc
  96              		.size	hal_io_serial_putc, .-hal_io_serial_putc
  97              		.align	2
  98 00e8 1F2003D5 		.p2align 4,,15
  98      1F2003D5 
  99              		.global	hal_io_serial_getc
 100              		.type	hal_io_serial_getc, %function
 101              	hal_io_serial_getc:
 102 00f0 60000034 		cbz	w0, .L27
 103 00f4 00008052 		mov	w0, 0
 104 00f8 C0035FD6 		ret
 105              		.p2align 2
 106              	.L27:
 107 00fc 00000014 		b	uart0_getc
 108              		.size	hal_io_serial_getc, .-hal_io_serial_getc
 109              		.align	2
AARCH64 GAS  C:\Users\A01169~1\AppData\Local\Temp\ccRWduX2.s 			page 3


 110              		.p2align 4,,15
 111              		.global	hal_io_serial_nonblocking_getc
 112              		.type	hal_io_serial_nonblocking_getc, %function
 113              	hal_io_serial_nonblocking_getc:
 114 0100 60000034 		cbz	w0, .L33
 115 0104 00008052 		mov	w0, 0
 116 0108 C0035FD6 		ret
 117              		.p2align 2
 118              	.L33:
 119 010c E00301AA 		mov	x0, x1
 120 0110 00000014 		b	uart0_nonblocking_getc
 121              		.size	hal_io_serial_nonblocking_getc, .-hal_io_serial_nonblocking_getc
 122              		.ident	"GCC: (GNU Toolchain for the A-profile Architecture 8.3-2019.03 (arm-rel-8.36)) 8.3.0"
AARCH64 GAS  C:\Users\A01169~1\AppData\Local\Temp\ccRWduX2.s 			page 4


DEFINED SYMBOLS
                            *ABS*:0000000000000000 hal_io.c
C:\Users\A01169~1\AppData\Local\Temp\ccRWduX2.s:4      .text:0000000000000000 $x
C:\Users\A01169~1\AppData\Local\Temp\ccRWduX2.s:8      .text:0000000000000000 hal_io_serial_init
C:\Users\A01169~1\AppData\Local\Temp\ccRWduX2.s:19     .text:0000000000000020 hal_io_serial_hex_dump_512_bytes
C:\Users\A01169~1\AppData\Local\Temp\ccRWduX2.s:27     .text:0000000000000030 hal_io_serial_puthex_64_bits
C:\Users\A01169~1\AppData\Local\Temp\ccRWduX2.s:35     .text:0000000000000040 hal_io_serial_puts
C:\Users\A01169~1\AppData\Local\Temp\ccRWduX2.s:77     .text:00000000000000b0 hal_io_serial_putc
C:\Users\A01169~1\AppData\Local\Temp\ccRWduX2.s:101    .text:00000000000000f0 hal_io_serial_getc
C:\Users\A01169~1\AppData\Local\Temp\ccRWduX2.s:113    .text:0000000000000100 hal_io_serial_nonblocking_getc

UNDEFINED SYMBOLS
uart0_init
uart0_dump
uart0_puthex_64_bits
uart0_putc
uart0_getc
uart0_nonblocking_getc
AARCH64 GAS  C:\Users\A01169~1\AppData\Local\Temp\ccRWduX2.s 			page 1


   1              		.arch armv8-a
   2              		.file	"hal_sd_card.c"
   3              		.text
   4              		.align	2
   5              		.p2align 4,,15
   6              		.global	hal_sd_card_init
   7              		.type	hal_sd_card_init, %function
   8              	hal_sd_card_init:
   9 0000 FE0F1FF8 		str	x30, [sp, -16]!
  10 0004 00000094 		bl	sd_init
  11 0008 1F000071 		cmp	w0, 0
  12 000c E0079F1A 		cset	w0, ne
  13 0010 FE0741F8 		ldr	x30, [sp], 16
  14 0014 C0035FD6 		ret
  15              		.size	hal_sd_card_init, .-hal_sd_card_init
  16              		.align	2
  17 0018 1F2003D5 		.p2align 4,,15
  17      1F2003D5 
  18              		.global	hal_sd_card_read_block
  19              		.type	hal_sd_card_read_block, %function
  20              	hal_sd_card_read_block:
  21 0020 E303012A 		mov	w3, w1
  22 0024 E10300AA 		mov	x1, x0
  23 0028 E003032A 		mov	w0, w3
  24 002c 00000014 		b	sd_readblock
  25              		.size	hal_sd_card_read_block, .-hal_sd_card_read_block
  26              		.ident	"GCC: (GNU Toolchain for the A-profile Architecture 8.3-2019.03 (arm-rel-8.36)) 8.3.0"
AARCH64 GAS  C:\Users\A01169~1\AppData\Local\Temp\ccRWduX2.s 			page 2


DEFINED SYMBOLS
                            *ABS*:0000000000000000 hal_sd_card.c
C:\Users\A01169~1\AppData\Local\Temp\ccRWduX2.s:4      .text:0000000000000000 $x
C:\Users\A01169~1\AppData\Local\Temp\ccRWduX2.s:8      .text:0000000000000000 hal_sd_card_init
C:\Users\A01169~1\AppData\Local\Temp\ccRWduX2.s:20     .text:0000000000000020 hal_sd_card_read_block

UNDEFINED SYMBOLS
sd_init
sd_readblock
AARCH64 GAS  C:\Users\A01169~1\AppData\Local\Temp\ccRWduX2.s 			page 1


   1              		.arch armv8-a
   2              		.file	"hal_video.c"
   3              		.text
   4              		.align	2
   5              		.p2align 4,,15
   6              		.type	draw_character_raw, %function
   7              	draw_character_raw:
   8 0000 450040B9 		ldr	w5, [x2]
   9 0004 A5080034 		cbz	w5, .L20
  10 0008 F353BEA9 		stp	x19, x20, [sp, -32]!
  11 000c 05000090 		adrp	x5, fb
  12 0010 B20040F9 		ldr	x18, [x5, #:lo12:fb]
  13 0014 4E100091 		add	x14, x2, 4
  14 0018 10008052 		mov	w16, 0
  15 001c 0F008012 		mov	w15, -1
  16 0020 11A08052 		mov	w17, 1280
  17 0024 FE0B00F9 		str	x30, [sp, 16]
  18              		.p2align 3
  19              	.L13:
  20 0028 C5194029 		ldp	w5, w6, [x14]
  21 002c CC1D4129 		ldp	w12, w7, [x14, 8]
  22 0030 8801054B 		sub	w8, w12, w5
  23 0034 AA000C4B 		sub	w10, w5, w12
  24 0038 E900064B 		sub	w9, w7, w6
  25 003c CB00074B 		sub	w11, w6, w7
  26 0040 A500031B 		madd	w5, w5, w3, w0
  27 0044 087D031B 		mul	w8, w8, w3
  28 0048 4A7D031B 		mul	w10, w10, w3
  29 004c 8D01031B 		madd	w13, w12, w3, w0
  30 0050 1F010071 		cmp	w8, 0
  31 0054 297D031B 		mul	w9, w9, w3
  32 0058 48B1881A 		csel	w8, w10, w8, lt
  33 005c 6B7D031B 		mul	w11, w11, w3
  34 0060 BF000D6B 		cmp	w5, w13
  35 0064 C604031B 		madd	w6, w6, w3, w1
  36 0068 FEA58F5A 		csneg	w30, w15, w15, ge
  37 006c EA04031B 		madd	w10, w7, w3, w1
  38 0070 3F010071 		cmp	w9, 0
  39 0074 69B1891A 		csel	w9, w11, w9, lt
  40 0078 DF000A6B 		cmp	w6, w10
  41 007c F3A58F5A 		csneg	w19, w15, w15, ge
  42 0080 1F01096B 		cmp	w8, w9
  43 0084 4C040054 		bgt	.L7
  44 0088 E703094B 		neg	w7, w9
  45 008c E77C470B 		add	w7, w7, w7, lsr 31
  46 0090 E77C0113 		asr	w7, w7, 1
  47              	.L9:
  48 0094 CC14111B 		madd	w12, w6, w17, w5
  49 0098 BF01056B 		cmp	w13, w5
  50 009c F403084B 		neg	w20, w8
  51 00a0 4001467A 		ccmp	w10, w6, 0, eq
  52 00a4 EB03072A 		mov	w11, w7
  53 00a8 447A2CB8 		str	w4, [x18, x12, lsl 2]
  54 00ac 00020054 		beq	.L10
  55              		.p2align 3
  56              	.L24:
  57 00b0 9F02076B 		cmp	w20, w7
AARCH64 GAS  C:\Users\A01169~1\AppData\Local\Temp\ccRWduX2.s 			page 2


  58 00b4 6A000054 		bge	.L11
  59 00b8 A5001E0B 		add	w5, w5, w30
  60 00bc EB00094B 		sub	w11, w7, w9
  61              	.L11:
  62 00c0 3F01076B 		cmp	w9, w7
  63 00c4 6D000054 		ble	.L12
  64 00c8 6B01080B 		add	w11, w11, w8
  65 00cc C600130B 		add	w6, w6, w19
  66              	.L12:
  67 00d0 CC14111B 		madd	w12, w6, w17, w5
  68 00d4 E7030B2A 		mov	w7, w11
  69 00d8 BF01056B 		cmp	w13, w5
  70 00dc EB03072A 		mov	w11, w7
  71 00e0 4001467A 		ccmp	w10, w6, 0, eq
  72 00e4 447A2CB8 		str	w4, [x18, x12, lsl 2]
  73 00e8 41FEFF54 		bne	.L24
  74              	.L10:
  75 00ec 450040B9 		ldr	w5, [x2]
  76 00f0 10060011 		add	w16, w16, 1
  77 00f4 CE410091 		add	x14, x14, 16
  78 00f8 BF00106B 		cmp	w5, w16
  79 00fc 68F9FF54 		bhi	.L13
  80 0100 FE0B40F9 		ldr	x30, [sp, 16]
  81 0104 F353C2A8 		ldp	x19, x20, [sp], 32
  82 0108 C0035FD6 		ret
  83              		.p2align 2
  84              	.L7:
  85 010c 077D480B 		add	w7, w8, w8, lsr 31
  86 0110 E77C0113 		asr	w7, w7, 1
  87 0114 E0FFFF17 		b	.L9
  88              		.p2align 2
  89              	.L20:
  90 0118 C0035FD6 		ret
  91              		.size	draw_character_raw, .-draw_character_raw
  92              		.align	2
  93 011c 1F2003D5 		.p2align 4,,15
  94              		.global	hal_video_init
  95              		.type	hal_video_init, %function
  96              	hal_video_init:
  97 0120 FE0F1FF8 		str	x30, [sp, -16]!
  98 0124 00000094 		bl	fb_init
  99 0128 E10300AA 		mov	x1, x0
 100 012c 02000090 		adrp	x2, fb
 101 0130 400000F9 		str	x0, [x2, #:lo12:fb]
 102 0134 20008052 		mov	w0, 1
 103 0138 610000B4 		cbz	x1, .L25
 104 013c 00000094 		bl	fonts_init
 105 0140 00008052 		mov	w0, 0
 106              	.L25:
 107 0144 FE0741F8 		ldr	x30, [sp], 16
 108 0148 C0035FD6 		ret
 109              		.size	hal_video_init, .-hal_video_init
 110              		.align	2
 111 014c 1F2003D5 		.p2align 4,,15
 112              		.global	hal_io_video_draw_image
 113              		.type	hal_io_video_draw_image, %function
 114              	hal_io_video_draw_image:
AARCH64 GAS  C:\Users\A01169~1\AppData\Local\Temp\ccRWduX2.s 			page 3


 115 0150 0F000090 		adrp	x15, .LANCHOR0
 116 0154 E9010091 		add	x9, x15, :lo12:.LANCHOR0
 117 0158 4A7C011B 		mul	w10, w2, w1
 118 015c FF0100B9 		str	wzr, [x15, #:lo12:.LANCHOR0]
 119 0160 260540B9 		ldr	w6, [x9, 4]
 120 0164 4A050A0B 		add	w10, w10, w10, lsl 1
 121 0168 C6280011 		add	w6, w6, 10
 122 016c 4AD90011 		add	w10, w10, 54
 123 0170 C600020B 		add	w6, w6, w2
 124 0174 260500B9 		str	w6, [x9, 4]
 125 0178 5FD90071 		cmp	w10, 54
 126 017c 69040054 		bls	.L32
 127 0180 03000090 		adrp	x3, fb
 128 0184 6E0040F9 		ldr	x14, [x3, #:lo12:fb]
 129 0188 C40680D2 		mov	x4, 54
 130 018c 05008052 		mov	w5, 0
 131 0190 0DE0BF52 		mov	w13, -16777216
 132 0194 0CA08052 		mov	w12, 1280
 133 0198 07000014 		b	.L36
 134              		.p2align 2
 135              	.L38:
 136 019c C6040051 		sub	w6, w6, #1
 137 01a0 3F190029 		stp	wzr, w6, [x9]
 138 01a4 840C0091 		add	x4, x4, 3
 139 01a8 05008052 		mov	w5, 0
 140 01ac 5F01046B 		cmp	w10, w4
 141 01b0 C9020054 		bls	.L32
 142              	.L36:
 143 01b4 83040011 		add	w3, w4, 1
 144 01b8 87080011 		add	w7, w4, 2
 145 01bc 08686438 		ldrb	w8, [x0, x4]
 146 01c0 CB140C1B 		madd	w11, w6, w12, w5
 147 01c4 03486338 		ldrb	w3, [x0, w3, uxtw]
 148 01c8 07486738 		ldrb	w7, [x0, w7, uxtw]
 149 01cc 083D1053 		lsl	w8, w8, 16
 150 01d0 0321032A 		orr	w3, w8, w3, lsl 8
 151 01d4 E71C0832 		orr	w7, w7, -16777216
 152 01d8 6300072A 		orr	w3, w3, w7
 153 01dc 7F000D6B 		cmp	w3, w13
 154 01e0 60000054 		beq	.L33
 155 01e4 C3792BB8 		str	w3, [x14, x11, lsl 2]
 156 01e8 25194029 		ldp	w5, w6, [x9]
 157              	.L33:
 158 01ec 3F00056B 		cmp	w1, w5
 159 01f0 A5040011 		add	w5, w5, 1
 160 01f4 49FDFF54 		bls	.L38
 161 01f8 250100B9 		str	w5, [x9]
 162 01fc 840C0091 		add	x4, x4, 3
 163 0200 5F01046B 		cmp	w10, w4
 164 0204 88FDFF54 		bhi	.L36
 165              	.L32:
 166 0208 4200060B 		add	w2, w2, w6
 167 020c 80008052 		mov	w0, 4
 168 0210 E00100B9 		str	w0, [x15, #:lo12:.LANCHOR0]
 169 0214 220500B9 		str	w2, [x9, 4]
 170 0218 C0035FD6 		ret
 171              		.size	hal_io_video_draw_image, .-hal_io_video_draw_image
AARCH64 GAS  C:\Users\A01169~1\AppData\Local\Temp\ccRWduX2.s 			page 4


 172              		.align	2
 173 021c 1F2003D5 		.p2align 4,,15
 174              		.global	hal_video_putc
 175              		.type	hal_video_putc, %function
 176              	hal_video_putc:
 177 0220 F353BCA9 		stp	x19, x20, [sp, -64]!
 178 0224 F403012A 		mov	w20, w1
 179 0228 F55B01A9 		stp	x21, x22, [sp, 16]
 180 022c 161C0012 		and	w22, w0, 255
 181 0230 DF2A0071 		cmp	w22, 10
 182 0234 FE1700F9 		str	x30, [sp, 40]
 183 0238 00040054 		beq	.L55
 184 023c DF360071 		cmp	w22, 13
 185 0240 00070054 		beq	.L56
 186 0244 60008012 		mov	w0, -4
 187 0248 13000090 		adrp	x19, .LANCHOR0
 188 024c 750240B9 		ldr	w21, [x19, #:lo12:.LANCHOR0]
 189 0250 207C001B 		mul	w0, w1, w0
 190 0254 F71300F9 		str	x23, [sp, 32]
 191 0258 F703022A 		mov	w23, w2
 192 025c 00F41311 		add	w0, w0, 1277
 193 0260 1F00156B 		cmp	w0, w21
 194 0264 E9040054 		bls	.L57
 195              	.L49:
 196 0268 61020091 		add	x1, x19, :lo12:.LANCHOR0
 197 026c E003162A 		mov	w0, w22
 198 0270 210440B9 		ldr	w1, [x1, 4]
 199 0274 E13F00B9 		str	w1, [sp, 60]
 200 0278 00000094 		bl	fonts_char_to_font
 201 027c E20300AA 		mov	x2, x0
 202 0280 E13F40B9 		ldr	w1, [sp, 60]
 203 0284 E403172A 		mov	w4, w23
 204 0288 E303142A 		mov	w3, w20
 205 028c E003152A 		mov	w0, w21
 206 0290 5CFFFF97 		bl	draw_character_raw
 207 0294 600240B9 		ldr	w0, [x19, #:lo12:.LANCHOR0]
 208 0298 F55B41A9 		ldp	x21, x22, [sp, 16]
 209 029c 000C0011 		add	w0, w0, 3
 210 02a0 1408140B 		add	w20, w0, w20, lsl 2
 211 02a4 740200B9 		str	w20, [x19, #:lo12:.LANCHOR0]
 212 02a8 F71340F9 		ldr	x23, [sp, 32]
 213 02ac FE1740F9 		ldr	x30, [sp, 40]
 214 02b0 F353C4A8 		ldp	x19, x20, [sp], 64
 215 02b4 C0035FD6 		ret
 216              	.L55:
 217 02b8 13000090 		adrp	x19, .LANCHOR0
 218 02bc 75020091 		add	x21, x19, :lo12:.LANCHOR0
 219 02c0 005C8052 		mov	w0, 736
 220 02c4 61018052 		mov	w1, 11
 221 02c8 8182011B 		msub	w1, w20, w1, w0
 222 02cc A00640B9 		ldr	w0, [x21, 4]
 223 02d0 3F00006B 		cmp	w1, w0
 224 02d4 49030054 		bls	.L58
 225 02d8 00140011 		add	w0, w0, 5
 226 02dc C1008052 		mov	w1, 6
 227 02e0 82008052 		mov	w2, 4
 228 02e4 620200B9 		str	w2, [x19, #:lo12:.LANCHOR0]
AARCH64 GAS  C:\Users\A01169~1\AppData\Local\Temp\ccRWduX2.s 			page 5


 229 02e8 FE1740F9 		ldr	x30, [sp, 40]
 230 02ec 8002011B 		madd	w0, w20, w1, w0
 231 02f0 A00600B9 		str	w0, [x21, 4]
 232 02f4 F55B41A9 		ldp	x21, x22, [sp, 16]
 233 02f8 F353C4A8 		ldp	x19, x20, [sp], 64
 234 02fc C0035FD6 		ret
 235              	.L57:
 236 0300 A0018052 		mov	w0, 13
 237 0304 00000094 		bl	hal_video_putc
 238 0308 E203172A 		mov	w2, w23
 239 030c E103142A 		mov	w1, w20
 240 0310 40018052 		mov	w0, 10
 241 0314 00000094 		bl	hal_video_putc
 242 0318 750240B9 		ldr	w21, [x19, #:lo12:.LANCHOR0]
 243 031c D3FFFF17 		b	.L49
 244              	.L56:
 245 0320 00000090 		adrp	x0, .LANCHOR0
 246 0324 81008052 		mov	w1, 4
 247 0328 F55B41A9 		ldp	x21, x22, [sp, 16]
 248 032c 010000B9 		str	w1, [x0, #:lo12:.LANCHOR0]
 249 0330 FE1740F9 		ldr	x30, [sp, 40]
 250 0334 F353C4A8 		ldp	x19, x20, [sp], 64
 251 0338 C0035FD6 		ret
 252              	.L58:
 253 033c B40640F9 		ldr	x20, [x21, 8]
 254 0340 96758052 		mov	w22, 940
 255 0344 80024039 		ldrb	w0, [x20]
 256 0348 60010034 		cbz	w0, .L44
 257              	.L42:
 258 034c 00000094 		bl	fonts_char_to_font
 259 0350 E20300AA 		mov	x2, x0
 260 0354 E41F8052 		mov	w4, 255
 261 0358 E003162A 		mov	w0, w22
 262 035c 43008052 		mov	w3, 2
 263 0360 415D8052 		mov	w1, 746
 264 0364 27FFFF97 		bl	draw_character_raw
 265 0368 D62E0011 		add	w22, w22, 11
 266 036c 801E4038 		ldrb	w0, [x20, 1]!
 267 0370 E0FEFF35 		cbnz	w0, .L42
 268              	.L44:
 269 0374 00008052 		mov	w0, 0
 270 0378 00000094 		bl	hal_io_serial_getc
 271 037c 00000090 		adrp	x0, fb
 272 0380 030040F9 		ldr	x3, [x0, #:lo12:fb]
 273 0384 018082D2 		mov	x1, 5120
 274 0388 E40301AA 		mov	x4, x1
 275 038c 82848452 		mov	w2, 9252
 276 0390 6204A072 		movk	w2, 0x23, lsl 16
 277 0394 6100018B 		add	x1, x3, x1
 278 0398 63044F91 		add	x3, x3, 3936256
 279 039c E57F8292 		mov	x5, -5120
 280 03a0 63001091 		add	x3, x3, 1024
 281              	.L43:
 282 03a4 2000058B 		add	x0, x1, x5
 283              		.p2align 3
 284              	.L45:
 285 03a8 024400B8 		str	w2, [x0], 4
AARCH64 GAS  C:\Users\A01169~1\AppData\Local\Temp\ccRWduX2.s 			page 6


 286 03ac 1F0001EB 		cmp	x0, x1
 287 03b0 C1FFFF54 		bne	.L45
 288 03b4 0100048B 		add	x1, x0, x4
 289 03b8 7F0001EB 		cmp	x3, x1
 290 03bc 41FFFF54 		bne	.L43
 291 03c0 81008052 		mov	w1, 4
 292 03c4 40028052 		mov	w0, 18
 293 03c8 610200B9 		str	w1, [x19, #:lo12:.LANCHOR0]
 294 03cc A00600B9 		str	w0, [x21, 4]
 295 03d0 F55B41A9 		ldp	x21, x22, [sp, 16]
 296 03d4 FE1740F9 		ldr	x30, [sp, 40]
 297 03d8 F353C4A8 		ldp	x19, x20, [sp], 64
 298 03dc C0035FD6 		ret
 299              		.size	hal_video_putc, .-hal_video_putc
 300              		.align	2
 301              		.p2align 4,,15
 302              		.global	hal_video_puts
 303              		.type	hal_video_puts, %function
 304              	hal_video_puts:
 305 03e0 F353B9A9 		stp	x19, x20, [sp, -112]!
 306 03e4 F403012A 		mov	w20, w1
 307 03e8 015C8052 		mov	w1, 736
 308 03ec F55B01A9 		stp	x21, x22, [sp, 16]
 309 03f0 76008012 		mov	w22, -4
 310 03f4 F30300AA 		mov	x19, x0
 311 03f8 F76302A9 		stp	x23, x24, [sp, 32]
 312 03fc 78018052 		mov	w24, 11
 313 0400 967E161B 		mul	w22, w20, w22
 314 0404 F96B03A9 		stp	x25, x26, [sp, 48]
 315 0408 DA008052 		mov	w26, 6
 316 040c 9886181B 		msub	w24, w20, w24, w1
 317 0410 807E1A1B 		mul	w0, w20, w26
 318 0414 99761E53 		lsl	w25, w20, 2
 319 0418 D6F61311 		add	w22, w22, 1277
 320 041c FB7304A9 		stp	x27, x28, [sp, 64]
 321 0420 1C000090 		adrp	x28, .LANCHOR0
 322 0424 9C030091 		add	x28, x28, :lo12:.LANCHOR0
 323 0428 95848452 		mov	w21, 9252
 324 042c 7504A072 		movk	w21, 0x23, lsl 16
 325 0430 97008052 		mov	w23, 4
 326 0434 FE2B00F9 		str	x30, [sp, 80]
 327 0438 E82F00FD 		str	d8, [sp, 88]
 328 043c 4800271E 		fmov	s8, w2
 329 0440 E06F00B9 		str	w0, [sp, 108]
 330              	.L60:
 331 0444 7B024039 		ldrb	w27, [x19]
 332 0448 3B030034 		cbz	w27, .L77
 333              	.L71:
 334 044c 73060091 		add	x19, x19, 1
 335 0450 7F2B0071 		cmp	w27, 10
 336 0454 C0030054 		beq	.L78
 337 0458 7F370071 		cmp	w27, 13
 338 045c 60050054 		beq	.L79
 339 0460 9A0340B9 		ldr	w26, [x28]
 340 0464 DF021A6B 		cmp	w22, w26
 341 0468 29040054 		bls	.L80
 342              	.L70:
AARCH64 GAS  C:\Users\A01169~1\AppData\Local\Temp\ccRWduX2.s 			page 7


 343 046c 810740B9 		ldr	w1, [x28, 4]
 344 0470 E0031B2A 		mov	w0, w27
 345 0474 E16B00B9 		str	w1, [sp, 104]
 346 0478 00000094 		bl	fonts_char_to_font
 347 047c 0401261E 		fmov	w4, s8
 348 0480 E16B40B9 		ldr	w1, [sp, 104]
 349 0484 E20300AA 		mov	x2, x0
 350 0488 E303142A 		mov	w3, w20
 351 048c E0031A2A 		mov	w0, w26
 352 0490 DCFEFF97 		bl	draw_character_raw
 353 0494 800340B9 		ldr	w0, [x28]
 354 0498 000C0011 		add	w0, w0, 3
 355 049c 0000190B 		add	w0, w0, w25
 356 04a0 800300B9 		str	w0, [x28]
 357 04a4 7B024039 		ldrb	w27, [x19]
 358 04a8 3BFDFF35 		cbnz	w27, .L71
 359              	.L77:
 360 04ac F55B41A9 		ldp	x21, x22, [sp, 16]
 361 04b0 F76342A9 		ldp	x23, x24, [sp, 32]
 362 04b4 F96B43A9 		ldp	x25, x26, [sp, 48]
 363 04b8 FB7344A9 		ldp	x27, x28, [sp, 64]
 364 04bc FE2B40F9 		ldr	x30, [sp, 80]
 365 04c0 E82F40FD 		ldr	d8, [sp, 88]
 366 04c4 F353C7A8 		ldp	x19, x20, [sp], 112
 367 04c8 C0035FD6 		ret
 368              		.p2align 2
 369              	.L78:
 370 04cc 800740B9 		ldr	w0, [x28, 4]
 371 04d0 1F03006B 		cmp	w24, w0
 372 04d4 E9010054 		bls	.L81
 373 04d8 E16F40B9 		ldr	w1, [sp, 108]
 374 04dc 00140011 		add	w0, w0, 5
 375 04e0 0000010B 		add	w0, w0, w1
 376 04e4 97030029 		stp	w23, w0, [x28]
 377 04e8 D7FFFF17 		b	.L60
 378              		.p2align 2
 379              	.L80:
 380 04ec 0201261E 		fmov	w2, s8
 381 04f0 E103142A 		mov	w1, w20
 382 04f4 40018052 		mov	w0, 10
 383 04f8 970300B9 		str	w23, [x28]
 384 04fc 00000094 		bl	hal_video_putc
 385 0500 9A0340B9 		ldr	w26, [x28]
 386 0504 DAFFFF17 		b	.L70
 387              		.p2align 2
 388              	.L79:
 389 0508 970300B9 		str	w23, [x28]
 390 050c CEFFFF17 		b	.L60
 391              		.p2align 2
 392              	.L81:
 393 0510 9A0740F9 		ldr	x26, [x28, 8]
 394 0514 9B758052 		mov	w27, 940
 395 0518 40034039 		ldrb	w0, [x26]
 396 051c 60010034 		cbz	w0, .L65
 397              		.p2align 3
 398              	.L63:
 399 0520 00000094 		bl	fonts_char_to_font
AARCH64 GAS  C:\Users\A01169~1\AppData\Local\Temp\ccRWduX2.s 			page 8


 400 0524 E20300AA 		mov	x2, x0
 401 0528 E41F8052 		mov	w4, 255
 402 052c E0031B2A 		mov	w0, w27
 403 0530 43008052 		mov	w3, 2
 404 0534 415D8052 		mov	w1, 746
 405 0538 B2FEFF97 		bl	draw_character_raw
 406 053c 7B2F0011 		add	w27, w27, 11
 407 0540 401F4038 		ldrb	w0, [x26, 1]!
 408 0544 E0FEFF35 		cbnz	w0, .L63
 409              	.L65:
 410 0548 00008052 		mov	w0, 0
 411 054c 00000094 		bl	hal_io_serial_getc
 412 0550 00000090 		adrp	x0, fb
 413 0554 000040F9 		ldr	x0, [x0, #:lo12:fb]
 414 0558 02004F91 		add	x2, x0, 3932160
 415 055c 1F2003D5 		.p2align 3
 416              	.L64:
 417 0560 018082D2 		mov	x1, 5120
 418 0564 0100018B 		add	x1, x0, x1
 419              		.p2align 3
 420              	.L66:
 421 0568 154400B8 		str	w21, [x0], 4
 422 056c 1F0001EB 		cmp	x0, x1
 423 0570 C1FFFF54 		bne	.L66
 424 0574 5F0000EB 		cmp	x2, x0
 425 0578 41FFFF54 		bne	.L64
 426 057c 40028052 		mov	w0, 18
 427 0580 97030029 		stp	w23, w0, [x28]
 428 0584 B0FFFF17 		b	.L60
 429              		.size	hal_video_puts, .-hal_video_puts
 430              		.align	2
 431 0588 1F2003D5 		.p2align 4,,15
 431      1F2003D5 
 432              		.global	hal_video_putc_x_y
 433              		.type	hal_video_putc_x_y, %function
 434              	hal_video_putc_x_y:
 435 0590 F353BDA9 		stp	x19, x20, [sp, -48]!
 436 0594 F403002A 		mov	w20, w0
 437 0598 F303032A 		mov	w19, w3
 438 059c E003022A 		mov	w0, w2
 439 05a0 F55B01A9 		stp	x21, x22, [sp, 16]
 440 05a4 F503012A 		mov	w21, w1
 441 05a8 F603042A 		mov	w22, w4
 442 05ac FE1300F9 		str	x30, [sp, 32]
 443 05b0 00000094 		bl	fonts_char_to_font
 444 05b4 010040B9 		ldr	w1, [x0]
 445 05b8 C1070034 		cbz	w1, .L82
 446 05bc 01000090 		adrp	x1, fb
 447 05c0 2E0040F9 		ldr	x14, [x1, #:lo12:fb]
 448 05c4 03100091 		add	x3, x0, 4
 449 05c8 0C008052 		mov	w12, 0
 450 05cc 01008012 		mov	w1, -1
 451 05d0 0DA08052 		mov	w13, 1280
 452 05d4 1F2003D5 		.p2align 3
 453              	.L94:
 454 05d8 67204029 		ldp	w7, w8, [x3]
 455 05dc 6B084129 		ldp	w11, w2, [x3, 8]
AARCH64 GAS  C:\Users\A01169~1\AppData\Local\Temp\ccRWduX2.s 			page 9


 456 05e0 6501074B 		sub	w5, w11, w7
 457 05e4 E9000B4B 		sub	w9, w7, w11
 458 05e8 4600084B 		sub	w6, w2, w8
 459 05ec 0A01024B 		sub	w10, w8, w2
 460 05f0 6752071B 		madd	w7, w19, w7, w20
 461 05f4 A57C131B 		mul	w5, w5, w19
 462 05f8 297D131B 		mul	w9, w9, w19
 463 05fc 6B520B1B 		madd	w11, w19, w11, w20
 464 0600 BF000071 		cmp	w5, 0
 465 0604 C67C131B 		mul	w6, w6, w19
 466 0608 25B1851A 		csel	w5, w9, w5, lt
 467 060c 4A7D131B 		mul	w10, w10, w19
 468 0610 FF000B6B 		cmp	w7, w11
 469 0614 6856081B 		madd	w8, w19, w8, w21
 470 0618 2FA4815A 		csneg	w15, w1, w1, ge
 471 061c 6956021B 		madd	w9, w19, w2, w21
 472 0620 DF000071 		cmp	w6, 0
 473 0624 46B1861A 		csel	w6, w10, w6, lt
 474 0628 1F01096B 		cmp	w8, w9
 475 062c 30A4815A 		csneg	w16, w1, w1, ge
 476 0630 BF00066B 		cmp	w5, w6
 477 0634 6C040054 		bgt	.L88
 478 0638 E203064B 		neg	w2, w6
 479 063c 427C420B 		add	w2, w2, w2, lsr 31
 480 0640 427C0113 		asr	w2, w2, 1
 481              	.L90:
 482 0644 041D0D1B 		madd	w4, w8, w13, w7
 483 0648 7F01076B 		cmp	w11, w7
 484 064c F103054B 		neg	w17, w5
 485 0650 2001487A 		ccmp	w9, w8, 0, eq
 486 0654 EA03022A 		mov	w10, w2
 487 0658 D67924B8 		str	w22, [x14, x4, lsl 2]
 488 065c 00020054 		beq	.L91
 489              		.p2align 3
 490              	.L101:
 491 0660 3F02026B 		cmp	w17, w2
 492 0664 6A000054 		bge	.L92
 493 0668 E7000F0B 		add	w7, w7, w15
 494 066c 4A00064B 		sub	w10, w2, w6
 495              	.L92:
 496 0670 DF00026B 		cmp	w6, w2
 497 0674 6D000054 		ble	.L93
 498 0678 4A01050B 		add	w10, w10, w5
 499 067c 0801100B 		add	w8, w8, w16
 500              	.L93:
 501 0680 041D0D1B 		madd	w4, w8, w13, w7
 502 0684 E2030A2A 		mov	w2, w10
 503 0688 7F01076B 		cmp	w11, w7
 504 068c EA03022A 		mov	w10, w2
 505 0690 2001487A 		ccmp	w9, w8, 0, eq
 506 0694 D67924B8 		str	w22, [x14, x4, lsl 2]
 507 0698 41FEFF54 		bne	.L101
 508              	.L91:
 509 069c 020040B9 		ldr	w2, [x0]
 510 06a0 8C050011 		add	w12, w12, 1
 511 06a4 63400091 		add	x3, x3, 16
 512 06a8 5F000C6B 		cmp	w2, w12
AARCH64 GAS  C:\Users\A01169~1\AppData\Local\Temp\ccRWduX2.s 			page 10


 513 06ac 68F9FF54 		bhi	.L94
 514              	.L82:
 515 06b0 F55B41A9 		ldp	x21, x22, [sp, 16]
 516 06b4 FE1340F9 		ldr	x30, [sp, 32]
 517 06b8 F353C3A8 		ldp	x19, x20, [sp], 48
 518 06bc C0035FD6 		ret
 519              		.p2align 2
 520              	.L88:
 521 06c0 A27C450B 		add	w2, w5, w5, lsr 31
 522 06c4 427C0113 		asr	w2, w2, 1
 523 06c8 DFFFFF17 		b	.L90
 524              		.size	hal_video_putc_x_y, .-hal_video_putc_x_y
 525              		.align	2
 526 06cc 1F2003D5 		.p2align 4,,15
 527              		.global	hal_video_line
 528              		.type	hal_video_line, %function
 529              	hal_video_line:
 530 06d0 03104029 		ldp	w3, w4, [x0]
 531 06d4 0C008012 		mov	w12, -1
 532 06d8 27204029 		ldp	w7, w8, [x1]
 533 06dc 6000074B 		sub	w0, w3, w7
 534 06e0 EB00036B 		subs	w11, w7, w3
 535 06e4 0B408B1A 		csel	w11, w0, w11, mi
 536 06e8 7F00076B 		cmp	w3, w7
 537 06ec 8EA58C5A 		csneg	w14, w12, w12, ge
 538 06f0 8000084B 		sub	w0, w4, w8
 539 06f4 0601046B 		subs	w6, w8, w4
 540 06f8 0640861A 		csel	w6, w0, w6, mi
 541 06fc 9F00086B 		cmp	w4, w8
 542 0700 8CA58C5A 		csneg	w12, w12, w12, ge
 543 0704 7F01066B 		cmp	w11, w6
 544 0708 CC030054 		bgt	.L107
 545 070c E003064B 		neg	w0, w6
 546 0710 007C400B 		add	w0, w0, w0, lsr 31
 547 0714 007C0113 		asr	w0, w0, 1
 548              	.L109:
 549 0718 09A08052 		mov	w9, 1280
 550 071c 01000090 		adrp	x1, fb
 551 0720 2A0040F9 		ldr	x10, [x1, #:lo12:fb]
 552 0724 810C091B 		madd	w1, w4, w9, w3
 553 0728 7F00076B 		cmp	w3, w7
 554 072c ED030B4B 		neg	w13, w11
 555 0730 8000487A 		ccmp	w4, w8, 0, eq
 556 0734 E503002A 		mov	w5, w0
 557 0738 427921B8 		str	w2, [x10, x1, lsl 2]
 558 073c 00020054 		beq	.L102
 559              		.p2align 3
 560              	.L116:
 561 0740 BF01006B 		cmp	w13, w0
 562 0744 6A000054 		bge	.L111
 563 0748 63000E0B 		add	w3, w3, w14
 564 074c 0500064B 		sub	w5, w0, w6
 565              	.L111:
 566 0750 1F00066B 		cmp	w0, w6
 567 0754 6A000054 		bge	.L112
 568 0758 A5000B0B 		add	w5, w5, w11
 569 075c 84000C0B 		add	w4, w4, w12
AARCH64 GAS  C:\Users\A01169~1\AppData\Local\Temp\ccRWduX2.s 			page 11


 570              	.L112:
 571 0760 810C091B 		madd	w1, w4, w9, w3
 572 0764 E003052A 		mov	w0, w5
 573 0768 7F00076B 		cmp	w3, w7
 574 076c E503002A 		mov	w5, w0
 575 0770 8000487A 		ccmp	w4, w8, 0, eq
 576 0774 427921B8 		str	w2, [x10, x1, lsl 2]
 577 0778 41FEFF54 		bne	.L116
 578              	.L102:
 579 077c C0035FD6 		ret
 580              		.p2align 2
 581              	.L107:
 582 0780 607D4B0B 		add	w0, w11, w11, lsr 31
 583 0784 007C0113 		asr	w0, w0, 1
 584 0788 E4FFFF17 		b	.L109
 585              		.size	hal_video_line, .-hal_video_line
 586              		.align	2
 587 078c 1F2003D5 		.p2align 4,,15
 588              		.global	hal_video_put_pixel_area
 589              		.type	hal_video_put_pixel_area, %function
 590              	hal_video_put_pixel_area:
 591 0790 060440B9 		ldr	w6, [x0, 4]
 592 0794 040C40B9 		ldr	w4, [x0, 12]
 593 0798 DF00046B 		cmp	w6, w4
 594 079c 62020054 		bcs	.L117
 595 07a0 02000090 		adrp	x2, fb
 596 07a4 450040F9 		ldr	x5, [x2, #:lo12:fb]
 597 07a8 07A08052 		mov	w7, 1280
 598 07ac 030840B9 		ldr	w3, [x0, 8]
 599              		.p2align 3
 600              	.L121:
 601 07b0 020040B9 		ldr	w2, [x0]
 602 07b4 5F00036B 		cmp	w2, w3
 603 07b8 22010054 		bcs	.L119
 604 07bc C47C071B 		mul	w4, w6, w7
 605              		.p2align 3
 606              	.L120:
 607 07c0 4300040B 		add	w3, w2, w4
 608 07c4 42040011 		add	w2, w2, 1
 609 07c8 A17823B8 		str	w1, [x5, x3, lsl 2]
 610 07cc 030840B9 		ldr	w3, [x0, 8]
 611 07d0 7F00026B 		cmp	w3, w2
 612 07d4 68FFFF54 		bhi	.L120
 613 07d8 040C40B9 		ldr	w4, [x0, 12]
 614              	.L119:
 615 07dc C6040011 		add	w6, w6, 1
 616 07e0 9F00066B 		cmp	w4, w6
 617 07e4 68FEFF54 		bhi	.L121
 618              	.L117:
 619 07e8 C0035FD6 		ret
 620              		.size	hal_video_put_pixel_area, .-hal_video_put_pixel_area
 621              		.align	2
 622 07ec 1F2003D5 		.p2align 4,,15
 623              		.global	hal_video_put_pixel
 624              		.type	hal_video_put_pixel, %function
 625              	hal_video_put_pixel:
 626 07f0 03004029 		ldp	w3, w0, [x0]
AARCH64 GAS  C:\Users\A01169~1\AppData\Local\Temp\ccRWduX2.s 			page 12


 627 07f4 04A08052 		mov	w4, 1280
 628 07f8 02000090 		adrp	x2, fb
 629 07fc 420040F9 		ldr	x2, [x2, #:lo12:fb]
 630 0800 000C041B 		madd	w0, w0, w4, w3
 631 0804 417820B8 		str	w1, [x2, x0, lsl 2]
 632 0808 C0035FD6 		ret
 633              		.size	hal_video_put_pixel, .-hal_video_put_pixel
 634              		.align	2
 635 080c 1F2003D5 		.p2align 4,,15
 636              		.global	hal_video_put_double_pixel
 637              		.type	hal_video_put_double_pixel, %function
 638              	hal_video_put_double_pixel:
 639 0810 02000090 		adrp	x2, fb
 640 0814 430040F9 		ldr	x3, [x2, #:lo12:fb]
 641 0818 04A08052 		mov	w4, 1280
 642 081c 05084029 		ldp	w5, w2, [x0]
 643 0820 4214041B 		madd	w2, w2, w4, w5
 644 0824 617822B8 		str	w1, [x3, x2, lsl 2]
 645 0828 02004029 		ldp	w2, w0, [x0]
 646 082c 42040011 		add	w2, w2, 1
 647 0830 0008041B 		madd	w0, w0, w4, w2
 648 0834 617820B8 		str	w1, [x3, x0, lsl 2]
 649 0838 C0035FD6 		ret
 650              		.size	hal_video_put_double_pixel, .-hal_video_put_double_pixel
 651              		.align	2
 652 083c 1F2003D5 		.p2align 4,,15
 653              		.global	hal_video_clear
 654              		.type	hal_video_clear, %function
 655              	hal_video_clear:
 656 0840 01000090 		adrp	x1, fb
 657 0844 240040F9 		ldr	x4, [x1, #:lo12:fb]
 658 0848 038082D2 		mov	x3, 5120
 659 084c E57F8292 		mov	x5, -5120
 660 0850 8200038B 		add	x2, x4, x3
 661 0854 84044F91 		add	x4, x4, 3936256
 662 0858 84001091 		add	x4, x4, 1024
 663              	.L128:
 664 085c 4100058B 		add	x1, x2, x5
 665              		.p2align 3
 666              	.L129:
 667 0860 204400B8 		str	w0, [x1], 4
 668 0864 3F0002EB 		cmp	x1, x2
 669 0868 C1FFFF54 		bne	.L129
 670 086c 2200038B 		add	x2, x1, x3
 671 0870 9F0002EB 		cmp	x4, x2
 672 0874 41FFFF54 		bne	.L128
 673 0878 00000090 		adrp	x0, .LANCHOR0
 674 087c 01000091 		add	x1, x0, :lo12:.LANCHOR0
 675 0880 83008052 		mov	w3, 4
 676 0884 42028052 		mov	w2, 18
 677 0888 030000B9 		str	w3, [x0, #:lo12:.LANCHOR0]
 678 088c 220400B9 		str	w2, [x1, 4]
 679 0890 C0035FD6 		ret
 680              		.size	hal_video_clear, .-hal_video_clear
 681              		.global	continue_msg
 682              		.comm	fb,8,8
 683              		.global	curr_y
AARCH64 GAS  C:\Users\A01169~1\AppData\Local\Temp\ccRWduX2.s 			page 13


 684              		.global	curr_x
 685              		.data
 686              		.align	3
 687              		.set	.LANCHOR0,. + 0
 688              		.type	curr_x, %object
 689              		.size	curr_x, 4
 690              	curr_x:
 691 0000 04000000 		.word	4
 692              		.type	curr_y, %object
 693              		.size	curr_y, 4
 694              	curr_y:
 695 0004 12000000 		.word	18
 696              		.type	continue_msg, %object
 697              		.size	continue_msg, 8
 698              	continue_msg:
 699 0008 00000000 		.xword	.LC0
 699      00000000 
 700              		.section	.rodata.str1.8,"aMS",@progbits,1
 701              		.align	3
 702              	.LC0:
 703 0000 28205072 		.string	"( Press any key to continue )"
 703      65737320 
 703      616E7920 
 703      6B657920 
 703      746F2063 
 704              		.ident	"GCC: (GNU Toolchain for the A-profile Architecture 8.3-2019.03 (arm-rel-8.36)) 8.3.0"
AARCH64 GAS  C:\Users\A01169~1\AppData\Local\Temp\ccRWduX2.s 			page 14


DEFINED SYMBOLS
                            *ABS*:0000000000000000 hal_video.c
C:\Users\A01169~1\AppData\Local\Temp\ccRWduX2.s:4      .text:0000000000000000 $x
C:\Users\A01169~1\AppData\Local\Temp\ccRWduX2.s:7      .text:0000000000000000 draw_character_raw
                            *COM*:0000000000000008 fb
C:\Users\A01169~1\AppData\Local\Temp\ccRWduX2.s:96     .text:0000000000000120 hal_video_init
C:\Users\A01169~1\AppData\Local\Temp\ccRWduX2.s:114    .text:0000000000000150 hal_io_video_draw_image
C:\Users\A01169~1\AppData\Local\Temp\ccRWduX2.s:176    .text:0000000000000220 hal_video_putc
C:\Users\A01169~1\AppData\Local\Temp\ccRWduX2.s:304    .text:00000000000003e0 hal_video_puts
C:\Users\A01169~1\AppData\Local\Temp\ccRWduX2.s:434    .text:0000000000000590 hal_video_putc_x_y
C:\Users\A01169~1\AppData\Local\Temp\ccRWduX2.s:529    .text:00000000000006d0 hal_video_line
C:\Users\A01169~1\AppData\Local\Temp\ccRWduX2.s:590    .text:0000000000000790 hal_video_put_pixel_area
C:\Users\A01169~1\AppData\Local\Temp\ccRWduX2.s:625    .text:00000000000007f0 hal_video_put_pixel
C:\Users\A01169~1\AppData\Local\Temp\ccRWduX2.s:638    .text:0000000000000810 hal_video_put_double_pixel
C:\Users\A01169~1\AppData\Local\Temp\ccRWduX2.s:655    .text:0000000000000840 hal_video_clear
C:\Users\A01169~1\AppData\Local\Temp\ccRWduX2.s:698    .data:0000000000000008 continue_msg
C:\Users\A01169~1\AppData\Local\Temp\ccRWduX2.s:694    .data:0000000000000004 curr_y
C:\Users\A01169~1\AppData\Local\Temp\ccRWduX2.s:690    .data:0000000000000000 curr_x
C:\Users\A01169~1\AppData\Local\Temp\ccRWduX2.s:686    .data:0000000000000000 $d
C:\Users\A01169~1\AppData\Local\Temp\ccRWduX2.s:701    .rodata.str1.8:0000000000000000 $d

UNDEFINED SYMBOLS
fb_init
fonts_init
fonts_char_to_font
hal_io_serial_getc
AARCH64 GAS  C:\Users\A01169~1\AppData\Local\Temp\ccRWduX2.s 			page 1


   1              		.arch armv8-a
   2              		.file	"hal_timer.c"
   3              		.text
   4              		.align	2
   5              		.p2align 4,,15
   6              		.global	hal_timer_init
   7              		.type	hal_timer_init, %function
   8              	hal_timer_init:
   9 0000 00000014 		b	hal_cpu_ints_enable
  10              		.size	hal_timer_init, .-hal_timer_init
  11              		.align	2
  12 0004 1F2003D5 		.p2align 4,,15
  12      1F2003D5 
  12      1F2003D5 
  13              		.global	hal_timer_delay_microsecs
  14              		.type	hal_timer_delay_microsecs, %function
  15              	hal_timer_delay_microsecs:
  16 0010 F37BBEA9 		stp	x19, x30, [sp, -32]!
  17 0014 F30300AA 		mov	x19, x0
  18 0018 00000094 		bl	timer_getTickCount
  19 001c E01B00B9 		str	w0, [sp, 24]
  20              		.p2align 3
  21              	.L4:
  22 0020 00000094 		bl	timer_getTickCount
  23 0024 E01F00B9 		str	w0, [sp, 28]
  24 0028 E01F40B9 		ldr	w0, [sp, 28]
  25 002c E11B40B9 		ldr	w1, [sp, 24]
  26 0030 0000014B 		sub	w0, w0, w1
  27 0034 1F0013EB 		cmp	x0, x19
  28 0038 43FFFF54 		bcc	.L4
  29 003c F37BC2A8 		ldp	x19, x30, [sp], 32
  30 0040 C0035FD6 		ret
  31              		.size	hal_timer_delay_microsecs, .-hal_timer_delay_microsecs
  32              		.align	2
  33 0044 1F2003D5 		.p2align 4,,15
  33      1F2003D5 
  33      1F2003D5 
  34              		.global	hal_timer_start_int
  35              		.type	hal_timer_start_int, %function
  36              	hal_timer_start_int:
  37 0050 1F040071 		cmp	w0, 1
  38 0054 40000054 		beq	.L13
  39 0058 00000014 		b	hal_cpu_ints_enable
  40              		.p2align 2
  41              	.L13:
  42 005c FE0F1FF8 		str	x30, [sp, -16]!
  43 0060 E003012A 		mov	w0, w1
  44 0064 E10302AA 		mov	x1, x2
  45 0068 00000094 		bl	TimerIrqSetup
  46 006c FE0741F8 		ldr	x30, [sp], 16
  47 0070 00000014 		b	hal_cpu_ints_enable
  48              		.size	hal_timer_start_int, .-hal_timer_start_int
  49              		.align	2
  50 0074 1F2003D5 		.p2align 4,,15
  50      1F2003D5 
  50      1F2003D5 
  51              		.global	hal_timer_start_poll
AARCH64 GAS  C:\Users\A01169~1\AppData\Local\Temp\ccRWduX2.s 			page 2


  52              		.type	hal_timer_start_poll, %function
  53              	hal_timer_start_poll:
  54 0080 C0035FD6 		ret
  55              		.size	hal_timer_start_poll, .-hal_timer_start_poll
  56              		.align	2
  57 0084 1F2003D5 		.p2align 4,,15
  57      1F2003D5 
  57      1F2003D5 
  58              		.global	hal_timer_read_count
  59              		.type	hal_timer_read_count, %function
  60              	hal_timer_read_count:
  61 0090 60000034 		cbz	w0, .L16
  62 0094 000080D2 		mov	x0, 0
  63 0098 C0035FD6 		ret
  64              		.p2align 2
  65              	.L16:
  66 009c 00000014 		b	timer_getTickCount
  67              		.size	hal_timer_read_count, .-hal_timer_read_count
  68              		.ident	"GCC: (GNU Toolchain for the A-profile Architecture 8.3-2019.03 (arm-rel-8.36)) 8.3.0"
AARCH64 GAS  C:\Users\A01169~1\AppData\Local\Temp\ccRWduX2.s 			page 3


DEFINED SYMBOLS
                            *ABS*:0000000000000000 hal_timer.c
C:\Users\A01169~1\AppData\Local\Temp\ccRWduX2.s:4      .text:0000000000000000 $x
C:\Users\A01169~1\AppData\Local\Temp\ccRWduX2.s:8      .text:0000000000000000 hal_timer_init
C:\Users\A01169~1\AppData\Local\Temp\ccRWduX2.s:15     .text:0000000000000010 hal_timer_delay_microsecs
C:\Users\A01169~1\AppData\Local\Temp\ccRWduX2.s:36     .text:0000000000000050 hal_timer_start_int
C:\Users\A01169~1\AppData\Local\Temp\ccRWduX2.s:53     .text:0000000000000080 hal_timer_start_poll
C:\Users\A01169~1\AppData\Local\Temp\ccRWduX2.s:60     .text:0000000000000090 hal_timer_read_count

UNDEFINED SYMBOLS
hal_cpu_ints_enable
timer_getTickCount
TimerIrqSetup
AARCH64 GAS  C:\Users\A01169~1\AppData\Local\Temp\ccRWduX2.s 			page 1


   1              		.arch armv8-a
   2              		.file	"kprintf.c"
   3              		.text
   4              		.align	2
   5              		.p2align 4,,15
   6              		.type	buffer_add, %function
   7              	buffer_add:
   8 0000 220C40A9 		ldp	x2, x3, [x1]
   9 0004 001C0012 		and	w0, w0, 255
  10 0008 A30000B4 		cbz	x3, .L2
  11 000c 40000039 		strb	w0, [x2]
  12 0010 220040A9 		ldp	x2, x0, [x1]
  13 0014 000400D1 		sub	x0, x0, #1
  14 0018 200400F9 		str	x0, [x1, 8]
  15              	.L2:
  16 001c 42040091 		add	x2, x2, 1
  17 0020 220000F9 		str	x2, [x1]
  18 0024 C0035FD6 		ret
  19              		.size	buffer_add, .-buffer_add
  20              		.align	2
  21 0028 1F2003D5 		.p2align 4,,15
  21      1F2003D5 
  22              		.global	local_putc
  23              		.type	local_putc, %function
  24              	local_putc:
  25 0030 02008012 		mov	w2, -1
  26 0034 21008052 		mov	w1, 1
  27 0038 00000014 		b	hal_video_putc
  28              		.size	local_putc, .-local_putc
  29              		.align	2
  30 003c 1F2003D5 		.p2align 4,,15
  31              		.global	debug_putc
  32              		.type	debug_putc, %function
  33              	debug_putc:
  34 0040 E103002A 		mov	w1, w0
  35 0044 00008052 		mov	w0, 0
  36 0048 00000014 		b	hal_io_serial_putc
  37              		.size	debug_putc, .-debug_putc
  38              		.align	2
  39 004c 1F2003D5 		.p2align 4,,15
  40              		.type	cprint_int.constprop.4, %function
  41              	cprint_int.constprop.4:
  42 0050 F353B6A9 		stp	x19, x20, [sp, -160]!
  43 0054 05000090 		adrp	x5, .LC0
  44 0058 A5000091 		add	x5, x5, :lo12:.LC0
  45 005c 931C0012 		and	w19, w4, 255
  46 0060 E6630191 		add	x6, sp, 88
  47 0064 29781E12 		and	w9, w1, -3
  48 0068 E8C30191 		add	x8, sp, 112
  49 006c 7F027AF2 		tst	x19, 64
  50 0070 A4404039 		ldrb	w4, [x5, 16]
  51 0074 0811869A 		csel	x8, x8, x6, ne
  52 0078 3F210071 		cmp	w9, 8
  53 007c 092787D2 		mov	x9, 14648
  54 0080 294CACF2 		movk	x9, 0x6261, lsl 16
  55 0084 A71840A9 		ldp	x7, x6, [x5]
  56 0088 052686D2 		mov	x5, 12592
AARCH64 GAS  C:\Users\A01169~1\AppData\Local\Temp\ccRWduX2.s 			page 2


  57 008c 4566A6F2 		movk	x5, 0x3332, lsl 16
  58 0090 698CCCF2 		movk	x9, 0x6463, lsl 32
  59 0094 A9CCECF2 		movk	x9, 0x6665, lsl 48
  60 0098 85A6C6F2 		movk	x5, 0x3534, lsl 32
  61 009c C5E6E6F2 		movk	x5, 0x3736, lsl 48
  62 00a0 FE2700F9 		str	x30, [sp, 72]
  63 00a4 E5A705A9 		stp	x5, x9, [sp, 88]
  64 00a8 E5079F1A 		cset	w5, ne
  65 00ac 3F400071 		cmp	w1, 16
  66 00b0 FFA30139 		strb	wzr, [sp, 104]
  67 00b4 A5109F1A 		csel	w5, w5, wzr, ne
  68 00b8 E71B07A9 		stp	x7, x6, [sp, 112]
  69 00bc E4030239 		strb	w4, [sp, 128]
  70 00c0 050A0035 		cbnz	w5, .L9
  71 00c4 F55B01A9 		stp	x21, x22, [sp, 16]
  72 00c8 F403022A 		mov	w20, w2
  73 00cc F603132A 		mov	w22, w19
  74 00d0 F76302A9 		stp	x23, x24, [sp, 32]
  75 00d4 F96B03A9 		stp	x25, x26, [sp, 48]
  76 00d8 53002836 		tbz	x19, 5, .L12
  77 00dc 2010F8B7 		tbnz	x0, #63, .L64
  78              	.L12:
  79 00e0 600900B5 		cbnz	x0, .L35
  80 00e4 7F000071 		cmp	w3, 0
  81 00e8 37008052 		mov	w23, 1
  82 00ec 79C0971A 		csel	w25, w3, w23, gt
  83 00f0 00068052 		mov	w0, 48
  84 00f4 15068052 		mov	w21, 48
  85 00f8 E0230239 		strb	w0, [sp, 136]
  86              	.L14:
  87 00fc 60020012 		and	w0, w19, 1
  88 0100 D30E0037 		tbnz	x19, 0, .L65
  89 0104 78021E12 		and	w24, w19, 4
  90 0108 F30A1036 		tbz	x19, 2, .L19
  91 010c 04008052 		mov	w4, 0
  92              	.L33:
  93 0110 940A0051 		sub	w20, w20, #2
  94 0114 60020012 		and	w0, w19, 1
  95 0118 640A0034 		cbz	w4, .L19
  96              	.L68:
  97 011c A1058052 		mov	w1, 45
  98 0120 00008052 		mov	w0, 0
  99 0124 00000094 		bl	hal_io_serial_putc
 100              	.L20:
 101 0128 F8000034 		cbz	w24, .L22
 102 012c 01068052 		mov	w1, 48
 103 0130 00008052 		mov	w0, 0
 104 0134 00000094 		bl	hal_io_serial_putc
 105 0138 010F8052 		mov	w1, 120
 106 013c 00008052 		mov	w0, 0
 107 0140 00000094 		bl	hal_io_serial_putc
 108              	.L22:
 109 0144 160A0836 		tbz	x22, 1, .L60
 110 0148 36070051 		sub	w22, w25, #1
 111              	.L23:
 112 014c FF02196B 		cmp	w23, w25
 113 0150 EA0C0054 		bge	.L66
AARCH64 GAS  C:\Users\A01169~1\AppData\Local\Temp\ccRWduX2.s 			page 3


 114 0154 7F027CF2 		tst	x19, 16
 115 0158 18068052 		mov	w24, 48
 116 015c 00048052 		mov	w0, 32
 117 0160 F3060051 		sub	w19, w23, #1
 118 0164 1813801A 		csel	w24, w24, w0, ne
 119              		.p2align 3
 120              	.L25:
 121 0168 D6060051 		sub	w22, w22, #1
 122 016c E103182A 		mov	w1, w24
 123 0170 00008052 		mov	w0, 0
 124 0174 00000094 		bl	hal_io_serial_putc
 125 0178 DF02136B 		cmp	w22, w19
 126 017c 61FFFF54 		bne	.L25
 127 0180 F902194B 		sub	w25, w23, w25
 128 0184 3403140B 		add	w20, w25, w20
 129              	.L26:
 130 0188 737E4093 		sxtw	x19, w19
 131 018c 03000014 		b	.L29
 132              		.p2align 2
 133              	.L67:
 134 0190 15F05F38 		ldrb	w21, [x0, -1]
 135 0194 730600D1 		sub	x19, x19, #1
 136              	.L29:
 137 0198 00008052 		mov	w0, 0
 138 019c E103152A 		mov	w1, w21
 139 01a0 00000094 		bl	hal_io_serial_putc
 140 01a4 E0230291 		add	x0, sp, 136
 141 01a8 7F020071 		cmp	w19, 0
 142 01ac 6002008B 		add	x0, x19, x0
 143 01b0 0CFFFF54 		bgt	.L67
 144 01b4 81060051 		sub	w1, w20, #1
 145 01b8 20008052 		mov	w0, 1
 146 01bc 1700174B 		sub	w23, w0, w23
 147 01c0 9402170B 		add	w20, w20, w23
 148 01c4 F702010B 		add	w23, w23, w1
 149 01c8 940A0051 		sub	w20, w20, #2
 150 01cc FF020071 		cmp	w23, 0
 151 01d0 2D010054 		ble	.L62
 152 01d4 1F2003D5 		.p2align 3
 153              	.L30:
 154 01d8 00008052 		mov	w0, 0
 155 01dc 01048052 		mov	w1, 32
 156 01e0 00000094 		bl	hal_io_serial_putc
 157 01e4 80060051 		sub	w0, w20, #1
 158 01e8 9F020071 		cmp	w20, 0
 159 01ec F403002A 		mov	w20, w0
 160 01f0 4CFFFF54 		bgt	.L30
 161              	.L62:
 162 01f4 F55B41A9 		ldp	x21, x22, [sp, 16]
 163 01f8 F76342A9 		ldp	x23, x24, [sp, 32]
 164 01fc F96B43A9 		ldp	x25, x26, [sp, 48]
 165              	.L9:
 166 0200 FE2740F9 		ldr	x30, [sp, 72]
 167 0204 F353CAA8 		ldp	x19, x20, [sp], 160
 168 0208 C0035FD6 		ret
 169              		.p2align 2
 170              	.L35:
AARCH64 GAS  C:\Users\A01169~1\AppData\Local\Temp\ccRWduX2.s 			page 4


 171 020c 04008052 		mov	w4, 0
 172              	.L13:
 173 0210 257C4093 		sxtw	x5, w1
 174 0214 210080D2 		mov	x1, 1
 175              		.p2align 3
 176              	.L15:
 177 0218 0608C59A 		udiv	x6, x0, x5
 178 021c E2230291 		add	x2, sp, 136
 179 0220 4200018B 		add	x2, x2, x1
 180 0224 1F0005EB 		cmp	x0, x5
 181 0228 F703012A 		mov	w23, w1
 182 022c 21040091 		add	x1, x1, 1
 183 0230 C780059B 		msub	x7, x6, x5, x0
 184 0234 E00306AA 		mov	x0, x6
 185 0238 15696738 		ldrb	w21, [x8, x7]
 186 023c 55F01F38 		strb	w21, [x2, -1]
 187 0240 C2FEFF54 		bcs	.L15
 188 0244 FF02036B 		cmp	w23, w3
 189 0248 F9A2831A 		csel	w25, w23, w3, ge
 190 024c 84F5FF34 		cbz	w4, .L14
 191              	.L16:
 192 0250 94060051 		sub	w20, w20, #1
 193 0254 78021E12 		and	w24, w19, 4
 194 0258 D3F51737 		tbnz	x19, 2, .L33
 195 025c 60020012 		and	w0, w19, 1
 196 0260 E4F5FF35 		cbnz	w4, .L68
 197              	.L19:
 198 0264 20F6FF34 		cbz	w0, .L20
 199 0268 7F027DF2 		tst	x19, 8
 200 026c 02048052 		mov	w2, 32
 201 0270 61058052 		mov	w1, 43
 202 0274 00008052 		mov	w0, 0
 203 0278 4110811A 		csel	w1, w2, w1, ne
 204 027c 00000094 		bl	hal_io_serial_putc
 205 0280 AAFFFF17 		b	.L20
 206              		.p2align 2
 207              	.L60:
 208 0284 FB2300F9 		str	x27, [sp, 64]
 209 0288 3F03146B 		cmp	w25, w20
 210 028c 9B060051 		sub	w27, w20, #1
 211 0290 2A030054 		bge	.L38
 212 0294 7F027CF2 		tst	x19, 16
 213 0298 1A068052 		mov	w26, 48
 214 029c 00048052 		mov	w0, 32
 215 02a0 36070051 		sub	w22, w25, #1
 216 02a4 5A13801A 		csel	w26, w26, w0, ne
 217 02a8 F8031B2A 		mov	w24, w27
 218 02ac 1F2003D5 		.p2align 3
 219              	.L24:
 220 02b0 18070051 		sub	w24, w24, #1
 221 02b4 E1031A2A 		mov	w1, w26
 222 02b8 00008052 		mov	w0, 0
 223 02bc 00000094 		bl	hal_io_serial_putc
 224 02c0 1F03166B 		cmp	w24, w22
 225 02c4 61FFFF54 		bne	.L24
 226 02c8 3403144B 		sub	w20, w25, w20
 227 02cc 94021B0B 		add	w20, w20, w27
AARCH64 GAS  C:\Users\A01169~1\AppData\Local\Temp\ccRWduX2.s 			page 5


 228 02d0 FB2340F9 		ldr	x27, [sp, 64]
 229 02d4 9EFFFF17 		b	.L23
 230              		.p2align 2
 231              	.L65:
 232 02d8 04008052 		mov	w4, 0
 233 02dc DDFFFF17 		b	.L16
 234              		.p2align 2
 235              	.L64:
 236 02e0 E00300CB 		neg	x0, x0
 237 02e4 24008052 		mov	w4, 1
 238 02e8 CAFFFF17 		b	.L13
 239              		.p2align 2
 240              	.L66:
 241 02ec F3060051 		sub	w19, w23, #1
 242 02f0 A6FFFF17 		b	.L26
 243              	.L38:
 244 02f4 F4031B2A 		mov	w20, w27
 245 02f8 36070051 		sub	w22, w25, #1
 246 02fc FB2340F9 		ldr	x27, [sp, 64]
 247 0300 93FFFF17 		b	.L23
 248              		.size	cprint_int.constprop.4, .-cprint_int.constprop.4
 249              		.align	2
 250 0304 1F2003D5 		.p2align 4,,15
 250      1F2003D5 
 250      1F2003D5 
 251              		.type	cprint_int.constprop.5, %function
 252              	cprint_int.constprop.5:
 253 0310 F353B6A9 		stp	x19, x20, [sp, -160]!
 254 0314 05000090 		adrp	x5, .LC0
 255 0318 A5000091 		add	x5, x5, :lo12:.LC0
 256 031c 941C0012 		and	w20, w4, 255
 257 0320 E6630191 		add	x6, sp, 88
 258 0324 29781E12 		and	w9, w1, -3
 259 0328 E8C30191 		add	x8, sp, 112
 260 032c 9F027AF2 		tst	x20, 64
 261 0330 A4404039 		ldrb	w4, [x5, 16]
 262 0334 0811869A 		csel	x8, x8, x6, ne
 263 0338 3F210071 		cmp	w9, 8
 264 033c 092787D2 		mov	x9, 14648
 265 0340 294CACF2 		movk	x9, 0x6261, lsl 16
 266 0344 A71840A9 		ldp	x7, x6, [x5]
 267 0348 052686D2 		mov	x5, 12592
 268 034c 4566A6F2 		movk	x5, 0x3332, lsl 16
 269 0350 698CCCF2 		movk	x9, 0x6463, lsl 32
 270 0354 A9CCECF2 		movk	x9, 0x6665, lsl 48
 271 0358 85A6C6F2 		movk	x5, 0x3534, lsl 32
 272 035c C5E6E6F2 		movk	x5, 0x3736, lsl 48
 273 0360 FE2700F9 		str	x30, [sp, 72]
 274 0364 E5A705A9 		stp	x5, x9, [sp, 88]
 275 0368 E5079F1A 		cset	w5, ne
 276 036c 3F400071 		cmp	w1, 16
 277 0370 FFA30139 		strb	wzr, [sp, 104]
 278 0374 A5109F1A 		csel	w5, w5, wzr, ne
 279 0378 E71B07A9 		stp	x7, x6, [sp, 112]
 280 037c E4030239 		strb	w4, [sp, 128]
 281 0380 C50A0035 		cbnz	w5, .L69
 282 0384 F55B01A9 		stp	x21, x22, [sp, 16]
AARCH64 GAS  C:\Users\A01169~1\AppData\Local\Temp\ccRWduX2.s 			page 6


 283 0388 F303022A 		mov	w19, w2
 284 038c F603142A 		mov	w22, w20
 285 0390 F76302A9 		stp	x23, x24, [sp, 32]
 286 0394 F96B03A9 		stp	x25, x26, [sp, 48]
 287 0398 54002836 		tbz	x20, 5, .L72
 288 039c 0011F8B7 		tbnz	x0, #63, .L124
 289              	.L72:
 290 03a0 200A00B5 		cbnz	x0, .L95
 291 03a4 7F000071 		cmp	w3, 0
 292 03a8 37008052 		mov	w23, 1
 293 03ac 79C0971A 		csel	w25, w3, w23, gt
 294 03b0 00068052 		mov	w0, 48
 295 03b4 15068052 		mov	w21, 48
 296 03b8 E0230239 		strb	w0, [sp, 136]
 297              	.L74:
 298 03bc 80020012 		and	w0, w20, 1
 299 03c0 B40F0037 		tbnz	x20, 0, .L125
 300 03c4 98021E12 		and	w24, w20, 4
 301 03c8 B40B1036 		tbz	x20, 2, .L79
 302 03cc 04008052 		mov	w4, 0
 303              	.L93:
 304 03d0 730A0051 		sub	w19, w19, #2
 305 03d4 80020012 		and	w0, w20, 1
 306 03d8 240B0034 		cbz	w4, .L79
 307              	.L128:
 308 03dc 02008012 		mov	w2, -1
 309 03e0 21008052 		mov	w1, 1
 310 03e4 A0058052 		mov	w0, 45
 311 03e8 00000094 		bl	hal_video_putc
 312              	.L80:
 313 03ec 38010034 		cbz	w24, .L82
 314 03f0 02008012 		mov	w2, -1
 315 03f4 21008052 		mov	w1, 1
 316 03f8 00068052 		mov	w0, 48
 317 03fc 00000094 		bl	hal_video_putc
 318 0400 02008012 		mov	w2, -1
 319 0404 21008052 		mov	w1, 1
 320 0408 000F8052 		mov	w0, 120
 321 040c 00000094 		bl	hal_video_putc
 322              	.L82:
 323 0410 960A0836 		tbz	x22, 1, .L120
 324 0414 36070051 		sub	w22, w25, #1
 325              	.L83:
 326 0418 FF02196B 		cmp	w23, w25
 327 041c 6A0D0054 		bge	.L126
 328 0420 9F027CF2 		tst	x20, 16
 329 0424 18068052 		mov	w24, 48
 330 0428 00048052 		mov	w0, 32
 331 042c F4060051 		sub	w20, w23, #1
 332 0430 1813801A 		csel	w24, w24, w0, ne
 333 0434 1F2003D5 		.p2align 3
 334              	.L85:
 335 0438 D6060051 		sub	w22, w22, #1
 336 043c 02008012 		mov	w2, -1
 337 0440 21008052 		mov	w1, 1
 338 0444 E003182A 		mov	w0, w24
 339 0448 00000094 		bl	hal_video_putc
AARCH64 GAS  C:\Users\A01169~1\AppData\Local\Temp\ccRWduX2.s 			page 7


 340 044c DF02146B 		cmp	w22, w20
 341 0450 41FFFF54 		bne	.L85
 342 0454 F902194B 		sub	w25, w23, w25
 343 0458 3303130B 		add	w19, w25, w19
 344              	.L86:
 345 045c 947E4093 		sxtw	x20, w20
 346 0460 03000014 		b	.L89
 347              		.p2align 2
 348              	.L127:
 349 0464 15F05F38 		ldrb	w21, [x0, -1]
 350 0468 940600D1 		sub	x20, x20, #1
 351              	.L89:
 352 046c E003152A 		mov	w0, w21
 353 0470 02008012 		mov	w2, -1
 354 0474 21008052 		mov	w1, 1
 355 0478 00000094 		bl	hal_video_putc
 356 047c E0230291 		add	x0, sp, 136
 357 0480 9F020071 		cmp	w20, 0
 358 0484 8002008B 		add	x0, x20, x0
 359 0488 ECFEFF54 		bgt	.L127
 360 048c 61060051 		sub	w1, w19, #1
 361 0490 20008052 		mov	w0, 1
 362 0494 1700174B 		sub	w23, w0, w23
 363 0498 7302170B 		add	w19, w19, w23
 364 049c F702010B 		add	w23, w23, w1
 365 04a0 730A0051 		sub	w19, w19, #2
 366 04a4 FF020071 		cmp	w23, 0
 367 04a8 2D010054 		ble	.L122
 368 04ac 1F2003D5 		.p2align 3
 369              	.L90:
 370 04b0 02008012 		mov	w2, -1
 371 04b4 21008052 		mov	w1, 1
 372 04b8 00048052 		mov	w0, 32
 373 04bc 00000094 		bl	hal_video_putc
 374 04c0 7F020071 		cmp	w19, 0
 375 04c4 73060051 		sub	w19, w19, #1
 376 04c8 4CFFFF54 		bgt	.L90
 377              	.L122:
 378 04cc F55B41A9 		ldp	x21, x22, [sp, 16]
 379 04d0 F76342A9 		ldp	x23, x24, [sp, 32]
 380 04d4 F96B43A9 		ldp	x25, x26, [sp, 48]
 381              	.L69:
 382 04d8 FE2740F9 		ldr	x30, [sp, 72]
 383 04dc F353CAA8 		ldp	x19, x20, [sp], 160
 384 04e0 C0035FD6 		ret
 385              		.p2align 2
 386              	.L95:
 387 04e4 04008052 		mov	w4, 0
 388              	.L73:
 389 04e8 257C4093 		sxtw	x5, w1
 390 04ec 210080D2 		mov	x1, 1
 391              		.p2align 3
 392              	.L75:
 393 04f0 0608C59A 		udiv	x6, x0, x5
 394 04f4 E2230291 		add	x2, sp, 136
 395 04f8 4200018B 		add	x2, x2, x1
 396 04fc 1F0005EB 		cmp	x0, x5
AARCH64 GAS  C:\Users\A01169~1\AppData\Local\Temp\ccRWduX2.s 			page 8


 397 0500 F703012A 		mov	w23, w1
 398 0504 21040091 		add	x1, x1, 1
 399 0508 C780059B 		msub	x7, x6, x5, x0
 400 050c E00306AA 		mov	x0, x6
 401 0510 15696738 		ldrb	w21, [x8, x7]
 402 0514 55F01F38 		strb	w21, [x2, -1]
 403 0518 C2FEFF54 		bcs	.L75
 404 051c FF02036B 		cmp	w23, w3
 405 0520 F9A2831A 		csel	w25, w23, w3, ge
 406 0524 C4F4FF34 		cbz	w4, .L74
 407              	.L76:
 408 0528 73060051 		sub	w19, w19, #1
 409 052c 98021E12 		and	w24, w20, 4
 410 0530 14F51737 		tbnz	x20, 2, .L93
 411 0534 80020012 		and	w0, w20, 1
 412 0538 24F5FF35 		cbnz	w4, .L128
 413              	.L79:
 414 053c 80F5FF34 		cbz	w0, .L80
 415 0540 9F027DF2 		tst	x20, 8
 416 0544 01048052 		mov	w1, 32
 417 0548 60058052 		mov	w0, 43
 418 054c 02008012 		mov	w2, -1
 419 0550 2010801A 		csel	w0, w1, w0, ne
 420 0554 21008052 		mov	w1, 1
 421 0558 00000094 		bl	hal_video_putc
 422 055c A4FFFF17 		b	.L80
 423              		.p2align 2
 424              	.L120:
 425 0560 FB2300F9 		str	x27, [sp, 64]
 426 0564 3F03136B 		cmp	w25, w19
 427 0568 7B060051 		sub	w27, w19, #1
 428 056c 2A030054 		bge	.L98
 429 0570 9F027CF2 		tst	x20, 16
 430 0574 1A068052 		mov	w26, 48
 431 0578 00048052 		mov	w0, 32
 432 057c 36070051 		sub	w22, w25, #1
 433 0580 5A13801A 		csel	w26, w26, w0, ne
 434 0584 F8031B2A 		mov	w24, w27
 435              		.p2align 3
 436              	.L84:
 437 0588 18070051 		sub	w24, w24, #1
 438 058c 02008012 		mov	w2, -1
 439 0590 21008052 		mov	w1, 1
 440 0594 E0031A2A 		mov	w0, w26
 441 0598 00000094 		bl	hal_video_putc
 442 059c 1F03166B 		cmp	w24, w22
 443 05a0 41FFFF54 		bne	.L84
 444 05a4 3303134B 		sub	w19, w25, w19
 445 05a8 73021B0B 		add	w19, w19, w27
 446 05ac FB2340F9 		ldr	x27, [sp, 64]
 447 05b0 9AFFFF17 		b	.L83
 448              		.p2align 2
 449              	.L125:
 450 05b4 04008052 		mov	w4, 0
 451 05b8 DCFFFF17 		b	.L76
 452              		.p2align 2
 453              	.L124:
AARCH64 GAS  C:\Users\A01169~1\AppData\Local\Temp\ccRWduX2.s 			page 9


 454 05bc E00300CB 		neg	x0, x0
 455 05c0 24008052 		mov	w4, 1
 456 05c4 C9FFFF17 		b	.L73
 457              		.p2align 2
 458              	.L126:
 459 05c8 F4060051 		sub	w20, w23, #1
 460 05cc A4FFFF17 		b	.L86
 461              	.L98:
 462 05d0 F3031B2A 		mov	w19, w27
 463 05d4 36070051 		sub	w22, w25, #1
 464 05d8 FB2340F9 		ldr	x27, [sp, 64]
 465 05dc 8FFFFF17 		b	.L83
 466              		.size	cprint_int.constprop.5, .-cprint_int.constprop.5
 467              		.align	2
 468              		.p2align 4,,15
 469              		.type	cprint_int.constprop.3, %function
 470              	cprint_int.constprop.3:
 471 05e0 06000090 		adrp	x6, .LC0
 472 05e4 C6000091 		add	x6, x6, :lo12:.LC0
 473 05e8 AC1C0012 		and	w12, w5, 255
 474 05ec FF4301D1 		sub	sp, sp, #80
 475 05f0 E8230091 		add	x8, sp, 8
 476 05f4 4B781E12 		and	w11, w2, -3
 477 05f8 9F017AF2 		tst	x12, 64
 478 05fc EA830091 		add	x10, sp, 32
 479 0600 C7404039 		ldrb	w7, [x6, 16]
 480 0604 4A11889A 		csel	x10, x10, x8, ne
 481 0608 7F210071 		cmp	w11, 8
 482 060c 0B2787D2 		mov	x11, 14648
 483 0610 2B4CACF2 		movk	x11, 0x6261, lsl 16
 484 0614 FF630039 		strb	wzr, [sp, 24]
 485 0618 C92040A9 		ldp	x9, x8, [x6]
 486 061c 062686D2 		mov	x6, 12592
 487 0620 4666A6F2 		movk	x6, 0x3332, lsl 16
 488 0624 6B8CCCF2 		movk	x11, 0x6463, lsl 32
 489 0628 ABCCECF2 		movk	x11, 0x6665, lsl 48
 490 062c 86A6C6F2 		movk	x6, 0x3534, lsl 32
 491 0630 C6E6E6F2 		movk	x6, 0x3736, lsl 48
 492 0634 E6AF00A9 		stp	x6, x11, [sp, 8]
 493 0638 E6079F1A 		cset	w6, ne
 494 063c E92302A9 		stp	x9, x8, [sp, 32]
 495 0640 5F400071 		cmp	w2, 16
 496 0644 C6109F1A 		csel	w6, w6, wzr, ne
 497 0648 E7C30039 		strb	w7, [sp, 48]
 498 064c 860E0035 		cbnz	w6, .L129
 499 0650 4C002836 		tbz	x12, 5, .L132
 500 0654 A118F8B7 		tbnz	x1, #63, .L220
 501              	.L132:
 502 0658 610E00B5 		cbnz	x1, .L170
 503 065c 9F000071 		cmp	w4, 0
 504 0660 2B008052 		mov	w11, 1
 505 0664 87C08B1A 		csel	w7, w4, w11, gt
 506 0668 01068052 		mov	w1, 48
 507 066c 08068052 		mov	w8, 48
 508 0670 E1E30039 		strb	w1, [sp, 56]
 509              	.L134:
 510 0674 86010012 		and	w6, w12, 1
AARCH64 GAS  C:\Users\A01169~1\AppData\Local\Temp\ccRWduX2.s 			page 10


 511 0678 4C170037 		tbnz	x12, 0, .L221
 512 067c 84011E12 		and	w4, w12, 4
 513 0680 AC171036 		tbz	x12, 2, .L222
 514 0684 0D008052 		mov	w13, 0
 515              	.L166:
 516 0688 63080051 		sub	w3, w3, #2
 517 068c 86010012 		and	w6, w12, 1
 518 0690 010840A9 		ldp	x1, x2, [x0]
 519 0694 6D0F0034 		cbz	w13, .L139
 520              	.L226:
 521 0698 C20000B4 		cbz	x2, .L143
 522 069c A2058052 		mov	w2, 45
 523 06a0 22000039 		strb	w2, [x1]
 524 06a4 010840A9 		ldp	x1, x2, [x0]
 525 06a8 420400D1 		sub	x2, x2, #1
 526 06ac 020400F9 		str	x2, [x0, 8]
 527              	.L143:
 528 06b0 21040091 		add	x1, x1, 1
 529 06b4 010000F9 		str	x1, [x0]
 530              	.L141:
 531 06b8 24020034 		cbz	w4, .L144
 532 06bc 24040091 		add	x4, x1, 1
 533 06c0 A20100B4 		cbz	x2, .L146
 534 06c4 02068052 		mov	w2, 48
 535 06c8 22000039 		strb	w2, [x1]
 536 06cc 010840A9 		ldp	x1, x2, [x0]
 537 06d0 24040091 		add	x4, x1, 1
 538 06d4 420400D1 		sub	x2, x2, #1
 539 06d8 040800A9 		stp	x4, x2, [x0]
 540 06dc C20000B4 		cbz	x2, .L146
 541 06e0 020F8052 		mov	w2, 120
 542 06e4 22040039 		strb	w2, [x1, 1]
 543 06e8 040840A9 		ldp	x4, x2, [x0]
 544 06ec 420400D1 		sub	x2, x2, #1
 545 06f0 020400F9 		str	x2, [x0, 8]
 546              	.L146:
 547 06f4 81040091 		add	x1, x4, 1
 548 06f8 010000F9 		str	x1, [x0]
 549              	.L144:
 550 06fc E5120837 		tbnz	x5, 1, .L216
 551 0700 7F00076B 		cmp	w3, w7
 552 0704 69040051 		sub	w9, w3, #1
 553 0708 6D120054 		ble	.L173
 554 070c 05048052 		mov	w5, 32
 555 0710 9F017CF2 		tst	x12, 16
 556 0714 04068052 		mov	w4, 48
 557 0718 E603092A 		mov	w6, w9
 558 071c 8410851A 		csel	w4, w4, w5, ne
 559 0720 E5040051 		sub	w5, w7, #1
 560 0724 1F2003D5 		.p2align 3
 561              	.L149:
 562 0728 220C00B4 		cbz	x2, .L148
 563 072c 24000039 		strb	w4, [x1]
 564 0730 C6040051 		sub	w6, w6, #1
 565 0734 BF00066B 		cmp	w5, w6
 566 0738 010840A9 		ldp	x1, x2, [x0]
 567 073c 21040091 		add	x1, x1, 1
AARCH64 GAS  C:\Users\A01169~1\AppData\Local\Temp\ccRWduX2.s 			page 11


 568 0740 420400D1 		sub	x2, x2, #1
 569 0744 010800A9 		stp	x1, x2, [x0]
 570 0748 01FFFF54 		bne	.L149
 571              	.L150:
 572 074c E300034B 		sub	w3, w7, w3
 573 0750 6300090B 		add	w3, w3, w9
 574              	.L147:
 575 0754 7F01076B 		cmp	w11, w7
 576 0758 4A110054 		bge	.L223
 577 075c 04048052 		mov	w4, 32
 578 0760 9F017CF2 		tst	x12, 16
 579 0764 06068052 		mov	w6, 48
 580 0768 C610841A 		csel	w6, w6, w4, ne
 581 076c 64050051 		sub	w4, w11, #1
 582              		.p2align 3
 583              	.L152:
 584 0770 420B00B4 		cbz	x2, .L151
 585 0774 26000039 		strb	w6, [x1]
 586 0778 A5040051 		sub	w5, w5, #1
 587 077c 9F00056B 		cmp	w4, w5
 588 0780 010840A9 		ldp	x1, x2, [x0]
 589 0784 21040091 		add	x1, x1, 1
 590 0788 420400D1 		sub	x2, x2, #1
 591 078c 010800A9 		stp	x1, x2, [x0]
 592 0790 01FFFF54 		bne	.L152
 593              	.L153:
 594 0794 6701074B 		sub	w7, w11, w7
 595 0798 E300030B 		add	w3, w7, w3
 596              	.L154:
 597 079c 847C4093 		sxtw	x4, w4
 598 07a0 0A000014 		b	.L160
 599              		.p2align 2
 600              	.L225:
 601 07a4 28000039 		strb	w8, [x1]
 602 07a8 9F000071 		cmp	w4, 0
 603 07ac 010840A9 		ldp	x1, x2, [x0]
 604 07b0 21040091 		add	x1, x1, 1
 605 07b4 420400D1 		sub	x2, x2, #1
 606 07b8 010800A9 		stp	x1, x2, [x0]
 607 07bc 4D0A0054 		ble	.L224
 608              	.L157:
 609 07c0 A8F05F38 		ldrb	w8, [x5, -1]
 610 07c4 840400D1 		sub	x4, x4, #1
 611              	.L160:
 612 07c8 E5E30091 		add	x5, sp, 56
 613 07cc 8500058B 		add	x5, x4, x5
 614 07d0 A2FEFFB5 		cbnz	x2, .L225
 615 07d4 21040091 		add	x1, x1, 1
 616 07d8 010000F9 		str	x1, [x0]
 617 07dc 9F000071 		cmp	w4, 0
 618 07e0 0CFFFF54 		bgt	.L157
 619 07e4 64040051 		sub	w4, w3, #1
 620 07e8 22008052 		mov	w2, 1
 621 07ec 4B000B4B 		sub	w11, w2, w11
 622 07f0 63000B0B 		add	w3, w3, w11
 623 07f4 8B000B0B 		add	w11, w4, w11
 624 07f8 63080051 		sub	w3, w3, #2
AARCH64 GAS  C:\Users\A01169~1\AppData\Local\Temp\ccRWduX2.s 			page 12


 625 07fc 7F010071 		cmp	w11, 0
 626 0800 ED000054 		ble	.L129
 627 0804 1F2003D5 		.p2align 3
 628              	.L164:
 629 0808 21040091 		add	x1, x1, 1
 630 080c 010000F9 		str	x1, [x0]
 631 0810 7F000071 		cmp	w3, 0
 632 0814 63040051 		sub	w3, w3, #1
 633 0818 8CFFFF54 		bgt	.L164
 634              	.L129:
 635 081c FF430191 		add	sp, sp, 80
 636 0820 C0035FD6 		ret
 637              		.p2align 2
 638              	.L170:
 639 0824 0D008052 		mov	w13, 0
 640              	.L133:
 641 0828 477C4093 		sxtw	x7, w2
 642 082c 220080D2 		mov	x2, 1
 643              		.p2align 3
 644              	.L135:
 645 0830 2808C79A 		udiv	x8, x1, x7
 646 0834 E6E30091 		add	x6, sp, 56
 647 0838 C600028B 		add	x6, x6, x2
 648 083c 3F0007EB 		cmp	x1, x7
 649 0840 EB03022A 		mov	w11, w2
 650 0844 42040091 		add	x2, x2, 1
 651 0848 0985079B 		msub	x9, x8, x7, x1
 652 084c E10308AA 		mov	x1, x8
 653 0850 48696938 		ldrb	w8, [x10, x9]
 654 0854 C8F01F38 		strb	w8, [x6, -1]
 655 0858 C2FEFF54 		bcs	.L135
 656 085c 7F01046B 		cmp	w11, w4
 657 0860 67A1841A 		csel	w7, w11, w4, ge
 658 0864 8DF0FF34 		cbz	w13, .L134
 659              	.L136:
 660 0868 63040051 		sub	w3, w3, #1
 661 086c 84011E12 		and	w4, w12, 4
 662 0870 CCF01737 		tbnz	x12, 2, .L166
 663 0874 86010012 		and	w6, w12, 1
 664 0878 010840A9 		ldp	x1, x2, [x0]
 665 087c EDF0FF35 		cbnz	w13, .L226
 666              	.L139:
 667 0880 C6F1FF34 		cbz	w6, .L141
 668              	.L227:
 669 0884 9F017DF2 		tst	x12, 8
 670 0888 06048052 		mov	w6, 32
 671 088c 69058052 		mov	w9, 43
 672 0890 C610891A 		csel	w6, w6, w9, ne
 673 0894 E2F0FFB4 		cbz	x2, .L143
 674 0898 26000039 		strb	w6, [x1]
 675 089c 010840A9 		ldp	x1, x2, [x0]
 676 08a0 420400D1 		sub	x2, x2, #1
 677 08a4 020400F9 		str	x2, [x0, 8]
 678 08a8 82FFFF17 		b	.L143
 679              		.p2align 2
 680              	.L148:
 681 08ac 21040091 		add	x1, x1, 1
AARCH64 GAS  C:\Users\A01169~1\AppData\Local\Temp\ccRWduX2.s 			page 13


 682 08b0 010000F9 		str	x1, [x0]
 683 08b4 C6040051 		sub	w6, w6, #1
 684 08b8 DF00056B 		cmp	w6, w5
 685 08bc 80F4FF54 		beq	.L150
 686 08c0 21040091 		add	x1, x1, 1
 687 08c4 010000F9 		str	x1, [x0]
 688 08c8 C6040051 		sub	w6, w6, #1
 689 08cc DF00056B 		cmp	w6, w5
 690 08d0 E1FEFF54 		bne	.L148
 691 08d4 9EFFFF17 		b	.L150
 692              		.p2align 2
 693              	.L151:
 694 08d8 21040091 		add	x1, x1, 1
 695 08dc 010000F9 		str	x1, [x0]
 696 08e0 A5040051 		sub	w5, w5, #1
 697 08e4 BF00046B 		cmp	w5, w4
 698 08e8 60F5FF54 		beq	.L153
 699 08ec 21040091 		add	x1, x1, 1
 700 08f0 010000F9 		str	x1, [x0]
 701 08f4 A5040051 		sub	w5, w5, #1
 702 08f8 BF00046B 		cmp	w5, w4
 703 08fc E1FEFF54 		bne	.L151
 704 0900 A5FFFF17 		b	.L153
 705              		.p2align 2
 706              	.L224:
 707 0904 24008052 		mov	w4, 1
 708 0908 65040051 		sub	w5, w3, #1
 709 090c 8B000B4B 		sub	w11, w4, w11
 710 0910 04048052 		mov	w4, 32
 711 0914 63000B0B 		add	w3, w3, w11
 712 0918 6B01050B 		add	w11, w11, w5
 713 091c 63080051 		sub	w3, w3, #2
 714 0920 7F010071 		cmp	w11, 0
 715 0924 CDF7FF54 		ble	.L129
 716              		.p2align 3
 717              	.L161:
 718 0928 02F7FFB4 		cbz	x2, .L164
 719 092c 24000039 		strb	w4, [x1]
 720 0930 7F000071 		cmp	w3, 0
 721 0934 63040051 		sub	w3, w3, #1
 722 0938 010840A9 		ldp	x1, x2, [x0]
 723 093c 21040091 		add	x1, x1, 1
 724 0940 420400D1 		sub	x2, x2, #1
 725 0944 010800A9 		stp	x1, x2, [x0]
 726 0948 0CFFFF54 		bgt	.L161
 727 094c FF430191 		add	sp, sp, 80
 728 0950 C0035FD6 		ret
 729              	.L173:
 730 0954 E303092A 		mov	w3, w9
 731              		.p2align 3
 732              	.L216:
 733 0958 E5040051 		sub	w5, w7, #1
 734 095c 7EFFFF17 		b	.L147
 735              		.p2align 2
 736              	.L221:
 737 0960 0D008052 		mov	w13, 0
 738 0964 C1FFFF17 		b	.L136
AARCH64 GAS  C:\Users\A01169~1\AppData\Local\Temp\ccRWduX2.s 			page 14


 739              		.p2align 2
 740              	.L220:
 741 0968 E10301CB 		neg	x1, x1
 742 096c 2D008052 		mov	w13, 1
 743 0970 AEFFFF17 		b	.L133
 744              		.p2align 2
 745              	.L222:
 746 0974 010840A9 		ldp	x1, x2, [x0]
 747 0978 06EAFF34 		cbz	w6, .L141
 748 097c C2FFFF17 		b	.L227
 749              		.p2align 2
 750              	.L223:
 751 0980 64050051 		sub	w4, w11, #1
 752 0984 86FFFF17 		b	.L154
 753              		.size	cprint_int.constprop.3, .-cprint_int.constprop.3
 754              		.align	2
 755 0988 1F2003D5 		.p2align 4,,15
 755      1F2003D5 
 756              		.global	kprintf
 757              		.type	kprintf, %function
 758              	kprintf:
 759 0990 F353AEA9 		stp	x19, x20, [sp, -288]!
 760 0994 F30300AA 		mov	x19, x0
 761 0998 E0068012 		mov	w0, -56
 762 099c F55B01A9 		stp	x21, x22, [sp, 16]
 763 09a0 F603002A 		mov	w22, w0
 764 09a4 E9830391 		add	x9, sp, 224
 765 09a8 E80F8012 		mov	w8, -128
 766 09ac F5830491 		add	x21, sp, 288
 767 09b0 F76302A9 		stp	x23, x24, [sp, 32]
 768 09b4 FE1B00F9 		str	x30, [sp, 48]
 769 09b8 F55704A9 		stp	x21, x21, [sp, 64]
 770 09bc E92B00F9 		str	x9, [sp, 80]
 771 09c0 E0230B29 		stp	w0, w8, [sp, 88]
 772 09c4 E01B803D 		str	q0, [sp, 96]
 773 09c8 E11F803D 		str	q1, [sp, 112]
 774 09cc E223803D 		str	q2, [sp, 128]
 775 09d0 E327803D 		str	q3, [sp, 144]
 776 09d4 E42B803D 		str	q4, [sp, 160]
 777 09d8 E52F803D 		str	q5, [sp, 176]
 778 09dc E633803D 		str	q6, [sp, 192]
 779 09e0 E737803D 		str	q7, [sp, 208]
 780 09e4 E18B0EA9 		stp	x1, x2, [sp, 232]
 781 09e8 E3930FA9 		stp	x3, x4, [sp, 248]
 782 09ec E59B10A9 		stp	x5, x6, [sp, 264]
 783 09f0 E78F00F9 		str	x7, [sp, 280]
 784              	.L229:
 785 09f4 60024039 		ldrb	w0, [x19]
 786 09f8 20010034 		cbz	w0, .L512
 787              	.L322:
 788 09fc 73060091 		add	x19, x19, 1
 789 0a00 1F940071 		cmp	w0, 37
 790 0a04 60010054 		beq	.L230
 791              	.L497:
 792 0a08 02008012 		mov	w2, -1
 793 0a0c 21008052 		mov	w1, 1
 794 0a10 00000094 		bl	hal_video_putc
AARCH64 GAS  C:\Users\A01169~1\AppData\Local\Temp\ccRWduX2.s 			page 15


 795 0a14 60024039 		ldrb	w0, [x19]
 796 0a18 20FFFF35 		cbnz	w0, .L322
 797              	.L512:
 798 0a1c F55B41A9 		ldp	x21, x22, [sp, 16]
 799 0a20 F76342A9 		ldp	x23, x24, [sp, 32]
 800 0a24 FE1B40F9 		ldr	x30, [sp, 48]
 801 0a28 F353D2A8 		ldp	x19, x20, [sp], 288
 802 0a2c C0035FD6 		ret
 803              		.p2align 2
 804              	.L230:
 805 0a30 6C060091 		add	x12, x19, 1
 806 0a34 80F15F38 		ldrb	w0, [x12, -1]
 807 0a38 81621912 		and	w1, w20, -128
 808 0a3c 03008052 		mov	w3, 0
 809 0a40 F403012A 		mov	w20, w1
 810 0a44 0A008052 		mov	w10, 0
 811 0a48 06008052 		mov	w6, 0
 812 0a4c 0B008052 		mov	w11, 0
 813 0a50 08008052 		mov	w8, 0
 814 0a54 02008052 		mov	w2, 0
 815 0a58 09008052 		mov	w9, 0
 816 0a5c 05008052 		mov	w5, 0
 817 0a60 07008052 		mov	w7, 0
 818 0a64 E4030CAA 		mov	x4, x12
 819 0a68 1FAC0071 		cmp	w0, 43
 820 0a6c C0010054 		beq	.L344
 821              		.p2align 3
 822              	.L513:
 823 0a70 68150054 		bhi	.L234
 824 0a74 1F800071 		cmp	w0, 32
 825 0a78 40090054 		beq	.L345
 826 0a7c 1F8C0071 		cmp	w0, 35
 827 0a80 81010054 		bne	.L235
 828 0a84 28008052 		mov	w8, 1
 829 0a88 F3030CAA 		mov	x19, x12
 830 0a8c E203082A 		mov	w2, w8
 831              	.L514:
 832 0a90 6C060091 		add	x12, x19, 1
 833 0a94 80F15F38 		ldrb	w0, [x12, -1]
 834 0a98 E4030CAA 		mov	x4, x12
 835 0a9c 1FAC0071 		cmp	w0, 43
 836 0aa0 81FEFF54 		bne	.L513
 837              	.L344:
 838 0aa4 27008052 		mov	w7, 1
 839 0aa8 F3030CAA 		mov	x19, x12
 840 0aac F9FFFF17 		b	.L514
 841              		.p2align 2
 842              	.L235:
 843 0ab0 FF000071 		cmp	w7, 0
 844 0ab4 21000032 		orr	w1, w1, 1
 845 0ab8 9402811A 		csel	w20, w20, w1, eq
 846 0abc 3F010071 		cmp	w9, 0
 847 0ac0 87060153 		ubfx	w7, w20, 1, 1
 848 0ac4 E700851A 		csel	w7, w7, w5, eq
 849 0ac8 1F010071 		cmp	w8, 0
 850 0acc F4001F33 		bfi	w20, w7, 1, 1
 851 0ad0 850A0253 		ubfx	w5, w20, 2, 1
AARCH64 GAS  C:\Users\A01169~1\AppData\Local\Temp\ccRWduX2.s 			page 16


 852 0ad4 A500821A 		csel	w5, w5, w2, eq
 853 0ad8 DF000071 		cmp	w6, 0
 854 0adc B4001E33 		bfi	w20, w5, 2, 1
 855 0ae0 820E0353 		ubfx	w2, w20, 3, 1
 856 0ae4 42008B1A 		csel	w2, w2, w11, eq
 857 0ae8 7F000071 		cmp	w3, 0
 858 0aec 54001D33 		bfi	w20, w2, 3, 1
 859 0af0 81120453 		ubfx	w1, w20, 4, 1
 860 0af4 21008A1A 		csel	w1, w1, w10, eq
 861 0af8 1FA80071 		cmp	w0, 42
 862 0afc 34001C33 		bfi	w20, w1, 4, 1
 863 0b00 00170054 		beq	.L515
 864 0b04 01C00051 		sub	w1, w0, #48
 865 0b08 02008052 		mov	w2, 0
 866 0b0c 231C0012 		and	w3, w1, 255
 867 0b10 7F240071 		cmp	w3, 9
 868 0b14 89220054 		bls	.L516
 869              	.L245:
 870 0b18 1FB80071 		cmp	w0, 46
 871 0b1c 03008012 		mov	w3, -1
 872 0b20 60110054 		beq	.L517
 873              	.L247:
 874 0b24 1FB00171 		cmp	w0, 108
 875 0b28 00130054 		beq	.L253
 876              	.L528:
 877 0b2c 28040054 		bhi	.L254
 878 0b30 1FA00171 		cmp	w0, 104
 879 0b34 61040054 		bne	.L256
 880 0b38 60064039 		ldrb	w0, [x19, 1]
 881 0b3c 1FA00171 		cmp	w0, 104
 882 0b40 E0230054 		beq	.L518
 883 0b44 640A0091 		add	x4, x19, 2
 884 0b48 1FA40171 		cmp	w0, 105
 885 0b4c 401F0054 		beq	.L323
 886 0b50 491E0054 		bls	.L519
 887 0b54 1FCC0171 		cmp	w0, 115
 888 0b58 400B0054 		beq	.L367
 889 0b5c E9210054 		bls	.L520
 890 0b60 1FD40171 		cmp	w0, 117
 891 0b64 C02E0054 		beq	.L363
 892 0b68 1FE00171 		cmp	w0, 120
 893 0b6c 61090054 		bne	.L264
 894 0b70 94761B12 		and	w20, w20, -25
 895 0b74 01028052 		mov	w1, 16
 896 0b78 9402012A 		orr	w20, w20, w1
 897              	.L328:
 898 0b7c 362AF837 		tbnz	w22, #31, .L300
 899              		.p2align 3
 900              	.L479:
 901 0b80 E00315AA 		mov	x0, x21
 902 0b84 B5220091 		add	x21, x21, 8
 903              	.L301:
 904 0b88 00004079 		ldrh	w0, [x0]
 905              	.L299:
 906 0b8c 7F040031 		cmn	w3, #1
 907 0b90 01040054 		bne	.L343
 908              	.L360:
AARCH64 GAS  C:\Users\A01169~1\AppData\Local\Temp\ccRWduX2.s 			page 17


 909 0b94 F30304AA 		mov	x19, x4
 910 0b98 03008052 		mov	w3, 0
 911 0b9c 1E000014 		b	.L309
 912              		.p2align 2
 913              	.L345:
 914 0ba0 26008052 		mov	w6, 1
 915 0ba4 F3030CAA 		mov	x19, x12
 916 0ba8 EB03062A 		mov	w11, w6
 917 0bac B9FFFF17 		b	.L514
 918              		.p2align 2
 919              	.L254:
 920 0bb0 1FD00171 		cmp	w0, 116
 921 0bb4 E0160054 		beq	.L257
 922 0bb8 1FE80171 		cmp	w0, 122
 923 0bbc A0160054 		beq	.L257
 924              	.L256:
 925 0bc0 1FA40171 		cmp	w0, 105
 926 0bc4 80050054 		beq	.L330
 927 0bc8 C9020054 		bls	.L521
 928 0bcc 1FCC0171 		cmp	w0, 115
 929 0bd0 80070054 		beq	.L367
 930 0bd4 C9050054 		bls	.L522
 931 0bd8 1FD40171 		cmp	w0, 117
 932 0bdc 80190054 		beq	.L366
 933 0be0 1FE00171 		cmp	w0, 120
 934 0be4 A1050054 		bne	.L264
 935 0be8 94761B12 		and	w20, w20, -25
 936 0bec 01028052 		mov	w1, 16
 937 0bf0 9402012A 		orr	w20, w20, w1
 938              	.L335:
 939 0bf4 D625F837 		tbnz	w22, #31, .L303
 940              		.p2align 3
 941              	.L480:
 942 0bf8 E00315AA 		mov	x0, x21
 943 0bfc B5220091 		add	x21, x21, 8
 944 0c00 000040B9 		ldr	w0, [x0]
 945              	.L534:
 946 0c04 7F040031 		cmn	w3, #1
 947 0c08 60FCFF54 		beq	.L360
 948 0c0c 1F2003D5 		.p2align 3
 949              	.L343:
 950 0c10 F30304AA 		mov	x19, x4
 951              	.L309:
 952 0c14 E403142A 		mov	w4, w20
 953 0c18 BEFDFF97 		bl	cprint_int.constprop.5
 954 0c1c 76FFFF17 		b	.L229
 955              		.p2align 2
 956              	.L521:
 957 0c20 1F600171 		cmp	w0, 88
 958 0c24 80200054 		beq	.L332
 959 0c28 29010054 		bls	.L496
 960 0c2c 1F8C0171 		cmp	w0, 99
 961 0c30 E1010054 		bne	.L523
 962              	.L265:
 963 0c34 7621F837 		tbnz	w22, #31, .L310
 964              	.L483:
 965 0c38 E00315AA 		mov	x0, x21
AARCH64 GAS  C:\Users\A01169~1\AppData\Local\Temp\ccRWduX2.s 			page 18


 966 0c3c B5220091 		add	x21, x21, 8
 967              	.L311:
 968 0c40 00004039 		ldrb	w0, [x0]
 969 0c44 F30304AA 		mov	x19, x4
 970 0c48 70FFFF17 		b	.L497
 971              		.p2align 2
 972              	.L496:
 973 0c4c 1F940071 		cmp	w0, 37
 974 0c50 41020054 		bne	.L264
 975              	.L320:
 976 0c54 F30304AA 		mov	x19, x4
 977 0c58 02008012 		mov	w2, -1
 978 0c5c 21008052 		mov	w1, 1
 979 0c60 A0048052 		mov	w0, 37
 980 0c64 00000094 		bl	hal_video_putc
 981 0c68 63FFFF17 		b	.L229
 982              		.p2align 2
 983              	.L523:
 984 0c6c 1F900171 		cmp	w0, 100
 985 0c70 41010054 		bne	.L264
 986              	.L330:
 987 0c74 D62AF837 		tbnz	w22, #31, .L286
 988              	.L476:
 989 0c78 E00315AA 		mov	x0, x21
 990 0c7c B5220091 		add	x21, x21, 8
 991              	.L287:
 992 0c80 F30304AA 		mov	x19, x4
 993 0c84 000080B9 		ldrsw	x0, [x0]
 994 0c88 DE000014 		b	.L282
 995              		.p2align 2
 996              	.L522:
 997 0c8c 1FC00171 		cmp	w0, 112
 998 0c90 85008052 		mov	w5, 4
 999 0c94 A00D0054 		beq	.L268
 1000              		.p2align 3
 1001              	.L264:
 1002 0c98 81004039 		ldrb	w1, [x4]
 1003 0c9c 3F940071 		cmp	w1, 37
 1004 0ca0 81000054 		bne	.L321
 1005 0ca4 70010014 		b	.L524
 1006              		.p2align 2
 1007              	.L525:
 1008 0ca8 E40300AA 		mov	x4, x0
 1009 0cac 00F05F38 		ldrb	w0, [x0, -1]
 1010              	.L321:
 1011 0cb0 1F940071 		cmp	w0, 37
 1012 0cb4 800400D1 		sub	x0, x4, #1
 1013 0cb8 81FFFF54 		bne	.L525
 1014 0cbc E6FFFF17 		b	.L320
 1015              		.p2align 2
 1016              	.L367:
 1017 0cc0 F30304AA 		mov	x19, x4
 1018 0cc4 3617F837 		tbnz	w22, #31, .L313
 1019              	.L484:
 1020 0cc8 E00315AA 		mov	x0, x21
 1021 0ccc B5220091 		add	x21, x21, 8
 1022              	.L314:
AARCH64 GAS  C:\Users\A01169~1\AppData\Local\Temp\ccRWduX2.s 			page 19


 1023 0cd0 7F040031 		cmn	w3, #1
 1024 0cd4 170040F9 		ldr	x23, [x0]
 1025 0cd8 E01C0054 		beq	.L316
 1026 0cdc C3E8FF34 		cbz	w3, .L229
 1027 0ce0 E0024039 		ldrb	w0, [x23]
 1028 0ce4 80E8FF34 		cbz	w0, .L229
 1029 0ce8 78040051 		sub	w24, w3, #1
 1030 0cec 18070091 		add	x24, x24, 1
 1031 0cf0 F802188B 		add	x24, x23, x24
 1032 0cf4 03000014 		b	.L319
 1033              		.p2align 2
 1034              	.L526:
 1035 0cf8 E0024039 		ldrb	w0, [x23]
 1036 0cfc C0E7FF34 		cbz	w0, .L229
 1037              	.L319:
 1038 0d00 F7060091 		add	x23, x23, 1
 1039 0d04 02008012 		mov	w2, -1
 1040 0d08 21008052 		mov	w1, 1
 1041 0d0c 00000094 		bl	hal_video_putc
 1042 0d10 FF0218EB 		cmp	x23, x24
 1043 0d14 21FFFF54 		bne	.L526
 1044 0d18 37FFFF17 		b	.L229
 1045              		.p2align 2
 1046              	.L234:
 1047 0d1c 1FB40071 		cmp	w0, 45
 1048 0d20 E0000054 		beq	.L347
 1049 0d24 1FC00071 		cmp	w0, 48
 1050 0d28 41ECFF54 		bne	.L235
 1051 0d2c 23008052 		mov	w3, 1
 1052 0d30 F3030CAA 		mov	x19, x12
 1053 0d34 EA03032A 		mov	w10, w3
 1054 0d38 56FFFF17 		b	.L514
 1055              		.p2align 2
 1056              	.L347:
 1057 0d3c 29008052 		mov	w9, 1
 1058 0d40 F3030CAA 		mov	x19, x12
 1059 0d44 E503092A 		mov	w5, w9
 1060 0d48 52FFFF17 		b	.L514
 1061              		.p2align 2
 1062              	.L517:
 1063 0d4c 60064039 		ldrb	w0, [x19, 1]
 1064 0d50 1FA80071 		cmp	w0, 42
 1065 0d54 010B0054 		bne	.L527
 1066 0d58 610A0091 		add	x1, x19, 2
 1067 0d5c 761EF837 		tbnz	w22, #31, .L250
 1068              	.L473:
 1069 0d60 E00315AA 		mov	x0, x21
 1070 0d64 B5220091 		add	x21, x21, 8
 1071              	.L251:
 1072 0d68 030040B9 		ldr	w3, [x0]
 1073 0d6c 640E0091 		add	x4, x19, 3
 1074 0d70 600A4039 		ldrb	w0, [x19, 2]
 1075 0d74 F30301AA 		mov	x19, x1
 1076 0d78 7F000071 		cmp	w3, 0
 1077 0d7c 63A09F1A 		csel	w3, w3, wzr, ge
 1078 0d80 1FB00171 		cmp	w0, 108
 1079 0d84 41EDFF54 		bne	.L528
AARCH64 GAS  C:\Users\A01169~1\AppData\Local\Temp\ccRWduX2.s 			page 20


 1080              		.p2align 3
 1081              	.L253:
 1082 0d88 60064039 		ldrb	w0, [x19, 1]
 1083 0d8c 1FB00171 		cmp	w0, 108
 1084 0d90 60140054 		beq	.L529
 1085 0d94 84040091 		add	x4, x4, 1
 1086 0d98 1FA40171 		cmp	w0, 105
 1087 0d9c 40040054 		beq	.L272
 1088              	.L510:
 1089 0da0 49030054 		bls	.L530
 1090 0da4 1FCC0171 		cmp	w0, 115
 1091 0da8 C0F8FF54 		beq	.L367
 1092 0dac 89040054 		bls	.L531
 1093 0db0 1FD40171 		cmp	w0, 117
 1094 0db4 A0070054 		beq	.L369
 1095 0db8 1FE00171 		cmp	w0, 120
 1096 0dbc E1F6FF54 		bne	.L264
 1097 0dc0 94761B12 		and	w20, w20, -25
 1098 0dc4 01028052 		mov	w1, 16
 1099 0dc8 9402012A 		orr	w20, w20, w1
 1100              	.L277:
 1101 0dcc 5618F837 		tbnz	w22, #31, .L306
 1102              		.p2align 3
 1103              	.L481:
 1104 0dd0 E00315AA 		mov	x0, x21
 1105 0dd4 B5220091 		add	x21, x21, 8
 1106 0dd8 000040F9 		ldr	x0, [x0]
 1107 0ddc 6CFFFF17 		b	.L299
 1108              		.p2align 2
 1109              	.L515:
 1110 0de0 D608F837 		tbnz	w22, #31, .L242
 1111              	.L472:
 1112 0de4 E00315AA 		mov	x0, x21
 1113 0de8 B5220091 		add	x21, x21, 8
 1114              	.L243:
 1115 0dec 020040B9 		ldr	w2, [x0]
 1116 0df0 640A0091 		add	x4, x19, 2
 1117 0df4 60064039 		ldrb	w0, [x19, 1]
 1118 0df8 F3030CAA 		mov	x19, x12
 1119 0dfc 5F000071 		cmp	w2, 0
 1120 0e00 42A09F1A 		csel	w2, w2, wzr, ge
 1121 0e04 45FFFF17 		b	.L245
 1122              		.p2align 2
 1123              	.L530:
 1124 0e08 1F600171 		cmp	w0, 88
 1125 0e0c E0190054 		beq	.L338
 1126 0e10 E9F1FF54 		bls	.L496
 1127 0e14 1F8C0171 		cmp	w0, 99
 1128 0e18 E0F0FF54 		beq	.L265
 1129 0e1c 1F900171 		cmp	w0, 100
 1130 0e20 C1F3FF54 		bne	.L264
 1131              	.L272:
 1132 0e24 F61DF837 		tbnz	w22, #31, .L289
 1133              		.p2align 3
 1134              	.L477:
 1135 0e28 E00315AA 		mov	x0, x21
 1136 0e2c B5220091 		add	x21, x21, 8
AARCH64 GAS  C:\Users\A01169~1\AppData\Local\Temp\ccRWduX2.s 			page 21


 1137              	.L290:
 1138 0e30 F30304AA 		mov	x19, x4
 1139 0e34 000040F9 		ldr	x0, [x0]
 1140 0e38 72000014 		b	.L282
 1141              		.p2align 2
 1142              	.L531:
 1143 0e3c 1FC00171 		cmp	w0, 112
 1144 0e40 05018052 		mov	w5, 8
 1145 0e44 A1F2FF54 		bne	.L264
 1146              	.L268:
 1147 0e48 94021E32 		orr	w20, w20, 4
 1148 0e4c 7F040031 		cmn	w3, #1
 1149 0e50 000B8012 		mov	w0, -89
 1150 0e54 9402000A 		and	w20, w20, w0
 1151 0e58 01028052 		mov	w1, 16
 1152 0e5c 000A8052 		mov	w0, 80
 1153 0e60 6310811A 		csel	w3, w3, w1, ne
 1154 0e64 9402002A 		orr	w20, w20, w0
 1155 0e68 BF080071 		cmp	w5, 2
 1156 0e6c 80E8FF54 		beq	.L328
 1157 0e70 EC060054 		bgt	.L342
 1158 0e74 BF040071 		cmp	w5, 1
 1159 0e78 21070054 		bne	.L482
 1160 0e7c F610F837 		tbnz	w22, #31, .L296
 1161              	.L478:
 1162 0e80 E00315AA 		mov	x0, x21
 1163 0e84 B5220091 		add	x21, x21, 8
 1164 0e88 00004039 		ldrb	w0, [x0]
 1165 0e8c 40FFFF17 		b	.L299
 1166              		.p2align 2
 1167              	.L257:
 1168 0e90 60064039 		ldrb	w0, [x19, 1]
 1169 0e94 640A0091 		add	x4, x19, 2
 1170 0e98 1FA40171 		cmp	w0, 105
 1171 0e9c 21F8FF54 		bne	.L510
 1172 0ea0 56FCFF36 		tbz	w22, #31, .L477
 1173 0ea4 CF000014 		b	.L289
 1174              		.p2align 2
 1175              	.L369:
 1176 0ea8 41018052 		mov	w1, 10
 1177 0eac 36F9FF36 		tbz	w22, #31, .L481
 1178 0eb0 89000014 		b	.L306
 1179              		.p2align 2
 1180              	.L527:
 1181 0eb4 01C00051 		sub	w1, w0, #48
 1182 0eb8 03008052 		mov	w3, 0
 1183 0ebc 251C0012 		and	w5, w1, 255
 1184 0ec0 46018052 		mov	w6, 10
 1185 0ec4 BF240071 		cmp	w5, 9
 1186 0ec8 69000054 		bls	.L249
 1187 0ecc E3000014 		b	.L532
 1188              		.p2align 2
 1189              	.L353:
 1190 0ed0 E40313AA 		mov	x4, x19
 1191              	.L249:
 1192 0ed4 80044039 		ldrb	w0, [x4, 1]
 1193 0ed8 6304061B 		madd	w3, w3, w6, w1
AARCH64 GAS  C:\Users\A01169~1\AppData\Local\Temp\ccRWduX2.s 			page 22


 1194 0edc 93040091 		add	x19, x4, 1
 1195 0ee0 01C00051 		sub	w1, w0, #48
 1196 0ee4 251C0012 		and	w5, w1, 255
 1197 0ee8 BF240071 		cmp	w5, 9
 1198 0eec 29FFFF54 		bls	.L353
 1199 0ef0 84080091 		add	x4, x4, 2
 1200 0ef4 0CFFFF17 		b	.L247
 1201              		.p2align 2
 1202              	.L242:
 1203 0ef8 C1220011 		add	w1, w22, 8
 1204 0efc 3F000071 		cmp	w1, 0
 1205 0f00 8D0A0054 		ble	.L244
 1206 0f04 F603012A 		mov	w22, w1
 1207 0f08 B7FFFF17 		b	.L472
 1208              		.p2align 2
 1209              	.L366:
 1210 0f0c 41018052 		mov	w1, 10
 1211 0f10 56E7FF36 		tbz	w22, #31, .L480
 1212 0f14 66000014 		b	.L303
 1213              		.p2align 2
 1214              	.L519:
 1215 0f18 1F600171 		cmp	w0, 88
 1216 0f1c 00190054 		beq	.L325
 1217 0f20 69E9FF54 		bls	.L496
 1218 0f24 1F8C0171 		cmp	w0, 99
 1219 0f28 60E8FF54 		beq	.L265
 1220 0f2c 1F900171 		cmp	w0, 100
 1221 0f30 41EBFF54 		bne	.L264
 1222              	.L323:
 1223 0f34 B616F837 		tbnz	w22, #31, .L283
 1224              	.L475:
 1225 0f38 E00315AA 		mov	x0, x21
 1226 0f3c B5220091 		add	x21, x21, 8
 1227              	.L284:
 1228 0f40 00008079 		ldrsh	x0, [x0]
 1229 0f44 F30304AA 		mov	x19, x4
 1230 0f48 2E000014 		b	.L282
 1231              		.p2align 2
 1232              	.L342:
 1233 0f4c BF100071 		cmp	w5, 4
 1234 0f50 20E5FF54 		beq	.L335
 1235 0f54 BF200071 		cmp	w5, 8
 1236 0f58 A0F3FF54 		beq	.L277
 1237              	.L482:
 1238 0f5c 000080D2 		mov	x0, 0
 1239 0f60 2CFFFF17 		b	.L343
 1240              		.p2align 2
 1241              	.L516:
 1242 0f64 44018052 		mov	w4, 10
 1243 0f68 03000014 		b	.L246
 1244              		.p2align 2
 1245              	.L350:
 1246 0f6c F3030CAA 		mov	x19, x12
 1247 0f70 8C050091 		add	x12, x12, 1
 1248              	.L246:
 1249 0f74 80014039 		ldrb	w0, [x12]
 1250 0f78 4204041B 		madd	w2, w2, w4, w1
AARCH64 GAS  C:\Users\A01169~1\AppData\Local\Temp\ccRWduX2.s 			page 23


 1251 0f7c 01C00051 		sub	w1, w0, #48
 1252 0f80 231C0012 		and	w3, w1, 255
 1253 0f84 7F240071 		cmp	w3, 9
 1254 0f88 29FFFF54 		bls	.L350
 1255 0f8c 640A0091 		add	x4, x19, 2
 1256 0f90 F3030CAA 		mov	x19, x12
 1257 0f94 E1FEFF17 		b	.L245
 1258              		.p2align 2
 1259              	.L520:
 1260 0f98 1FC00171 		cmp	w0, 112
 1261 0f9c 45008052 		mov	w5, 2
 1262 0fa0 40F5FF54 		beq	.L268
 1263 0fa4 3DFFFF17 		b	.L264
 1264              		.p2align 2
 1265              	.L313:
 1266 0fa8 C1220011 		add	w1, w22, 8
 1267 0fac 3F000071 		cmp	w1, 0
 1268 0fb0 ED130054 		ble	.L315
 1269 0fb4 F603012A 		mov	w22, w1
 1270 0fb8 44FFFF17 		b	.L484
 1271              		.p2align 2
 1272              	.L518:
 1273 0fbc 600A4039 		ldrb	w0, [x19, 2]
 1274 0fc0 640E0091 		add	x4, x19, 3
 1275 0fc4 1FA40171 		cmp	w0, 105
 1276 0fc8 20010054 		beq	.L259
 1277 0fcc E8080054 		bhi	.L260
 1278 0fd0 1F600171 		cmp	w0, 88
 1279 0fd4 C0140054 		beq	.L261
 1280 0fd8 A9E3FF54 		bls	.L496
 1281 0fdc 1F8C0171 		cmp	w0, 99
 1282 0fe0 A0E2FF54 		beq	.L265
 1283 0fe4 1F900171 		cmp	w0, 100
 1284 0fe8 81E5FF54 		bne	.L264
 1285              	.L259:
 1286 0fec 5610F837 		tbnz	w22, #31, .L279
 1287              	.L474:
 1288 0ff0 E00315AA 		mov	x0, x21
 1289 0ff4 B5220091 		add	x21, x21, 8
 1290              	.L280:
 1291 0ff8 00008039 		ldrsb	x0, [x0]
 1292 0ffc F30304AA 		mov	x19, x4
 1293              	.L282:
 1294 1000 7F040031 		cmn	w3, #1
 1295 1004 84021B32 		orr	w4, w20, 32
 1296 1008 63109F1A 		csel	w3, w3, wzr, ne
 1297 100c F403042A 		mov	w20, w4
 1298 1010 41018052 		mov	w1, 10
 1299 1014 BFFCFF97 		bl	cprint_int.constprop.5
 1300 1018 77FEFF17 		b	.L229
 1301              		.p2align 2
 1302              	.L529:
 1303 101c 600A4039 		ldrb	w0, [x19, 2]
 1304 1020 640A0091 		add	x4, x19, 2
 1305 1024 84040091 		add	x4, x4, 1
 1306 1028 1FA40171 		cmp	w0, 105
 1307 102c A1EBFF54 		bne	.L510
AARCH64 GAS  C:\Users\A01169~1\AppData\Local\Temp\ccRWduX2.s 			page 24


 1308 1030 7DFFFF17 		b	.L272
 1309              		.p2align 2
 1310              	.L332:
 1311 1034 000B8012 		mov	w0, -89
 1312 1038 9402000A 		and	w20, w20, w0
 1313 103c 01028052 		mov	w1, 16
 1314 1040 000A8052 		mov	w0, 80
 1315 1044 9402002A 		orr	w20, w20, w0
 1316 1048 96DDFF36 		tbz	w22, #31, .L480
 1317 104c 18000014 		b	.L303
 1318              		.p2align 2
 1319              	.L244:
 1320 1050 E0830491 		add	x0, sp, 288
 1321 1054 00C0368B 		add	x0, x0, x22, sxtw
 1322 1058 F603012A 		mov	w22, w1
 1323 105c 64FFFF17 		b	.L243
 1324              		.p2align 2
 1325              	.L310:
 1326 1060 C1220011 		add	w1, w22, 8
 1327 1064 3F000071 		cmp	w1, 0
 1328 1068 AD0D0054 		ble	.L312
 1329 106c F603012A 		mov	w22, w1
 1330 1070 F2FEFF17 		b	.L483
 1331              		.p2align 2
 1332              	.L316:
 1333 1074 E0024039 		ldrb	w0, [x23]
 1334 1078 E0CBFF34 		cbz	w0, .L229
 1335 107c 1F2003D5 		.p2align 3
 1336              	.L318:
 1337 1080 02008012 		mov	w2, -1
 1338 1084 21008052 		mov	w1, 1
 1339 1088 00000094 		bl	hal_video_putc
 1340 108c E01E4038 		ldrb	w0, [x23, 1]!
 1341 1090 80FFFF35 		cbnz	w0, .L318
 1342 1094 58FEFF17 		b	.L229
 1343              		.p2align 2
 1344              	.L296:
 1345 1098 C5220011 		add	w5, w22, 8
 1346 109c BF000071 		cmp	w5, 0
 1347 10a0 2D080054 		ble	.L298
 1348 10a4 F603052A 		mov	w22, w5
 1349 10a8 76FFFF17 		b	.L478
 1350              		.p2align 2
 1351              	.L303:
 1352 10ac C5220011 		add	w5, w22, 8
 1353 10b0 BF000071 		cmp	w5, 0
 1354 10b4 ED060054 		ble	.L305
 1355 10b8 F603052A 		mov	w22, w5
 1356 10bc CFFEFF17 		b	.L480
 1357              		.p2align 2
 1358              	.L300:
 1359 10c0 C5220011 		add	w5, w22, 8
 1360 10c4 BF000071 		cmp	w5, 0
 1361 10c8 CD050054 		ble	.L302
 1362 10cc F603052A 		mov	w22, w5
 1363 10d0 ACFEFF17 		b	.L479
 1364              		.p2align 2
AARCH64 GAS  C:\Users\A01169~1\AppData\Local\Temp\ccRWduX2.s 			page 25


 1365              	.L306:
 1366 10d4 C5220011 		add	w5, w22, 8
 1367 10d8 BF000071 		cmp	w5, 0
 1368 10dc ED060054 		ble	.L308
 1369 10e0 F603052A 		mov	w22, w5
 1370 10e4 3BFFFF17 		b	.L481
 1371              		.p2align 2
 1372              	.L260:
 1373 10e8 1FCC0171 		cmp	w0, 115
 1374 10ec A0DEFF54 		beq	.L367
 1375 10f0 49010054 		bls	.L533
 1376 10f4 1FD40171 		cmp	w0, 117
 1377 10f8 60030054 		beq	.L356
 1378 10fc 1FE00171 		cmp	w0, 120
 1379 1100 C1DCFF54 		bne	.L264
 1380 1104 94761B12 		and	w20, w20, -25
 1381 1108 01028052 		mov	w1, 16
 1382 110c 9402012A 		orr	w20, w20, w1
 1383 1110 96EBFF36 		tbz	w22, #31, .L478
 1384 1114 E1FFFF17 		b	.L296
 1385              		.p2align 2
 1386              	.L533:
 1387 1118 1FC00171 		cmp	w0, 112
 1388 111c 25008052 		mov	w5, 1
 1389 1120 40E9FF54 		beq	.L268
 1390 1124 DDFEFF17 		b	.L264
 1391              		.p2align 2
 1392              	.L250:
 1393 1128 C3220011 		add	w3, w22, 8
 1394 112c 7F000071 		cmp	w3, 0
 1395 1130 0D020054 		ble	.L252
 1396 1134 F603032A 		mov	w22, w3
 1397 1138 0AFFFF17 		b	.L473
 1398              		.p2align 2
 1399              	.L363:
 1400 113c 41018052 		mov	w1, 10
 1401 1140 16D2FF36 		tbz	w22, #31, .L479
 1402 1144 DFFFFF17 		b	.L300
 1403              		.p2align 2
 1404              	.L338:
 1405 1148 000B8012 		mov	w0, -89
 1406 114c 9402000A 		and	w20, w20, w0
 1407 1150 01028052 		mov	w1, 16
 1408 1154 000A8052 		mov	w0, 80
 1409 1158 9402002A 		orr	w20, w20, w0
 1410 115c B6E3FF36 		tbz	w22, #31, .L481
 1411 1160 DDFFFF17 		b	.L306
 1412              		.p2align 2
 1413              	.L356:
 1414 1164 41018052 		mov	w1, 10
 1415 1168 D6E8FF36 		tbz	w22, #31, .L478
 1416 116c CBFFFF17 		b	.L296
 1417              		.p2align 2
 1418              	.L252:
 1419 1170 E0830491 		add	x0, sp, 288
 1420 1174 00C0368B 		add	x0, x0, x22, sxtw
 1421 1178 F603032A 		mov	w22, w3
AARCH64 GAS  C:\Users\A01169~1\AppData\Local\Temp\ccRWduX2.s 			page 26


 1422 117c FBFEFF17 		b	.L251
 1423              		.p2align 2
 1424              	.L302:
 1425 1180 E0830491 		add	x0, sp, 288
 1426 1184 00C0368B 		add	x0, x0, x22, sxtw
 1427 1188 F603052A 		mov	w22, w5
 1428 118c 7FFEFF17 		b	.L301
 1429              		.p2align 2
 1430              	.L305:
 1431 1190 E0830491 		add	x0, sp, 288
 1432 1194 00C0368B 		add	x0, x0, x22, sxtw
 1433 1198 F603052A 		mov	w22, w5
 1434 119c 000040B9 		ldr	w0, [x0]
 1435 11a0 99FEFF17 		b	.L534
 1436              		.p2align 2
 1437              	.L298:
 1438 11a4 E0830491 		add	x0, sp, 288
 1439 11a8 00C0368B 		add	x0, x0, x22, sxtw
 1440 11ac F603052A 		mov	w22, w5
 1441 11b0 00004039 		ldrb	w0, [x0]
 1442 11b4 76FEFF17 		b	.L299
 1443              		.p2align 2
 1444              	.L308:
 1445 11b8 E0830491 		add	x0, sp, 288
 1446 11bc 00C0368B 		add	x0, x0, x22, sxtw
 1447 11c0 F603052A 		mov	w22, w5
 1448 11c4 000040F9 		ldr	x0, [x0]
 1449 11c8 71FEFF17 		b	.L299
 1450              		.p2align 2
 1451              	.L286:
 1452 11cc C1220011 		add	w1, w22, 8
 1453 11d0 3F000071 		cmp	w1, 0
 1454 11d4 2D060054 		ble	.L288
 1455 11d8 F603012A 		mov	w22, w1
 1456 11dc A7FEFF17 		b	.L476
 1457              		.p2align 2
 1458              	.L289:
 1459 11e0 C1220011 		add	w1, w22, 8
 1460 11e4 3F000071 		cmp	w1, 0
 1461 11e8 0D060054 		ble	.L291
 1462 11ec F603012A 		mov	w22, w1
 1463 11f0 0EFFFF17 		b	.L477
 1464              		.p2align 2
 1465              	.L279:
 1466 11f4 C1220011 		add	w1, w22, 8
 1467 11f8 3F000071 		cmp	w1, 0
 1468 11fc ED050054 		ble	.L281
 1469 1200 F603012A 		mov	w22, w1
 1470 1204 7BFFFF17 		b	.L474
 1471              		.p2align 2
 1472              	.L283:
 1473 1208 C1220011 		add	w1, w22, 8
 1474 120c 3F000071 		cmp	w1, 0
 1475 1210 CD030054 		ble	.L285
 1476 1214 F603012A 		mov	w22, w1
 1477 1218 48FFFF17 		b	.L475
 1478              		.p2align 2
AARCH64 GAS  C:\Users\A01169~1\AppData\Local\Temp\ccRWduX2.s 			page 27


 1479              	.L312:
 1480 121c E0830491 		add	x0, sp, 288
 1481 1220 00C0368B 		add	x0, x0, x22, sxtw
 1482 1224 F603012A 		mov	w22, w1
 1483 1228 86FEFF17 		b	.L311
 1484              		.p2align 2
 1485              	.L315:
 1486 122c E0830491 		add	x0, sp, 288
 1487 1230 00C0368B 		add	x0, x0, x22, sxtw
 1488 1234 F603012A 		mov	w22, w1
 1489 1238 A6FEFF17 		b	.L314
 1490              		.p2align 2
 1491              	.L325:
 1492 123c 000B8012 		mov	w0, -89
 1493 1240 9402000A 		and	w20, w20, w0
 1494 1244 01028052 		mov	w1, 16
 1495 1248 000A8052 		mov	w0, 80
 1496 124c 9402002A 		orr	w20, w20, w0
 1497 1250 96C9FF36 		tbz	w22, #31, .L479
 1498 1254 9BFFFF17 		b	.L300
 1499              		.p2align 2
 1500              	.L532:
 1501 1258 F30304AA 		mov	x19, x4
 1502 125c 84040091 		add	x4, x4, 1
 1503 1260 31FEFF17 		b	.L247
 1504              		.p2align 2
 1505              	.L524:
 1506 1264 84040091 		add	x4, x4, 1
 1507 1268 7BFEFF17 		b	.L320
 1508              		.p2align 2
 1509              	.L261:
 1510 126c 000B8012 		mov	w0, -89
 1511 1270 9402000A 		and	w20, w20, w0
 1512 1274 01028052 		mov	w1, 16
 1513 1278 000A8052 		mov	w0, 80
 1514 127c 9402002A 		orr	w20, w20, w0
 1515 1280 16E0FF36 		tbz	w22, #31, .L478
 1516 1284 85FFFF17 		b	.L296
 1517              	.L285:
 1518 1288 E0830491 		add	x0, sp, 288
 1519 128c 00C0368B 		add	x0, x0, x22, sxtw
 1520 1290 F603012A 		mov	w22, w1
 1521 1294 2BFFFF17 		b	.L284
 1522              	.L288:
 1523 1298 E0830491 		add	x0, sp, 288
 1524 129c 00C0368B 		add	x0, x0, x22, sxtw
 1525 12a0 F603012A 		mov	w22, w1
 1526 12a4 77FEFF17 		b	.L287
 1527              	.L291:
 1528 12a8 E0830491 		add	x0, sp, 288
 1529 12ac 00C0368B 		add	x0, x0, x22, sxtw
 1530 12b0 F603012A 		mov	w22, w1
 1531 12b4 DFFEFF17 		b	.L290
 1532              	.L281:
 1533 12b8 E0830491 		add	x0, sp, 288
 1534 12bc 00C0368B 		add	x0, x0, x22, sxtw
 1535 12c0 F603012A 		mov	w22, w1
AARCH64 GAS  C:\Users\A01169~1\AppData\Local\Temp\ccRWduX2.s 			page 28


 1536 12c4 4DFFFF17 		b	.L280
 1537              		.size	kprintf, .-kprintf
 1538              		.align	2
 1539 12c8 1F2003D5 		.p2align 4,,15
 1539      1F2003D5 
 1540              		.global	kprintf_debug
 1541              		.type	kprintf_debug, %function
 1542              	kprintf_debug:
 1543 12d0 F353AEA9 		stp	x19, x20, [sp, -288]!
 1544 12d4 F30300AA 		mov	x19, x0
 1545 12d8 E0068012 		mov	w0, -56
 1546 12dc F55B01A9 		stp	x21, x22, [sp, 16]
 1547 12e0 F603002A 		mov	w22, w0
 1548 12e4 E9830391 		add	x9, sp, 224
 1549 12e8 E80F8012 		mov	w8, -128
 1550 12ec F5830491 		add	x21, sp, 288
 1551 12f0 F76302A9 		stp	x23, x24, [sp, 32]
 1552 12f4 FE1B00F9 		str	x30, [sp, 48]
 1553 12f8 F55704A9 		stp	x21, x21, [sp, 64]
 1554 12fc E92B00F9 		str	x9, [sp, 80]
 1555 1300 E0230B29 		stp	w0, w8, [sp, 88]
 1556 1304 E01B803D 		str	q0, [sp, 96]
 1557 1308 E11F803D 		str	q1, [sp, 112]
 1558 130c E223803D 		str	q2, [sp, 128]
 1559 1310 E327803D 		str	q3, [sp, 144]
 1560 1314 E42B803D 		str	q4, [sp, 160]
 1561 1318 E52F803D 		str	q5, [sp, 176]
 1562 131c E633803D 		str	q6, [sp, 192]
 1563 1320 E737803D 		str	q7, [sp, 208]
 1564 1324 E18B0EA9 		stp	x1, x2, [sp, 232]
 1565 1328 E3930FA9 		stp	x3, x4, [sp, 248]
 1566 132c E59B10A9 		stp	x5, x6, [sp, 264]
 1567 1330 E78F00F9 		str	x7, [sp, 280]
 1568              	.L536:
 1569 1334 61024039 		ldrb	w1, [x19]
 1570 1338 01010034 		cbz	w1, .L819
 1571              	.L629:
 1572 133c 73060091 		add	x19, x19, 1
 1573 1340 3F940071 		cmp	w1, 37
 1574 1344 40010054 		beq	.L537
 1575              	.L804:
 1576 1348 00008052 		mov	w0, 0
 1577 134c 00000094 		bl	hal_io_serial_putc
 1578 1350 61024039 		ldrb	w1, [x19]
 1579 1354 41FFFF35 		cbnz	w1, .L629
 1580              	.L819:
 1581 1358 F55B41A9 		ldp	x21, x22, [sp, 16]
 1582 135c F76342A9 		ldp	x23, x24, [sp, 32]
 1583 1360 FE1B40F9 		ldr	x30, [sp, 48]
 1584 1364 F353D2A8 		ldp	x19, x20, [sp], 288
 1585 1368 C0035FD6 		ret
 1586              		.p2align 2
 1587              	.L537:
 1588 136c 6C060091 		add	x12, x19, 1
 1589 1370 80F15F38 		ldrb	w0, [x12, -1]
 1590 1374 81621912 		and	w1, w20, -128
 1591 1378 03008052 		mov	w3, 0
AARCH64 GAS  C:\Users\A01169~1\AppData\Local\Temp\ccRWduX2.s 			page 29


 1592 137c F403012A 		mov	w20, w1
 1593 1380 0A008052 		mov	w10, 0
 1594 1384 06008052 		mov	w6, 0
 1595 1388 0B008052 		mov	w11, 0
 1596 138c 08008052 		mov	w8, 0
 1597 1390 02008052 		mov	w2, 0
 1598 1394 09008052 		mov	w9, 0
 1599 1398 05008052 		mov	w5, 0
 1600 139c 07008052 		mov	w7, 0
 1601 13a0 E4030CAA 		mov	x4, x12
 1602 13a4 1FAC0071 		cmp	w0, 43
 1603 13a8 E0010054 		beq	.L651
 1604 13ac 1F2003D5 		.p2align 3
 1605              	.L820:
 1606 13b0 48150054 		bhi	.L541
 1607 13b4 1F800071 		cmp	w0, 32
 1608 13b8 40090054 		beq	.L652
 1609 13bc 1F8C0071 		cmp	w0, 35
 1610 13c0 81010054 		bne	.L542
 1611 13c4 28008052 		mov	w8, 1
 1612 13c8 F3030CAA 		mov	x19, x12
 1613 13cc E203082A 		mov	w2, w8
 1614              	.L821:
 1615 13d0 6C060091 		add	x12, x19, 1
 1616 13d4 80F15F38 		ldrb	w0, [x12, -1]
 1617 13d8 E4030CAA 		mov	x4, x12
 1618 13dc 1FAC0071 		cmp	w0, 43
 1619 13e0 81FEFF54 		bne	.L820
 1620              	.L651:
 1621 13e4 27008052 		mov	w7, 1
 1622 13e8 F3030CAA 		mov	x19, x12
 1623 13ec F9FFFF17 		b	.L821
 1624              		.p2align 2
 1625              	.L542:
 1626 13f0 FF000071 		cmp	w7, 0
 1627 13f4 21000032 		orr	w1, w1, 1
 1628 13f8 9402811A 		csel	w20, w20, w1, eq
 1629 13fc 3F010071 		cmp	w9, 0
 1630 1400 87060153 		ubfx	w7, w20, 1, 1
 1631 1404 E700851A 		csel	w7, w7, w5, eq
 1632 1408 1F010071 		cmp	w8, 0
 1633 140c F4001F33 		bfi	w20, w7, 1, 1
 1634 1410 850A0253 		ubfx	w5, w20, 2, 1
 1635 1414 A500821A 		csel	w5, w5, w2, eq
 1636 1418 DF000071 		cmp	w6, 0
 1637 141c B4001E33 		bfi	w20, w5, 2, 1
 1638 1420 820E0353 		ubfx	w2, w20, 3, 1
 1639 1424 42008B1A 		csel	w2, w2, w11, eq
 1640 1428 7F000071 		cmp	w3, 0
 1641 142c 54001D33 		bfi	w20, w2, 3, 1
 1642 1430 81120453 		ubfx	w1, w20, 4, 1
 1643 1434 21008A1A 		csel	w1, w1, w10, eq
 1644 1438 1FA80071 		cmp	w0, 42
 1645 143c 34001C33 		bfi	w20, w1, 4, 1
 1646 1440 00170054 		beq	.L822
 1647 1444 01C00051 		sub	w1, w0, #48
 1648 1448 02008052 		mov	w2, 0
AARCH64 GAS  C:\Users\A01169~1\AppData\Local\Temp\ccRWduX2.s 			page 30


 1649 144c 231C0012 		and	w3, w1, 255
 1650 1450 7F240071 		cmp	w3, 9
 1651 1454 89220054 		bls	.L823
 1652              	.L552:
 1653 1458 1FB80071 		cmp	w0, 46
 1654 145c 03008012 		mov	w3, -1
 1655 1460 40110054 		beq	.L824
 1656              	.L554:
 1657 1464 1FB00171 		cmp	w0, 108
 1658 1468 00130054 		beq	.L560
 1659              	.L835:
 1660 146c 28040054 		bhi	.L561
 1661 1470 1FA00171 		cmp	w0, 104
 1662 1474 61040054 		bne	.L563
 1663 1478 60064039 		ldrb	w0, [x19, 1]
 1664 147c 1FA00171 		cmp	w0, 104
 1665 1480 E0230054 		beq	.L825
 1666 1484 640A0091 		add	x4, x19, 2
 1667 1488 1FA40171 		cmp	w0, 105
 1668 148c 401F0054 		beq	.L630
 1669 1490 491E0054 		bls	.L826
 1670 1494 1FCC0171 		cmp	w0, 115
 1671 1498 400B0054 		beq	.L674
 1672 149c E9210054 		bls	.L827
 1673 14a0 1FD40171 		cmp	w0, 117
 1674 14a4 A02E0054 		beq	.L670
 1675 14a8 1FE00171 		cmp	w0, 120
 1676 14ac 61090054 		bne	.L571
 1677 14b0 94761B12 		and	w20, w20, -25
 1678 14b4 01028052 		mov	w1, 16
 1679 14b8 9402012A 		orr	w20, w20, w1
 1680              	.L635:
 1681 14bc 162AF837 		tbnz	w22, #31, .L607
 1682              		.p2align 3
 1683              	.L786:
 1684 14c0 E00315AA 		mov	x0, x21
 1685 14c4 B5220091 		add	x21, x21, 8
 1686              	.L608:
 1687 14c8 00004079 		ldrh	w0, [x0]
 1688              	.L606:
 1689 14cc 7F040031 		cmn	w3, #1
 1690 14d0 01040054 		bne	.L650
 1691              	.L667:
 1692 14d4 F30304AA 		mov	x19, x4
 1693 14d8 03008052 		mov	w3, 0
 1694 14dc 1E000014 		b	.L616
 1695              		.p2align 2
 1696              	.L652:
 1697 14e0 26008052 		mov	w6, 1
 1698 14e4 F3030CAA 		mov	x19, x12
 1699 14e8 EB03062A 		mov	w11, w6
 1700 14ec B9FFFF17 		b	.L821
 1701              		.p2align 2
 1702              	.L561:
 1703 14f0 1FD00171 		cmp	w0, 116
 1704 14f4 E0160054 		beq	.L564
 1705 14f8 1FE80171 		cmp	w0, 122
AARCH64 GAS  C:\Users\A01169~1\AppData\Local\Temp\ccRWduX2.s 			page 31


 1706 14fc A0160054 		beq	.L564
 1707              	.L563:
 1708 1500 1FA40171 		cmp	w0, 105
 1709 1504 60050054 		beq	.L637
 1710 1508 C9020054 		bls	.L828
 1711 150c 1FCC0171 		cmp	w0, 115
 1712 1510 80070054 		beq	.L674
 1713 1514 A9050054 		bls	.L829
 1714 1518 1FD40171 		cmp	w0, 117
 1715 151c 80190054 		beq	.L673
 1716 1520 1FE00171 		cmp	w0, 120
 1717 1524 A1050054 		bne	.L571
 1718 1528 94761B12 		and	w20, w20, -25
 1719 152c 01028052 		mov	w1, 16
 1720 1530 9402012A 		orr	w20, w20, w1
 1721              	.L642:
 1722 1534 B625F837 		tbnz	w22, #31, .L610
 1723              		.p2align 3
 1724              	.L787:
 1725 1538 E00315AA 		mov	x0, x21
 1726 153c B5220091 		add	x21, x21, 8
 1727 1540 000040B9 		ldr	w0, [x0]
 1728              	.L841:
 1729 1544 7F040031 		cmn	w3, #1
 1730 1548 60FCFF54 		beq	.L667
 1731 154c 1F2003D5 		.p2align 3
 1732              	.L650:
 1733 1550 F30304AA 		mov	x19, x4
 1734              	.L616:
 1735 1554 E403142A 		mov	w4, w20
 1736 1558 BEFAFF97 		bl	cprint_int.constprop.4
 1737 155c 76FFFF17 		b	.L536
 1738              		.p2align 2
 1739              	.L828:
 1740 1560 1F600171 		cmp	w0, 88
 1741 1564 80200054 		beq	.L639
 1742 1568 69010054 		bls	.L803
 1743 156c 1F8C0171 		cmp	w0, 99
 1744 1570 C1010054 		bne	.L830
 1745              	.L572:
 1746 1574 7621F837 		tbnz	w22, #31, .L617
 1747              	.L790:
 1748 1578 E00315AA 		mov	x0, x21
 1749 157c B5220091 		add	x21, x21, 8
 1750              	.L618:
 1751 1580 01004039 		ldrb	w1, [x0]
 1752 1584 F30304AA 		mov	x19, x4
 1753 1588 00008052 		mov	w0, 0
 1754 158c 00000094 		bl	hal_io_serial_putc
 1755 1590 69FFFF17 		b	.L536
 1756              		.p2align 2
 1757              	.L803:
 1758 1594 1F940071 		cmp	w0, 37
 1759 1598 01020054 		bne	.L571
 1760              	.L627:
 1761 159c F30304AA 		mov	x19, x4
 1762 15a0 A1048052 		mov	w1, 37
AARCH64 GAS  C:\Users\A01169~1\AppData\Local\Temp\ccRWduX2.s 			page 32


 1763 15a4 69FFFF17 		b	.L804
 1764              		.p2align 2
 1765              	.L830:
 1766 15a8 1F900171 		cmp	w0, 100
 1767 15ac 61010054 		bne	.L571
 1768              	.L637:
 1769 15b0 D62AF837 		tbnz	w22, #31, .L593
 1770              	.L783:
 1771 15b4 E00315AA 		mov	x0, x21
 1772 15b8 B5220091 		add	x21, x21, 8
 1773              	.L594:
 1774 15bc F30304AA 		mov	x19, x4
 1775 15c0 000080B9 		ldrsw	x0, [x0]
 1776 15c4 DF000014 		b	.L589
 1777              		.p2align 2
 1778              	.L829:
 1779 15c8 1FC00171 		cmp	w0, 112
 1780 15cc 85008052 		mov	w5, 4
 1781 15d0 C00D0054 		beq	.L575
 1782 15d4 1F2003D5 		.p2align 3
 1783              	.L571:
 1784 15d8 81004039 		ldrb	w1, [x4]
 1785 15dc 3F940071 		cmp	w1, 37
 1786 15e0 81000054 		bne	.L628
 1787 15e4 6F010014 		b	.L831
 1788              		.p2align 2
 1789              	.L832:
 1790 15e8 E40300AA 		mov	x4, x0
 1791 15ec 00F05F38 		ldrb	w0, [x0, -1]
 1792              	.L628:
 1793 15f0 1F940071 		cmp	w0, 37
 1794 15f4 800400D1 		sub	x0, x4, #1
 1795 15f8 81FFFF54 		bne	.L832
 1796 15fc E8FFFF17 		b	.L627
 1797              		.p2align 2
 1798              	.L674:
 1799 1600 F30304AA 		mov	x19, x4
 1800 1604 3617F837 		tbnz	w22, #31, .L620
 1801              	.L791:
 1802 1608 E00315AA 		mov	x0, x21
 1803 160c B5220091 		add	x21, x21, 8
 1804              	.L621:
 1805 1610 7F040031 		cmn	w3, #1
 1806 1614 170040F9 		ldr	x23, [x0]
 1807 1618 E01C0054 		beq	.L623
 1808 161c C3E8FF34 		cbz	w3, .L536
 1809 1620 E1024039 		ldrb	w1, [x23]
 1810 1624 81E8FF34 		cbz	w1, .L536
 1811 1628 78040051 		sub	w24, w3, #1
 1812 162c 18070091 		add	x24, x24, 1
 1813 1630 F802188B 		add	x24, x23, x24
 1814 1634 03000014 		b	.L626
 1815              		.p2align 2
 1816              	.L833:
 1817 1638 E1024039 		ldrb	w1, [x23]
 1818 163c C1E7FF34 		cbz	w1, .L536
 1819              	.L626:
AARCH64 GAS  C:\Users\A01169~1\AppData\Local\Temp\ccRWduX2.s 			page 33


 1820 1640 F7060091 		add	x23, x23, 1
 1821 1644 00008052 		mov	w0, 0
 1822 1648 00000094 		bl	hal_io_serial_putc
 1823 164c FF0218EB 		cmp	x23, x24
 1824 1650 41FFFF54 		bne	.L833
 1825 1654 38FFFF17 		b	.L536
 1826              		.p2align 2
 1827              	.L541:
 1828 1658 1FB40071 		cmp	w0, 45
 1829 165c E0000054 		beq	.L654
 1830 1660 1FC00071 		cmp	w0, 48
 1831 1664 61ECFF54 		bne	.L542
 1832 1668 23008052 		mov	w3, 1
 1833 166c F3030CAA 		mov	x19, x12
 1834 1670 EA03032A 		mov	w10, w3
 1835 1674 57FFFF17 		b	.L821
 1836              		.p2align 2
 1837              	.L654:
 1838 1678 29008052 		mov	w9, 1
 1839 167c F3030CAA 		mov	x19, x12
 1840 1680 E503092A 		mov	w5, w9
 1841 1684 53FFFF17 		b	.L821
 1842              		.p2align 2
 1843              	.L824:
 1844 1688 60064039 		ldrb	w0, [x19, 1]
 1845 168c 1FA80071 		cmp	w0, 42
 1846 1690 210B0054 		bne	.L834
 1847 1694 610A0091 		add	x1, x19, 2
 1848 1698 761EF837 		tbnz	w22, #31, .L557
 1849              	.L780:
 1850 169c E00315AA 		mov	x0, x21
 1851 16a0 B5220091 		add	x21, x21, 8
 1852              	.L558:
 1853 16a4 030040B9 		ldr	w3, [x0]
 1854 16a8 640E0091 		add	x4, x19, 3
 1855 16ac 600A4039 		ldrb	w0, [x19, 2]
 1856 16b0 F30301AA 		mov	x19, x1
 1857 16b4 7F000071 		cmp	w3, 0
 1858 16b8 63A09F1A 		csel	w3, w3, wzr, ge
 1859 16bc 1FB00171 		cmp	w0, 108
 1860 16c0 61EDFF54 		bne	.L835
 1861 16c4 1F2003D5 		.p2align 3
 1862              	.L560:
 1863 16c8 60064039 		ldrb	w0, [x19, 1]
 1864 16cc 1FB00171 		cmp	w0, 108
 1865 16d0 60140054 		beq	.L836
 1866 16d4 84040091 		add	x4, x4, 1
 1867 16d8 1FA40171 		cmp	w0, 105
 1868 16dc 40040054 		beq	.L579
 1869              	.L817:
 1870 16e0 49030054 		bls	.L837
 1871 16e4 1FCC0171 		cmp	w0, 115
 1872 16e8 C0F8FF54 		beq	.L674
 1873 16ec 89040054 		bls	.L838
 1874 16f0 1FD40171 		cmp	w0, 117
 1875 16f4 A0070054 		beq	.L676
 1876 16f8 1FE00171 		cmp	w0, 120
AARCH64 GAS  C:\Users\A01169~1\AppData\Local\Temp\ccRWduX2.s 			page 34


 1877 16fc E1F6FF54 		bne	.L571
 1878 1700 94761B12 		and	w20, w20, -25
 1879 1704 01028052 		mov	w1, 16
 1880 1708 9402012A 		orr	w20, w20, w1
 1881              	.L584:
 1882 170c 3618F837 		tbnz	w22, #31, .L613
 1883              		.p2align 3
 1884              	.L788:
 1885 1710 E00315AA 		mov	x0, x21
 1886 1714 B5220091 		add	x21, x21, 8
 1887 1718 000040F9 		ldr	x0, [x0]
 1888 171c 6CFFFF17 		b	.L606
 1889              		.p2align 2
 1890              	.L822:
 1891 1720 D608F837 		tbnz	w22, #31, .L549
 1892              	.L779:
 1893 1724 E00315AA 		mov	x0, x21
 1894 1728 B5220091 		add	x21, x21, 8
 1895              	.L550:
 1896 172c 020040B9 		ldr	w2, [x0]
 1897 1730 640A0091 		add	x4, x19, 2
 1898 1734 60064039 		ldrb	w0, [x19, 1]
 1899 1738 F3030CAA 		mov	x19, x12
 1900 173c 5F000071 		cmp	w2, 0
 1901 1740 42A09F1A 		csel	w2, w2, wzr, ge
 1902 1744 45FFFF17 		b	.L552
 1903              		.p2align 2
 1904              	.L837:
 1905 1748 1F600171 		cmp	w0, 88
 1906 174c C0190054 		beq	.L645
 1907 1750 29F2FF54 		bls	.L803
 1908 1754 1F8C0171 		cmp	w0, 99
 1909 1758 E0F0FF54 		beq	.L572
 1910 175c 1F900171 		cmp	w0, 100
 1911 1760 C1F3FF54 		bne	.L571
 1912              	.L579:
 1913 1764 D61DF837 		tbnz	w22, #31, .L596
 1914              		.p2align 3
 1915              	.L784:
 1916 1768 E00315AA 		mov	x0, x21
 1917 176c B5220091 		add	x21, x21, 8
 1918              	.L597:
 1919 1770 F30304AA 		mov	x19, x4
 1920 1774 000040F9 		ldr	x0, [x0]
 1921 1778 72000014 		b	.L589
 1922              		.p2align 2
 1923              	.L838:
 1924 177c 1FC00171 		cmp	w0, 112
 1925 1780 05018052 		mov	w5, 8
 1926 1784 A1F2FF54 		bne	.L571
 1927              	.L575:
 1928 1788 94021E32 		orr	w20, w20, 4
 1929 178c 7F040031 		cmn	w3, #1
 1930 1790 000B8012 		mov	w0, -89
 1931 1794 9402000A 		and	w20, w20, w0
 1932 1798 01028052 		mov	w1, 16
 1933 179c 000A8052 		mov	w0, 80
AARCH64 GAS  C:\Users\A01169~1\AppData\Local\Temp\ccRWduX2.s 			page 35


 1934 17a0 6310811A 		csel	w3, w3, w1, ne
 1935 17a4 9402002A 		orr	w20, w20, w0
 1936 17a8 BF080071 		cmp	w5, 2
 1937 17ac 80E8FF54 		beq	.L635
 1938 17b0 EC060054 		bgt	.L649
 1939 17b4 BF040071 		cmp	w5, 1
 1940 17b8 21070054 		bne	.L789
 1941 17bc D610F837 		tbnz	w22, #31, .L603
 1942              	.L785:
 1943 17c0 E00315AA 		mov	x0, x21
 1944 17c4 B5220091 		add	x21, x21, 8
 1945 17c8 00004039 		ldrb	w0, [x0]
 1946 17cc 40FFFF17 		b	.L606
 1947              		.p2align 2
 1948              	.L564:
 1949 17d0 60064039 		ldrb	w0, [x19, 1]
 1950 17d4 640A0091 		add	x4, x19, 2
 1951 17d8 1FA40171 		cmp	w0, 105
 1952 17dc 21F8FF54 		bne	.L817
 1953 17e0 56FCFF36 		tbz	w22, #31, .L784
 1954 17e4 CE000014 		b	.L596
 1955              		.p2align 2
 1956              	.L676:
 1957 17e8 41018052 		mov	w1, 10
 1958 17ec 36F9FF36 		tbz	w22, #31, .L788
 1959 17f0 88000014 		b	.L613
 1960              		.p2align 2
 1961              	.L834:
 1962 17f4 01C00051 		sub	w1, w0, #48
 1963 17f8 03008052 		mov	w3, 0
 1964 17fc 251C0012 		and	w5, w1, 255
 1965 1800 46018052 		mov	w6, 10
 1966 1804 BF240071 		cmp	w5, 9
 1967 1808 69000054 		bls	.L556
 1968 180c E2000014 		b	.L839
 1969              		.p2align 2
 1970              	.L660:
 1971 1810 E40313AA 		mov	x4, x19
 1972              	.L556:
 1973 1814 80044039 		ldrb	w0, [x4, 1]
 1974 1818 6304061B 		madd	w3, w3, w6, w1
 1975 181c 93040091 		add	x19, x4, 1
 1976 1820 01C00051 		sub	w1, w0, #48
 1977 1824 251C0012 		and	w5, w1, 255
 1978 1828 BF240071 		cmp	w5, 9
 1979 182c 29FFFF54 		bls	.L660
 1980 1830 84080091 		add	x4, x4, 2
 1981 1834 0CFFFF17 		b	.L554
 1982              		.p2align 2
 1983              	.L549:
 1984 1838 C1220011 		add	w1, w22, 8
 1985 183c 3F000071 		cmp	w1, 0
 1986 1840 8D0A0054 		ble	.L551
 1987 1844 F603012A 		mov	w22, w1
 1988 1848 B7FFFF17 		b	.L779
 1989              		.p2align 2
 1990              	.L673:
AARCH64 GAS  C:\Users\A01169~1\AppData\Local\Temp\ccRWduX2.s 			page 36


 1991 184c 41018052 		mov	w1, 10
 1992 1850 56E7FF36 		tbz	w22, #31, .L787
 1993 1854 65000014 		b	.L610
 1994              		.p2align 2
 1995              	.L826:
 1996 1858 1F600171 		cmp	w0, 88
 1997 185c E0180054 		beq	.L632
 1998 1860 A9E9FF54 		bls	.L803
 1999 1864 1F8C0171 		cmp	w0, 99
 2000 1868 60E8FF54 		beq	.L572
 2001 186c 1F900171 		cmp	w0, 100
 2002 1870 41EBFF54 		bne	.L571
 2003              	.L630:
 2004 1874 9616F837 		tbnz	w22, #31, .L590
 2005              	.L782:
 2006 1878 E00315AA 		mov	x0, x21
 2007 187c B5220091 		add	x21, x21, 8
 2008              	.L591:
 2009 1880 00008079 		ldrsh	x0, [x0]
 2010 1884 F30304AA 		mov	x19, x4
 2011 1888 2E000014 		b	.L589
 2012              		.p2align 2
 2013              	.L649:
 2014 188c BF100071 		cmp	w5, 4
 2015 1890 20E5FF54 		beq	.L642
 2016 1894 BF200071 		cmp	w5, 8
 2017 1898 A0F3FF54 		beq	.L584
 2018              	.L789:
 2019 189c 000080D2 		mov	x0, 0
 2020 18a0 2CFFFF17 		b	.L650
 2021              		.p2align 2
 2022              	.L823:
 2023 18a4 44018052 		mov	w4, 10
 2024 18a8 03000014 		b	.L553
 2025              		.p2align 2
 2026              	.L657:
 2027 18ac F3030CAA 		mov	x19, x12
 2028 18b0 8C050091 		add	x12, x12, 1
 2029              	.L553:
 2030 18b4 80014039 		ldrb	w0, [x12]
 2031 18b8 4204041B 		madd	w2, w2, w4, w1
 2032 18bc 01C00051 		sub	w1, w0, #48
 2033 18c0 231C0012 		and	w3, w1, 255
 2034 18c4 7F240071 		cmp	w3, 9
 2035 18c8 29FFFF54 		bls	.L657
 2036 18cc 640A0091 		add	x4, x19, 2
 2037 18d0 F3030CAA 		mov	x19, x12
 2038 18d4 E1FEFF17 		b	.L552
 2039              		.p2align 2
 2040              	.L827:
 2041 18d8 1FC00171 		cmp	w0, 112
 2042 18dc 45008052 		mov	w5, 2
 2043 18e0 40F5FF54 		beq	.L575
 2044 18e4 3DFFFF17 		b	.L571
 2045              		.p2align 2
 2046              	.L620:
 2047 18e8 C1220011 		add	w1, w22, 8
AARCH64 GAS  C:\Users\A01169~1\AppData\Local\Temp\ccRWduX2.s 			page 37


 2048 18ec 3F000071 		cmp	w1, 0
 2049 18f0 CD130054 		ble	.L622
 2050 18f4 F603012A 		mov	w22, w1
 2051 18f8 44FFFF17 		b	.L791
 2052              		.p2align 2
 2053              	.L825:
 2054 18fc 600A4039 		ldrb	w0, [x19, 2]
 2055 1900 640E0091 		add	x4, x19, 3
 2056 1904 1FA40171 		cmp	w0, 105
 2057 1908 20010054 		beq	.L566
 2058 190c C8080054 		bhi	.L567
 2059 1910 1F600171 		cmp	w0, 88
 2060 1914 A0140054 		beq	.L568
 2061 1918 E9E3FF54 		bls	.L803
 2062 191c 1F8C0171 		cmp	w0, 99
 2063 1920 A0E2FF54 		beq	.L572
 2064 1924 1F900171 		cmp	w0, 100
 2065 1928 81E5FF54 		bne	.L571
 2066              	.L566:
 2067 192c 3610F837 		tbnz	w22, #31, .L586
 2068              	.L781:
 2069 1930 E00315AA 		mov	x0, x21
 2070 1934 B5220091 		add	x21, x21, 8
 2071              	.L587:
 2072 1938 00008039 		ldrsb	x0, [x0]
 2073 193c F30304AA 		mov	x19, x4
 2074              	.L589:
 2075 1940 7F040031 		cmn	w3, #1
 2076 1944 84021B32 		orr	w4, w20, 32
 2077 1948 63109F1A 		csel	w3, w3, wzr, ne
 2078 194c F403042A 		mov	w20, w4
 2079 1950 41018052 		mov	w1, 10
 2080 1954 BFF9FF97 		bl	cprint_int.constprop.4
 2081 1958 77FEFF17 		b	.L536
 2082              		.p2align 2
 2083              	.L836:
 2084 195c 600A4039 		ldrb	w0, [x19, 2]
 2085 1960 640A0091 		add	x4, x19, 2
 2086 1964 84040091 		add	x4, x4, 1
 2087 1968 1FA40171 		cmp	w0, 105
 2088 196c A1EBFF54 		bne	.L817
 2089 1970 7DFFFF17 		b	.L579
 2090              		.p2align 2
 2091              	.L639:
 2092 1974 000B8012 		mov	w0, -89
 2093 1978 9402000A 		and	w20, w20, w0
 2094 197c 01028052 		mov	w1, 16
 2095 1980 000A8052 		mov	w0, 80
 2096 1984 9402002A 		orr	w20, w20, w0
 2097 1988 96DDFF36 		tbz	w22, #31, .L787
 2098 198c 17000014 		b	.L610
 2099              		.p2align 2
 2100              	.L551:
 2101 1990 E0830491 		add	x0, sp, 288
 2102 1994 00C0368B 		add	x0, x0, x22, sxtw
 2103 1998 F603012A 		mov	w22, w1
 2104 199c 64FFFF17 		b	.L550
AARCH64 GAS  C:\Users\A01169~1\AppData\Local\Temp\ccRWduX2.s 			page 38


 2105              		.p2align 2
 2106              	.L617:
 2107 19a0 C1220011 		add	w1, w22, 8
 2108 19a4 3F000071 		cmp	w1, 0
 2109 19a8 8D0D0054 		ble	.L619
 2110 19ac F603012A 		mov	w22, w1
 2111 19b0 F2FEFF17 		b	.L790
 2112              		.p2align 2
 2113              	.L623:
 2114 19b4 E1024039 		ldrb	w1, [x23]
 2115 19b8 E1CBFF34 		cbz	w1, .L536
 2116 19bc 1F2003D5 		.p2align 3
 2117              	.L625:
 2118 19c0 00008052 		mov	w0, 0
 2119 19c4 00000094 		bl	hal_io_serial_putc
 2120 19c8 E11E4038 		ldrb	w1, [x23, 1]!
 2121 19cc A1FFFF35 		cbnz	w1, .L625
 2122 19d0 59FEFF17 		b	.L536
 2123              		.p2align 2
 2124              	.L603:
 2125 19d4 C5220011 		add	w5, w22, 8
 2126 19d8 BF000071 		cmp	w5, 0
 2127 19dc 2D080054 		ble	.L605
 2128 19e0 F603052A 		mov	w22, w5
 2129 19e4 77FFFF17 		b	.L785
 2130              		.p2align 2
 2131              	.L610:
 2132 19e8 C5220011 		add	w5, w22, 8
 2133 19ec BF000071 		cmp	w5, 0
 2134 19f0 ED060054 		ble	.L612
 2135 19f4 F603052A 		mov	w22, w5
 2136 19f8 D0FEFF17 		b	.L787
 2137              		.p2align 2
 2138              	.L607:
 2139 19fc C5220011 		add	w5, w22, 8
 2140 1a00 BF000071 		cmp	w5, 0
 2141 1a04 CD050054 		ble	.L609
 2142 1a08 F603052A 		mov	w22, w5
 2143 1a0c ADFEFF17 		b	.L786
 2144              		.p2align 2
 2145              	.L613:
 2146 1a10 C5220011 		add	w5, w22, 8
 2147 1a14 BF000071 		cmp	w5, 0
 2148 1a18 ED060054 		ble	.L615
 2149 1a1c F603052A 		mov	w22, w5
 2150 1a20 3CFFFF17 		b	.L788
 2151              		.p2align 2
 2152              	.L567:
 2153 1a24 1FCC0171 		cmp	w0, 115
 2154 1a28 C0DEFF54 		beq	.L674
 2155 1a2c 49010054 		bls	.L840
 2156 1a30 1FD40171 		cmp	w0, 117
 2157 1a34 60030054 		beq	.L663
 2158 1a38 1FE00171 		cmp	w0, 120
 2159 1a3c E1DCFF54 		bne	.L571
 2160 1a40 94761B12 		and	w20, w20, -25
 2161 1a44 01028052 		mov	w1, 16
AARCH64 GAS  C:\Users\A01169~1\AppData\Local\Temp\ccRWduX2.s 			page 39


 2162 1a48 9402012A 		orr	w20, w20, w1
 2163 1a4c B6EBFF36 		tbz	w22, #31, .L785
 2164 1a50 E1FFFF17 		b	.L603
 2165              		.p2align 2
 2166              	.L840:
 2167 1a54 1FC00171 		cmp	w0, 112
 2168 1a58 25008052 		mov	w5, 1
 2169 1a5c 60E9FF54 		beq	.L575
 2170 1a60 DEFEFF17 		b	.L571
 2171              		.p2align 2
 2172              	.L557:
 2173 1a64 C3220011 		add	w3, w22, 8
 2174 1a68 7F000071 		cmp	w3, 0
 2175 1a6c 0D020054 		ble	.L559
 2176 1a70 F603032A 		mov	w22, w3
 2177 1a74 0AFFFF17 		b	.L780
 2178              		.p2align 2
 2179              	.L670:
 2180 1a78 41018052 		mov	w1, 10
 2181 1a7c 36D2FF36 		tbz	w22, #31, .L786
 2182 1a80 DFFFFF17 		b	.L607
 2183              		.p2align 2
 2184              	.L645:
 2185 1a84 000B8012 		mov	w0, -89
 2186 1a88 9402000A 		and	w20, w20, w0
 2187 1a8c 01028052 		mov	w1, 16
 2188 1a90 000A8052 		mov	w0, 80
 2189 1a94 9402002A 		orr	w20, w20, w0
 2190 1a98 D6E3FF36 		tbz	w22, #31, .L788
 2191 1a9c DDFFFF17 		b	.L613
 2192              		.p2align 2
 2193              	.L663:
 2194 1aa0 41018052 		mov	w1, 10
 2195 1aa4 F6E8FF36 		tbz	w22, #31, .L785
 2196 1aa8 CBFFFF17 		b	.L603
 2197              		.p2align 2
 2198              	.L559:
 2199 1aac E0830491 		add	x0, sp, 288
 2200 1ab0 00C0368B 		add	x0, x0, x22, sxtw
 2201 1ab4 F603032A 		mov	w22, w3
 2202 1ab8 FBFEFF17 		b	.L558
 2203              		.p2align 2
 2204              	.L609:
 2205 1abc E0830491 		add	x0, sp, 288
 2206 1ac0 00C0368B 		add	x0, x0, x22, sxtw
 2207 1ac4 F603052A 		mov	w22, w5
 2208 1ac8 80FEFF17 		b	.L608
 2209              		.p2align 2
 2210              	.L612:
 2211 1acc E0830491 		add	x0, sp, 288
 2212 1ad0 00C0368B 		add	x0, x0, x22, sxtw
 2213 1ad4 F603052A 		mov	w22, w5
 2214 1ad8 000040B9 		ldr	w0, [x0]
 2215 1adc 9AFEFF17 		b	.L841
 2216              		.p2align 2
 2217              	.L605:
 2218 1ae0 E0830491 		add	x0, sp, 288
AARCH64 GAS  C:\Users\A01169~1\AppData\Local\Temp\ccRWduX2.s 			page 40


 2219 1ae4 00C0368B 		add	x0, x0, x22, sxtw
 2220 1ae8 F603052A 		mov	w22, w5
 2221 1aec 00004039 		ldrb	w0, [x0]
 2222 1af0 77FEFF17 		b	.L606
 2223              		.p2align 2
 2224              	.L615:
 2225 1af4 E0830491 		add	x0, sp, 288
 2226 1af8 00C0368B 		add	x0, x0, x22, sxtw
 2227 1afc F603052A 		mov	w22, w5
 2228 1b00 000040F9 		ldr	x0, [x0]
 2229 1b04 72FEFF17 		b	.L606
 2230              		.p2align 2
 2231              	.L593:
 2232 1b08 C1220011 		add	w1, w22, 8
 2233 1b0c 3F000071 		cmp	w1, 0
 2234 1b10 2D060054 		ble	.L595
 2235 1b14 F603012A 		mov	w22, w1
 2236 1b18 A7FEFF17 		b	.L783
 2237              		.p2align 2
 2238              	.L596:
 2239 1b1c C1220011 		add	w1, w22, 8
 2240 1b20 3F000071 		cmp	w1, 0
 2241 1b24 0D060054 		ble	.L598
 2242 1b28 F603012A 		mov	w22, w1
 2243 1b2c 0FFFFF17 		b	.L784
 2244              		.p2align 2
 2245              	.L586:
 2246 1b30 C1220011 		add	w1, w22, 8
 2247 1b34 3F000071 		cmp	w1, 0
 2248 1b38 ED050054 		ble	.L588
 2249 1b3c F603012A 		mov	w22, w1
 2250 1b40 7CFFFF17 		b	.L781
 2251              		.p2align 2
 2252              	.L590:
 2253 1b44 C1220011 		add	w1, w22, 8
 2254 1b48 3F000071 		cmp	w1, 0
 2255 1b4c CD030054 		ble	.L592
 2256 1b50 F603012A 		mov	w22, w1
 2257 1b54 49FFFF17 		b	.L782
 2258              		.p2align 2
 2259              	.L619:
 2260 1b58 E0830491 		add	x0, sp, 288
 2261 1b5c 00C0368B 		add	x0, x0, x22, sxtw
 2262 1b60 F603012A 		mov	w22, w1
 2263 1b64 87FEFF17 		b	.L618
 2264              		.p2align 2
 2265              	.L622:
 2266 1b68 E0830491 		add	x0, sp, 288
 2267 1b6c 00C0368B 		add	x0, x0, x22, sxtw
 2268 1b70 F603012A 		mov	w22, w1
 2269 1b74 A7FEFF17 		b	.L621
 2270              		.p2align 2
 2271              	.L632:
 2272 1b78 000B8012 		mov	w0, -89
 2273 1b7c 9402000A 		and	w20, w20, w0
 2274 1b80 01028052 		mov	w1, 16
 2275 1b84 000A8052 		mov	w0, 80
AARCH64 GAS  C:\Users\A01169~1\AppData\Local\Temp\ccRWduX2.s 			page 41


 2276 1b88 9402002A 		orr	w20, w20, w0
 2277 1b8c B6C9FF36 		tbz	w22, #31, .L786
 2278 1b90 9BFFFF17 		b	.L607
 2279              		.p2align 2
 2280              	.L839:
 2281 1b94 F30304AA 		mov	x19, x4
 2282 1b98 84040091 		add	x4, x4, 1
 2283 1b9c 32FEFF17 		b	.L554
 2284              		.p2align 2
 2285              	.L831:
 2286 1ba0 84040091 		add	x4, x4, 1
 2287 1ba4 7EFEFF17 		b	.L627
 2288              		.p2align 2
 2289              	.L568:
 2290 1ba8 000B8012 		mov	w0, -89
 2291 1bac 9402000A 		and	w20, w20, w0
 2292 1bb0 01028052 		mov	w1, 16
 2293 1bb4 000A8052 		mov	w0, 80
 2294 1bb8 9402002A 		orr	w20, w20, w0
 2295 1bbc 36E0FF36 		tbz	w22, #31, .L785
 2296 1bc0 85FFFF17 		b	.L603
 2297              	.L592:
 2298 1bc4 E0830491 		add	x0, sp, 288
 2299 1bc8 00C0368B 		add	x0, x0, x22, sxtw
 2300 1bcc F603012A 		mov	w22, w1
 2301 1bd0 2CFFFF17 		b	.L591
 2302              	.L595:
 2303 1bd4 E0830491 		add	x0, sp, 288
 2304 1bd8 00C0368B 		add	x0, x0, x22, sxtw
 2305 1bdc F603012A 		mov	w22, w1
 2306 1be0 77FEFF17 		b	.L594
 2307              	.L598:
 2308 1be4 E0830491 		add	x0, sp, 288
 2309 1be8 00C0368B 		add	x0, x0, x22, sxtw
 2310 1bec F603012A 		mov	w22, w1
 2311 1bf0 E0FEFF17 		b	.L597
 2312              	.L588:
 2313 1bf4 E0830491 		add	x0, sp, 288
 2314 1bf8 00C0368B 		add	x0, x0, x22, sxtw
 2315 1bfc F603012A 		mov	w22, w1
 2316 1c00 4EFFFF17 		b	.L587
 2317              		.size	kprintf_debug, .-kprintf_debug
 2318              		.align	2
 2319 1c04 1F2003D5 		.p2align 4,,15
 2319      1F2003D5 
 2319      1F2003D5 
 2320              		.global	atoi
 2321              		.type	atoi, %function
 2322              	atoi:
 2323 1c10 020040F9 		ldr	x2, [x0]
 2324 1c14 E50300AA 		mov	x5, x0
 2325 1c18 43004039 		ldrb	w3, [x2]
 2326 1c1c 61C00051 		sub	w1, w3, #48
 2327 1c20 201C0012 		and	w0, w1, 255
 2328 1c24 1F240071 		cmp	w0, 9
 2329 1c28 00008052 		mov	w0, 0
 2330 1c2c 28010054 		bhi	.L843
AARCH64 GAS  C:\Users\A01169~1\AppData\Local\Temp\ccRWduX2.s 			page 42


 2331 1c30 44018052 		mov	w4, 10
 2332 1c34 1F2003D5 		.p2align 3
 2333              	.L844:
 2334 1c38 431C4038 		ldrb	w3, [x2, 1]!
 2335 1c3c 0004041B 		madd	w0, w0, w4, w1
 2336 1c40 61C00051 		sub	w1, w3, #48
 2337 1c44 231C0012 		and	w3, w1, 255
 2338 1c48 7F240071 		cmp	w3, 9
 2339 1c4c 69FFFF54 		bls	.L844
 2340              	.L843:
 2341 1c50 A20000F9 		str	x2, [x5]
 2342 1c54 C0035FD6 		ret
 2343              		.size	atoi, .-atoi
 2344              		.align	2
 2345 1c58 1F2003D5 		.p2align 4,,15
 2345      1F2003D5 
 2346              		.global	cprint_int
 2347              		.type	cprint_int, %function
 2348              	cprint_int:
 2349 1c60 F353B4A9 		stp	x19, x20, [sp, -192]!
 2350 1c64 07000090 		adrp	x7, .LC0
 2351 1c68 E7000091 		add	x7, x7, :lo12:.LC0
 2352 1c6c D31C0012 		and	w19, w6, 255
 2353 1c70 E9430291 		add	x9, sp, 144
 2354 1c74 6B781E12 		and	w11, w3, -3
 2355 1c78 E8E30191 		add	x8, sp, 120
 2356 1c7c 7F027AF2 		tst	x19, 64
 2357 1c80 E6404039 		ldrb	w6, [x7, 16]
 2358 1c84 2811889A 		csel	x8, x9, x8, ne
 2359 1c88 7F210071 		cmp	w11, 8
 2360 1c8c 0B2787D2 		mov	x11, 14648
 2361 1c90 2B4CACF2 		movk	x11, 0x6261, lsl 16
 2362 1c94 EA2440A9 		ldp	x10, x9, [x7]
 2363 1c98 072686D2 		mov	x7, 12592
 2364 1c9c 4766A6F2 		movk	x7, 0x3332, lsl 16
 2365 1ca0 6B8CCCF2 		movk	x11, 0x6463, lsl 32
 2366 1ca4 ABCCECF2 		movk	x11, 0x6665, lsl 48
 2367 1ca8 87A6C6F2 		movk	x7, 0x3534, lsl 32
 2368 1cac C7E6E6F2 		movk	x7, 0x3736, lsl 48
 2369 1cb0 FE2B00F9 		str	x30, [sp, 80]
 2370 1cb4 E7AF07A9 		stp	x7, x11, [sp, 120]
 2371 1cb8 E7079F1A 		cset	w7, ne
 2372 1cbc 7F400071 		cmp	w3, 16
 2373 1cc0 FF230239 		strb	wzr, [sp, 136]
 2374 1cc4 E7109F1A 		csel	w7, w7, wzr, ne
 2375 1cc8 EA2709A9 		stp	x10, x9, [sp, 144]
 2376 1ccc E6830239 		strb	w6, [sp, 160]
 2377 1cd0 A70C0035 		cbnz	w7, .L847
 2378 1cd4 F55B01A9 		stp	x21, x22, [sp, 16]
 2379 1cd8 F403042A 		mov	w20, w4
 2380 1cdc F60300AA 		mov	x22, x0
 2381 1ce0 F76302A9 		stp	x23, x24, [sp, 32]
 2382 1ce4 F80301AA 		mov	x24, x1
 2383 1ce8 F96B03A9 		stp	x25, x26, [sp, 48]
 2384 1cec F903132A 		mov	w25, w19
 2385 1cf0 FB7304A9 		stp	x27, x28, [sp, 64]
 2386 1cf4 53002836 		tbz	x19, 5, .L850
AARCH64 GAS  C:\Users\A01169~1\AppData\Local\Temp\ccRWduX2.s 			page 43


 2387 1cf8 4210F8B7 		tbnz	x2, #63, .L903
 2388              	.L850:
 2389 1cfc A20B00B5 		cbnz	x2, .L873
 2390 1d00 BF000071 		cmp	w5, 0
 2391 1d04 37008052 		mov	w23, 1
 2392 1d08 BAC0971A 		csel	w26, w5, w23, gt
 2393 1d0c 00068052 		mov	w0, 48
 2394 1d10 15068052 		mov	w21, 48
 2395 1d14 E0A30239 		strb	w0, [sp, 168]
 2396              	.L852:
 2397 1d18 60020012 		and	w0, w19, 1
 2398 1d1c F30E0037 		tbnz	x19, 0, .L904
 2399 1d20 7B021E12 		and	w27, w19, 4
 2400 1d24 530D1036 		tbz	x19, 2, .L857
 2401 1d28 06008052 		mov	w6, 0
 2402              	.L871:
 2403 1d2c 940A0051 		sub	w20, w20, #2
 2404 1d30 60020012 		and	w0, w19, 1
 2405 1d34 C60C0034 		cbz	w6, .L857
 2406              	.L907:
 2407 1d38 E10318AA 		mov	x1, x24
 2408 1d3c A0058052 		mov	w0, 45
 2409 1d40 C0023FD6 		blr	x22
 2410              	.L858:
 2411 1d44 FB000034 		cbz	w27, .L860
 2412 1d48 E10318AA 		mov	x1, x24
 2413 1d4c 00068052 		mov	w0, 48
 2414 1d50 C0023FD6 		blr	x22
 2415 1d54 E10318AA 		mov	x1, x24
 2416 1d58 000F8052 		mov	w0, 120
 2417 1d5c C0023FD6 		blr	x22
 2418              	.L860:
 2419 1d60 990C0837 		tbnz	x25, 1, .L901
 2420 1d64 9C060051 		sub	w28, w20, #1
 2421 1d68 FC6F00B9 		str	w28, [sp, 108]
 2422 1d6c 5F03146B 		cmp	w26, w20
 2423 1d70 EA0B0054 		bge	.L876
 2424 1d74 7F027CF2 		tst	x19, 16
 2425 1d78 1B068052 		mov	w27, 48
 2426 1d7c 00048052 		mov	w0, 32
 2427 1d80 59070051 		sub	w25, w26, #1
 2428 1d84 7B13801A 		csel	w27, w27, w0, ne
 2429              		.p2align 3
 2430              	.L862:
 2431 1d88 9C070051 		sub	w28, w28, #1
 2432 1d8c E10318AA 		mov	x1, x24
 2433 1d90 E0031B2A 		mov	w0, w27
 2434 1d94 C0023FD6 		blr	x22
 2435 1d98 3F031C6B 		cmp	w25, w28
 2436 1d9c 61FFFF54 		bne	.L862
 2437 1da0 E06F40B9 		ldr	w0, [sp, 108]
 2438 1da4 5403144B 		sub	w20, w26, w20
 2439 1da8 9402000B 		add	w20, w20, w0
 2440              	.L861:
 2441 1dac 5F03176B 		cmp	w26, w23
 2442 1db0 ED0A0054 		ble	.L905
 2443 1db4 7F027CF2 		tst	x19, 16
AARCH64 GAS  C:\Users\A01169~1\AppData\Local\Temp\ccRWduX2.s 			page 44


 2444 1db8 1B068052 		mov	w27, 48
 2445 1dbc 00048052 		mov	w0, 32
 2446 1dc0 F3060051 		sub	w19, w23, #1
 2447 1dc4 7B13801A 		csel	w27, w27, w0, ne
 2448              		.p2align 3
 2449              	.L863:
 2450 1dc8 39070051 		sub	w25, w25, #1
 2451 1dcc E10318AA 		mov	x1, x24
 2452 1dd0 E0031B2A 		mov	w0, w27
 2453 1dd4 C0023FD6 		blr	x22
 2454 1dd8 3F03136B 		cmp	w25, w19
 2455 1ddc 61FFFF54 		bne	.L863
 2456 1de0 FA021A4B 		sub	w26, w23, w26
 2457 1de4 5403140B 		add	w20, w26, w20
 2458              	.L864:
 2459 1de8 737E4093 		sxtw	x19, w19
 2460 1dec 03000014 		b	.L867
 2461              		.p2align 2
 2462              	.L906:
 2463 1df0 15F05F38 		ldrb	w21, [x0, -1]
 2464 1df4 730600D1 		sub	x19, x19, #1
 2465              	.L867:
 2466 1df8 E003152A 		mov	w0, w21
 2467 1dfc E10318AA 		mov	x1, x24
 2468 1e00 C0023FD6 		blr	x22
 2469 1e04 E0A30291 		add	x0, sp, 168
 2470 1e08 7F020071 		cmp	w19, 0
 2471 1e0c 6002008B 		add	x0, x19, x0
 2472 1e10 0CFFFF54 		bgt	.L906
 2473 1e14 81060051 		sub	w1, w20, #1
 2474 1e18 20008052 		mov	w0, 1
 2475 1e1c 1700174B 		sub	w23, w0, w23
 2476 1e20 9402170B 		add	w20, w20, w23
 2477 1e24 F702010B 		add	w23, w23, w1
 2478 1e28 940A0051 		sub	w20, w20, #2
 2479 1e2c FF020071 		cmp	w23, 0
 2480 1e30 2D010054 		ble	.L900
 2481 1e34 1F2003D5 		.p2align 3
 2482              	.L868:
 2483 1e38 00048052 		mov	w0, 32
 2484 1e3c E10318AA 		mov	x1, x24
 2485 1e40 C0023FD6 		blr	x22
 2486 1e44 80060051 		sub	w0, w20, #1
 2487 1e48 9F020071 		cmp	w20, 0
 2488 1e4c F403002A 		mov	w20, w0
 2489 1e50 4CFFFF54 		bgt	.L868
 2490              	.L900:
 2491 1e54 F55B41A9 		ldp	x21, x22, [sp, 16]
 2492 1e58 F76342A9 		ldp	x23, x24, [sp, 32]
 2493 1e5c F96B43A9 		ldp	x25, x26, [sp, 48]
 2494 1e60 FB7344A9 		ldp	x27, x28, [sp, 64]
 2495              	.L847:
 2496 1e64 FE2B40F9 		ldr	x30, [sp, 80]
 2497 1e68 F353CCA8 		ldp	x19, x20, [sp], 192
 2498 1e6c C0035FD6 		ret
 2499              		.p2align 2
 2500              	.L873:
AARCH64 GAS  C:\Users\A01169~1\AppData\Local\Temp\ccRWduX2.s 			page 45


 2501 1e70 06008052 		mov	w6, 0
 2502              	.L851:
 2503 1e74 637C4093 		sxtw	x3, w3
 2504 1e78 200080D2 		mov	x0, 1
 2505 1e7c 1F2003D5 		.p2align 3
 2506              	.L853:
 2507 1e80 4408C39A 		udiv	x4, x2, x3
 2508 1e84 E1A30291 		add	x1, sp, 168
 2509 1e88 2100008B 		add	x1, x1, x0
 2510 1e8c 5F0003EB 		cmp	x2, x3
 2511 1e90 F703002A 		mov	w23, w0
 2512 1e94 00040091 		add	x0, x0, 1
 2513 1e98 8788039B 		msub	x7, x4, x3, x2
 2514 1e9c E20304AA 		mov	x2, x4
 2515 1ea0 15696738 		ldrb	w21, [x8, x7]
 2516 1ea4 35F01F38 		strb	w21, [x1, -1]
 2517 1ea8 C2FEFF54 		bcs	.L853
 2518 1eac FF02056B 		cmp	w23, w5
 2519 1eb0 FAA2851A 		csel	w26, w23, w5, ge
 2520 1eb4 26F3FF34 		cbz	w6, .L852
 2521              	.L854:
 2522 1eb8 94060051 		sub	w20, w20, #1
 2523 1ebc 7B021E12 		and	w27, w19, 4
 2524 1ec0 73F31737 		tbnz	x19, 2, .L871
 2525 1ec4 60020012 		and	w0, w19, 1
 2526 1ec8 86F3FF35 		cbnz	w6, .L907
 2527              	.L857:
 2528 1ecc C0F3FF34 		cbz	w0, .L858
 2529 1ed0 7F027DF2 		tst	x19, 8
 2530 1ed4 02048052 		mov	w2, 32
 2531 1ed8 60058052 		mov	w0, 43
 2532 1edc E10318AA 		mov	x1, x24
 2533 1ee0 4010801A 		csel	w0, w2, w0, ne
 2534 1ee4 C0023FD6 		blr	x22
 2535 1ee8 97FFFF17 		b	.L858
 2536              	.L876:
 2537 1eec F46F40B9 		ldr	w20, [sp, 108]
 2538              		.p2align 3
 2539              	.L901:
 2540 1ef0 59070051 		sub	w25, w26, #1
 2541 1ef4 AEFFFF17 		b	.L861
 2542              		.p2align 2
 2543              	.L904:
 2544 1ef8 06008052 		mov	w6, 0
 2545 1efc EFFFFF17 		b	.L854
 2546              		.p2align 2
 2547              	.L903:
 2548 1f00 E20302CB 		neg	x2, x2
 2549 1f04 26008052 		mov	w6, 1
 2550 1f08 DBFFFF17 		b	.L851
 2551              		.p2align 2
 2552              	.L905:
 2553 1f0c F3060051 		sub	w19, w23, #1
 2554 1f10 B6FFFF17 		b	.L864
 2555              		.size	cprint_int, .-cprint_int
 2556              		.align	2
 2557 1f14 1F2003D5 		.p2align 4,,15
AARCH64 GAS  C:\Users\A01169~1\AppData\Local\Temp\ccRWduX2.s 			page 46


 2557      1F2003D5 
 2557      1F2003D5 
 2558              		.global	vcprintf
 2559              		.type	vcprintf, %function
 2560              	vcprintf:
 2561 1f20 F353BBA9 		stp	x19, x20, [sp, -80]!
 2562 1f24 F30302AA 		mov	x19, x2
 2563 1f28 F55B01A9 		stp	x21, x22, [sp, 16]
 2564 1f2c F50300AA 		mov	x21, x0
 2565 1f30 F96B03A9 		stp	x25, x26, [sp, 48]
 2566 1f34 F90301AA 		mov	x25, x1
 2567 1f38 F76302A9 		stp	x23, x24, [sp, 32]
 2568 1f3c 771840B9 		ldr	w23, [x3, 24]
 2569 1f40 766040A9 		ldp	x22, x24, [x3]
 2570 1f44 FE2700F9 		str	x30, [sp, 72]
 2571              	.L909:
 2572 1f48 60024039 		ldrb	w0, [x19]
 2573 1f4c 00010034 		cbz	w0, .L1181
 2574              	.L1002:
 2575 1f50 73060091 		add	x19, x19, 1
 2576 1f54 1F940071 		cmp	w0, 37
 2577 1f58 60010054 		beq	.L910
 2578              	.L1166:
 2579 1f5c E10319AA 		mov	x1, x25
 2580 1f60 A0023FD6 		blr	x21
 2581 1f64 60024039 		ldrb	w0, [x19]
 2582 1f68 40FFFF35 		cbnz	w0, .L1002
 2583              	.L1181:
 2584 1f6c F55B41A9 		ldp	x21, x22, [sp, 16]
 2585 1f70 F76342A9 		ldp	x23, x24, [sp, 32]
 2586 1f74 F96B43A9 		ldp	x25, x26, [sp, 48]
 2587 1f78 FE2740F9 		ldr	x30, [sp, 72]
 2588 1f7c F353C5A8 		ldp	x19, x20, [sp], 80
 2589 1f80 C0035FD6 		ret
 2590              		.p2align 2
 2591              	.L910:
 2592 1f84 61060091 		add	x1, x19, 1
 2593 1f88 20F05F38 		ldrb	w0, [x1, -1]
 2594 1f8c 89621912 		and	w9, w20, -128
 2595 1f90 02008052 		mov	w2, 0
 2596 1f94 F403092A 		mov	w20, w9
 2597 1f98 07008052 		mov	w7, 0
 2598 1f9c 04008052 		mov	w4, 0
 2599 1fa0 0A008052 		mov	w10, 0
 2600 1fa4 03008052 		mov	w3, 0
 2601 1fa8 08008052 		mov	w8, 0
 2602 1fac 05008052 		mov	w5, 0
 2603 1fb0 0B008052 		mov	w11, 0
 2604 1fb4 0C008052 		mov	w12, 0
 2605 1fb8 E60301AA 		mov	x6, x1
 2606 1fbc 1FAC0071 		cmp	w0, 43
 2607 1fc0 E0010054 		beq	.L1024
 2608 1fc4 1F2003D5 		.p2align 3
 2609              	.L1182:
 2610 1fc8 08020054 		bhi	.L914
 2611 1fcc 1F800071 		cmp	w0, 32
 2612 1fd0 C0020054 		beq	.L1025
AARCH64 GAS  C:\Users\A01169~1\AppData\Local\Temp\ccRWduX2.s 			page 47


 2613 1fd4 1F8C0071 		cmp	w0, 35
 2614 1fd8 81030054 		bne	.L915
 2615 1fdc 23008052 		mov	w3, 1
 2616 1fe0 F30301AA 		mov	x19, x1
 2617 1fe4 E803032A 		mov	w8, w3
 2618              	.L1183:
 2619 1fe8 61060091 		add	x1, x19, 1
 2620 1fec 20F05F38 		ldrb	w0, [x1, -1]
 2621 1ff0 E60301AA 		mov	x6, x1
 2622 1ff4 1FAC0071 		cmp	w0, 43
 2623 1ff8 81FEFF54 		bne	.L1182
 2624              	.L1024:
 2625 1ffc 2C008052 		mov	w12, 1
 2626 2000 F30301AA 		mov	x19, x1
 2627 2004 F9FFFF17 		b	.L1183
 2628              		.p2align 2
 2629              	.L914:
 2630 2008 1FB40071 		cmp	w0, 45
 2631 200c 60010054 		beq	.L1027
 2632 2010 1FC00071 		cmp	w0, 48
 2633 2014 A1010054 		bne	.L915
 2634 2018 22008052 		mov	w2, 1
 2635 201c F30301AA 		mov	x19, x1
 2636 2020 E703022A 		mov	w7, w2
 2637 2024 F1FFFF17 		b	.L1183
 2638              		.p2align 2
 2639              	.L1025:
 2640 2028 24008052 		mov	w4, 1
 2641 202c F30301AA 		mov	x19, x1
 2642 2030 EA03042A 		mov	w10, w4
 2643 2034 EDFFFF17 		b	.L1183
 2644              		.p2align 2
 2645              	.L1027:
 2646 2038 25008052 		mov	w5, 1
 2647 203c F30301AA 		mov	x19, x1
 2648 2040 EB03052A 		mov	w11, w5
 2649 2044 E9FFFF17 		b	.L1183
 2650              		.p2align 2
 2651              	.L915:
 2652 2048 9F010071 		cmp	w12, 0
 2653 204c 29010032 		orr	w9, w9, 1
 2654 2050 9402891A 		csel	w20, w20, w9, eq
 2655 2054 BF000071 		cmp	w5, 0
 2656 2058 85060153 		ubfx	w5, w20, 1, 1
 2657 205c AB008B1A 		csel	w11, w5, w11, eq
 2658 2060 7F000071 		cmp	w3, 0
 2659 2064 74011F33 		bfi	w20, w11, 1, 1
 2660 2068 830A0253 		ubfx	w3, w20, 2, 1
 2661 206c 6800881A 		csel	w8, w3, w8, eq
 2662 2070 9F000071 		cmp	w4, 0
 2663 2074 14011E33 		bfi	w20, w8, 2, 1
 2664 2078 830E0353 		ubfx	w3, w20, 3, 1
 2665 207c 6A008A1A 		csel	w10, w3, w10, eq
 2666 2080 5F000071 		cmp	w2, 0
 2667 2084 54011D33 		bfi	w20, w10, 3, 1
 2668 2088 82120453 		ubfx	w2, w20, 4, 1
 2669 208c 4700871A 		csel	w7, w2, w7, eq
AARCH64 GAS  C:\Users\A01169~1\AppData\Local\Temp\ccRWduX2.s 			page 48


 2670 2090 1FA80071 		cmp	w0, 42
 2671 2094 F4001C33 		bfi	w20, w7, 4, 1
 2672 2098 20180054 		beq	.L1184
 2673 209c 02C00051 		sub	w2, w0, #48
 2674 20a0 04008052 		mov	w4, 0
 2675 20a4 431C0012 		and	w3, w2, 255
 2676 20a8 45018052 		mov	w5, 10
 2677 20ac 7F240071 		cmp	w3, 9
 2678 20b0 49050054 		bls	.L926
 2679              	.L925:
 2680 20b4 1FB80071 		cmp	w0, 46
 2681 20b8 05008012 		mov	w5, -1
 2682 20bc 60060054 		beq	.L1185
 2683              	.L927:
 2684 20c0 1FB00171 		cmp	w0, 108
 2685 20c4 20080054 		beq	.L933
 2686              	.L1190:
 2687 20c8 680B0054 		bhi	.L934
 2688 20cc 1FA00171 		cmp	w0, 104
 2689 20d0 A10B0054 		bne	.L936
 2690 20d4 60064039 		ldrb	w0, [x19, 1]
 2691 20d8 1FA00171 		cmp	w0, 104
 2692 20dc 40250054 		beq	.L1186
 2693 20e0 660A0091 		add	x6, x19, 2
 2694 20e4 1FA40171 		cmp	w0, 105
 2695 20e8 00210054 		beq	.L1003
 2696 20ec 09200054 		bls	.L1187
 2697 20f0 1FCC0171 		cmp	w0, 115
 2698 20f4 20120054 		beq	.L1047
 2699 20f8 29220054 		bls	.L1188
 2700 20fc 1FD40171 		cmp	w0, 117
 2701 2100 20310054 		beq	.L1043
 2702 2104 1FE00171 		cmp	w0, 120
 2703 2108 41100054 		bne	.L944
 2704 210c 94761B12 		and	w20, w20, -25
 2705 2110 03028052 		mov	w3, 16
 2706 2114 9402032A 		orr	w20, w20, w3
 2707              	.L1008:
 2708 2118 572CF837 		tbnz	w23, #31, .L980
 2709              	.L1207:
 2710 211c E00316AA 		mov	x0, x22
 2711 2120 C12E0091 		add	x1, x22, 11
 2712 2124 36F07D92 		and	x22, x1, -8
 2713 2128 02004079 		ldrh	w2, [x0]
 2714              	.L1204:
 2715 212c BF040031 		cmn	w5, #1
 2716 2130 C0070054 		beq	.L1040
 2717 2134 1F2003D5 		.p2align 3
 2718              	.L1023:
 2719 2138 F30306AA 		mov	x19, x6
 2720              	.L989:
 2721 213c E603142A 		mov	w6, w20
 2722 2140 E10319AA 		mov	x1, x25
 2723 2144 E00315AA 		mov	x0, x21
 2724 2148 00000094 		bl	cprint_int
 2725 214c 7FFFFF17 		b	.L909
 2726              		.p2align 2
AARCH64 GAS  C:\Users\A01169~1\AppData\Local\Temp\ccRWduX2.s 			page 49


 2727              	.L1030:
 2728 2150 F30301AA 		mov	x19, x1
 2729 2154 21040091 		add	x1, x1, 1
 2730              	.L926:
 2731 2158 20004039 		ldrb	w0, [x1]
 2732 215c 8408051B 		madd	w4, w4, w5, w2
 2733 2160 02C00051 		sub	w2, w0, #48
 2734 2164 431C0012 		and	w3, w2, 255
 2735 2168 7F240071 		cmp	w3, 9
 2736 216c 29FFFF54 		bls	.L1030
 2737 2170 660A0091 		add	x6, x19, 2
 2738 2174 1FB80071 		cmp	w0, 46
 2739 2178 F30301AA 		mov	x19, x1
 2740 217c 05008012 		mov	w5, -1
 2741 2180 01FAFF54 		bne	.L927
 2742 2184 1F2003D5 		.p2align 3
 2743              	.L1185:
 2744 2188 60064039 		ldrb	w0, [x19, 1]
 2745 218c 1FA80071 		cmp	w0, 42
 2746 2190 61170054 		bne	.L1189
 2747 2194 610A0091 		add	x1, x19, 2
 2748 2198 772BF837 		tbnz	w23, #31, .L930
 2749 219c C22E0091 		add	x2, x22, 11
 2750 21a0 E00316AA 		mov	x0, x22
 2751 21a4 56F07D92 		and	x22, x2, -8
 2752              	.L931:
 2753 21a8 050040B9 		ldr	w5, [x0]
 2754 21ac 660E0091 		add	x6, x19, 3
 2755 21b0 600A4039 		ldrb	w0, [x19, 2]
 2756 21b4 F30301AA 		mov	x19, x1
 2757 21b8 BF000071 		cmp	w5, 0
 2758 21bc A5A09F1A 		csel	w5, w5, wzr, ge
 2759 21c0 1FB00171 		cmp	w0, 108
 2760 21c4 21F8FF54 		bne	.L1190
 2761              		.p2align 3
 2762              	.L933:
 2763 21c8 60064039 		ldrb	w0, [x19, 1]
 2764 21cc 1FB00171 		cmp	w0, 108
 2765 21d0 E01C0054 		beq	.L1191
 2766 21d4 C6040091 		add	x6, x6, 1
 2767 21d8 1FA40171 		cmp	w0, 105
 2768 21dc E00F0054 		beq	.L952
 2769              	.L1179:
 2770 21e0 A9100054 		bls	.L1192
 2771 21e4 1FCC0171 		cmp	w0, 115
 2772 21e8 800A0054 		beq	.L1047
 2773 21ec 69110054 		bls	.L1193
 2774 21f0 1FD40171 		cmp	w0, 117
 2775 21f4 E0130054 		beq	.L1049
 2776 21f8 1FE00171 		cmp	w0, 120
 2777 21fc A1080054 		bne	.L944
 2778 2200 94761B12 		and	w20, w20, -25
 2779 2204 03028052 		mov	w3, 16
 2780 2208 9402032A 		orr	w20, w20, w3
 2781              	.L957:
 2782 220c 7721F837 		tbnz	w23, #31, .L986
 2783              		.p2align 3
AARCH64 GAS  C:\Users\A01169~1\AppData\Local\Temp\ccRWduX2.s 			page 50


 2784              	.L1201:
 2785 2210 C13E0091 		add	x1, x22, 15
 2786 2214 E00316AA 		mov	x0, x22
 2787 2218 36F07D92 		and	x22, x1, -8
 2788              	.L987:
 2789 221c 020040F9 		ldr	x2, [x0]
 2790              	.L979:
 2791 2220 BF040031 		cmn	w5, #1
 2792 2224 A1F8FF54 		bne	.L1023
 2793              	.L1040:
 2794 2228 F30306AA 		mov	x19, x6
 2795 222c 05008052 		mov	w5, 0
 2796 2230 C3FFFF17 		b	.L989
 2797              		.p2align 2
 2798              	.L934:
 2799 2234 1FD00171 		cmp	w0, 116
 2800 2238 800C0054 		beq	.L937
 2801 223c 1FE80171 		cmp	w0, 122
 2802 2240 400C0054 		beq	.L937
 2803              	.L936:
 2804 2244 1FA40171 		cmp	w0, 105
 2805 2248 00050054 		beq	.L1010
 2806 224c 49020054 		bls	.L1194
 2807 2250 1FCC0171 		cmp	w0, 115
 2808 2254 20070054 		beq	.L1047
 2809 2258 69050054 		bls	.L1195
 2810 225c 1FD40171 		cmp	w0, 117
 2811 2260 00140054 		beq	.L1046
 2812 2264 1FE00171 		cmp	w0, 120
 2813 2268 41050054 		bne	.L944
 2814 226c 94761B12 		and	w20, w20, -25
 2815 2270 03028052 		mov	w3, 16
 2816 2274 9402032A 		orr	w20, w20, w3
 2817              	.L1015:
 2818 2278 3720F837 		tbnz	w23, #31, .L983
 2819 227c 1F2003D5 		.p2align 3
 2820              	.L1203:
 2821 2280 E00316AA 		mov	x0, x22
 2822 2284 C12E0091 		add	x1, x22, 11
 2823 2288 36F07D92 		and	x22, x1, -8
 2824 228c 020040B9 		ldr	w2, [x0]
 2825 2290 E4FFFF17 		b	.L979
 2826              		.p2align 2
 2827              	.L1194:
 2828 2294 1F600171 		cmp	w0, 88
 2829 2298 C01A0054 		beq	.L1012
 2830 229c 49010054 		bls	.L1165
 2831 22a0 1F8C0171 		cmp	w0, 99
 2832 22a4 E1010054 		bne	.L1196
 2833              	.L945:
 2834 22a8 971BF837 		tbnz	w23, #31, .L990
 2835 22ac C12E0091 		add	x1, x22, 11
 2836 22b0 E00316AA 		mov	x0, x22
 2837 22b4 36F07D92 		and	x22, x1, -8
 2838              	.L991:
 2839 22b8 00004039 		ldrb	w0, [x0]
 2840 22bc F30306AA 		mov	x19, x6
AARCH64 GAS  C:\Users\A01169~1\AppData\Local\Temp\ccRWduX2.s 			page 51


 2841 22c0 27FFFF17 		b	.L1166
 2842              		.p2align 2
 2843              	.L1165:
 2844 22c4 1F940071 		cmp	w0, 37
 2845 22c8 41020054 		bne	.L944
 2846              	.L1000:
 2847 22cc F30306AA 		mov	x19, x6
 2848 22d0 E10319AA 		mov	x1, x25
 2849 22d4 A0048052 		mov	w0, 37
 2850 22d8 A0023FD6 		blr	x21
 2851 22dc 1BFFFF17 		b	.L909
 2852              		.p2align 2
 2853              	.L1196:
 2854 22e0 1F900171 		cmp	w0, 100
 2855 22e4 61010054 		bne	.L944
 2856              	.L1010:
 2857 22e8 B726F837 		tbnz	w23, #31, .L966
 2858 22ec C12E0091 		add	x1, x22, 11
 2859 22f0 E00316AA 		mov	x0, x22
 2860 22f4 36F07D92 		and	x22, x1, -8
 2861              	.L967:
 2862 22f8 F30306AA 		mov	x19, x6
 2863 22fc 020080B9 		ldrsw	x2, [x0]
 2864 2300 B3000014 		b	.L962
 2865              		.p2align 2
 2866              	.L1195:
 2867 2304 1FC00171 		cmp	w0, 112
 2868 2308 81008052 		mov	w1, 4
 2869 230c C0080054 		beq	.L948
 2870              		.p2align 3
 2871              	.L944:
 2872 2310 C1004039 		ldrb	w1, [x6]
 2873 2314 3F940071 		cmp	w1, 37
 2874 2318 81000054 		bne	.L1001
 2875 231c 58010014 		b	.L1197
 2876              		.p2align 2
 2877              	.L1198:
 2878 2320 E60300AA 		mov	x6, x0
 2879 2324 00F05F38 		ldrb	w0, [x0, -1]
 2880              	.L1001:
 2881 2328 1F940071 		cmp	w0, 37
 2882 232c C00400D1 		sub	x0, x6, #1
 2883 2330 81FFFF54 		bne	.L1198
 2884 2334 E6FFFF17 		b	.L1000
 2885              		.p2align 2
 2886              	.L1047:
 2887 2338 F30306AA 		mov	x19, x6
 2888 233c 9710F837 		tbnz	w23, #31, .L993
 2889 2340 C13E0091 		add	x1, x22, 15
 2890 2344 E00316AA 		mov	x0, x22
 2891 2348 36F07D92 		and	x22, x1, -8
 2892              	.L994:
 2893 234c BF040031 		cmn	w5, #1
 2894 2350 1A0040F9 		ldr	x26, [x0]
 2895 2354 20200054 		beq	.L996
 2896 2358 85DFFF34 		cbz	w5, .L909
 2897 235c 40034039 		ldrb	w0, [x26]
AARCH64 GAS  C:\Users\A01169~1\AppData\Local\Temp\ccRWduX2.s 			page 52


 2898 2360 40DFFF34 		cbz	w0, .L909
 2899 2364 FB2300F9 		str	x27, [sp, 64]
 2900 2368 BB040051 		sub	w27, w5, #1
 2901 236c 7B070091 		add	x27, x27, 1
 2902 2370 5B031B8B 		add	x27, x26, x27
 2903 2374 03000014 		b	.L999
 2904              		.p2align 2
 2905              	.L1199:
 2906 2378 40034039 		ldrb	w0, [x26]
 2907 237c C0000034 		cbz	w0, .L1152
 2908              	.L999:
 2909 2380 5A070091 		add	x26, x26, 1
 2910 2384 E10319AA 		mov	x1, x25
 2911 2388 A0023FD6 		blr	x21
 2912 238c 5F031BEB 		cmp	x26, x27
 2913 2390 41FFFF54 		bne	.L1199
 2914              	.L1152:
 2915 2394 FB2340F9 		ldr	x27, [sp, 64]
 2916 2398 ECFEFF17 		b	.L909
 2917              		.p2align 2
 2918              	.L1184:
 2919 239c 3709F837 		tbnz	w23, #31, .L922
 2920 23a0 C22E0091 		add	x2, x22, 11
 2921 23a4 E00316AA 		mov	x0, x22
 2922 23a8 56F07D92 		and	x22, x2, -8
 2923              	.L923:
 2924 23ac 040040B9 		ldr	w4, [x0]
 2925 23b0 660A0091 		add	x6, x19, 2
 2926 23b4 60064039 		ldrb	w0, [x19, 1]
 2927 23b8 F30301AA 		mov	x19, x1
 2928 23bc 9F000071 		cmp	w4, 0
 2929 23c0 84A09F1A 		csel	w4, w4, wzr, ge
 2930 23c4 3CFFFF17 		b	.L925
 2931              		.p2align 2
 2932              	.L937:
 2933 23c8 60064039 		ldrb	w0, [x19, 1]
 2934 23cc 660A0091 		add	x6, x19, 2
 2935 23d0 1FA40171 		cmp	w0, 105
 2936 23d4 61F0FF54 		bne	.L1179
 2937              	.L952:
 2938 23d8 3720F837 		tbnz	w23, #31, .L969
 2939              	.L1200:
 2940 23dc C13E0091 		add	x1, x22, 15
 2941 23e0 E00316AA 		mov	x0, x22
 2942 23e4 36F07D92 		and	x22, x1, -8
 2943              	.L970:
 2944 23e8 F30306AA 		mov	x19, x6
 2945 23ec 020040F9 		ldr	x2, [x0]
 2946 23f0 77000014 		b	.L962
 2947              		.p2align 2
 2948              	.L1192:
 2949 23f4 1F600171 		cmp	w0, 88
 2950 23f8 C0190054 		beq	.L1018
 2951 23fc 49F6FF54 		bls	.L1165
 2952 2400 1F8C0171 		cmp	w0, 99
 2953 2404 20F5FF54 		beq	.L945
 2954 2408 1F900171 		cmp	w0, 100
AARCH64 GAS  C:\Users\A01169~1\AppData\Local\Temp\ccRWduX2.s 			page 53


 2955 240c 21F8FF54 		bne	.L944
 2956 2410 77FEFF36 		tbz	w23, #31, .L1200
 2957 2414 F2000014 		b	.L969
 2958              		.p2align 2
 2959              	.L1193:
 2960 2418 1FC00171 		cmp	w0, 112
 2961 241c 01018052 		mov	w1, 8
 2962 2420 81F7FF54 		bne	.L944
 2963              	.L948:
 2964 2424 94021E32 		orr	w20, w20, 4
 2965 2428 BF040031 		cmn	w5, #1
 2966 242c 000B8012 		mov	w0, -89
 2967 2430 9402000A 		and	w20, w20, w0
 2968 2434 03028052 		mov	w3, 16
 2969 2438 000A8052 		mov	w0, 80
 2970 243c A510831A 		csel	w5, w5, w3, ne
 2971 2440 9402002A 		orr	w20, w20, w0
 2972 2444 3F080071 		cmp	w1, 2
 2973 2448 80E6FF54 		beq	.L1008
 2974 244c CC060054 		bgt	.L1022
 2975 2450 3F040071 		cmp	w1, 1
 2976 2454 01070054 		bne	.L1153
 2977 2458 1710F837 		tbnz	w23, #31, .L976
 2978              	.L1206:
 2979 245c E00316AA 		mov	x0, x22
 2980 2460 C12E0091 		add	x1, x22, 11
 2981 2464 36F07D92 		and	x22, x1, -8
 2982 2468 02004039 		ldrb	w2, [x0]
 2983 246c 6DFFFF17 		b	.L979
 2984              		.p2align 2
 2985              	.L1049:
 2986 2470 43018052 		mov	w3, 10
 2987 2474 F7ECFF36 		tbz	w23, #31, .L1201
 2988 2478 70000014 		b	.L986
 2989              		.p2align 2
 2990              	.L1189:
 2991 247c 02C00051 		sub	w2, w0, #48
 2992 2480 05008052 		mov	w5, 0
 2993 2484 411C0012 		and	w1, w2, 255
 2994 2488 43018052 		mov	w3, 10
 2995 248c 3F240071 		cmp	w1, 9
 2996 2490 69000054 		bls	.L929
 2997 2494 F7000014 		b	.L1202
 2998              		.p2align 2
 2999              	.L1033:
 3000 2498 E60313AA 		mov	x6, x19
 3001              	.L929:
 3002 249c C0044039 		ldrb	w0, [x6, 1]
 3003 24a0 A508031B 		madd	w5, w5, w3, w2
 3004 24a4 D3040091 		add	x19, x6, 1
 3005 24a8 02C00051 		sub	w2, w0, #48
 3006 24ac 411C0012 		and	w1, w2, 255
 3007 24b0 3F240071 		cmp	w1, 9
 3008 24b4 29FFFF54 		bls	.L1033
 3009 24b8 C6080091 		add	x6, x6, 2
 3010 24bc 01FFFF17 		b	.L927
 3011              		.p2align 2
AARCH64 GAS  C:\Users\A01169~1\AppData\Local\Temp\ccRWduX2.s 			page 54


 3012              	.L922:
 3013 24c0 E2220011 		add	w2, w23, 8
 3014 24c4 5F000071 		cmp	w2, 0
 3015 24c8 2D0A0054 		ble	.L924
 3016 24cc C32E0091 		add	x3, x22, 11
 3017 24d0 E00316AA 		mov	x0, x22
 3018 24d4 F703022A 		mov	w23, w2
 3019 24d8 76F07D92 		and	x22, x3, -8
 3020 24dc B4FFFF17 		b	.L923
 3021              		.p2align 2
 3022              	.L1046:
 3023 24e0 43018052 		mov	w3, 10
 3024 24e4 F7ECFF36 		tbz	w23, #31, .L1203
 3025 24e8 65000014 		b	.L983
 3026              		.p2align 2
 3027              	.L1187:
 3028 24ec 1F600171 		cmp	w0, 88
 3029 24f0 201B0054 		beq	.L1005
 3030 24f4 89EEFF54 		bls	.L1165
 3031 24f8 1F8C0171 		cmp	w0, 99
 3032 24fc 60EDFF54 		beq	.L945
 3033 2500 1F900171 		cmp	w0, 100
 3034 2504 61F0FF54 		bne	.L944
 3035              	.L1003:
 3036 2508 B718F837 		tbnz	w23, #31, .L963
 3037 250c C12E0091 		add	x1, x22, 11
 3038 2510 E00316AA 		mov	x0, x22
 3039 2514 36F07D92 		and	x22, x1, -8
 3040              	.L964:
 3041 2518 02008079 		ldrsh	x2, [x0]
 3042 251c F30306AA 		mov	x19, x6
 3043 2520 2B000014 		b	.L962
 3044              	.L1022:
 3045 2524 3F100071 		cmp	w1, 4
 3046 2528 80EAFF54 		beq	.L1015
 3047 252c 3F200071 		cmp	w1, 8
 3048 2530 E0E6FF54 		beq	.L957
 3049              	.L1153:
 3050 2534 020080D2 		mov	x2, 0
 3051 2538 00FFFF17 		b	.L1023
 3052              	.L1188:
 3053 253c 1FC00171 		cmp	w0, 112
 3054 2540 41008052 		mov	w1, 2
 3055 2544 00F7FF54 		beq	.L948
 3056 2548 72FFFF17 		b	.L944
 3057              		.p2align 2
 3058              	.L993:
 3059 254c E1220011 		add	w1, w23, 8
 3060 2550 3F000071 		cmp	w1, 0
 3061 2554 AD170054 		ble	.L995
 3062 2558 C23E0091 		add	x2, x22, 15
 3063 255c E00316AA 		mov	x0, x22
 3064 2560 F703012A 		mov	w23, w1
 3065 2564 56F07D92 		and	x22, x2, -8
 3066 2568 79FFFF17 		b	.L994
 3067              		.p2align 2
 3068              	.L1191:
AARCH64 GAS  C:\Users\A01169~1\AppData\Local\Temp\ccRWduX2.s 			page 55


 3069 256c 600A4039 		ldrb	w0, [x19, 2]
 3070 2570 660A0091 		add	x6, x19, 2
 3071 2574 C6040091 		add	x6, x6, 1
 3072 2578 1FA40171 		cmp	w0, 105
 3073 257c 21E3FF54 		bne	.L1179
 3074 2580 96FFFF17 		b	.L952
 3075              		.p2align 2
 3076              	.L1186:
 3077 2584 600A4039 		ldrb	w0, [x19, 2]
 3078 2588 660E0091 		add	x6, x19, 3
 3079 258c 1FA40171 		cmp	w0, 105
 3080 2590 20010054 		beq	.L939
 3081 2594 88090054 		bhi	.L940
 3082 2598 1F600171 		cmp	w0, 88
 3083 259c 40170054 		beq	.L941
 3084 25a0 29E9FF54 		bls	.L1165
 3085 25a4 1F8C0171 		cmp	w0, 99
 3086 25a8 00E8FF54 		beq	.L945
 3087 25ac 1F900171 		cmp	w0, 100
 3088 25b0 01EBFF54 		bne	.L944
 3089              	.L939:
 3090 25b4 5712F837 		tbnz	w23, #31, .L959
 3091 25b8 C12E0091 		add	x1, x22, 11
 3092 25bc E00316AA 		mov	x0, x22
 3093 25c0 36F07D92 		and	x22, x1, -8
 3094              	.L960:
 3095 25c4 02008039 		ldrsb	x2, [x0]
 3096 25c8 F30306AA 		mov	x19, x6
 3097              	.L962:
 3098 25cc BF040031 		cmn	w5, #1
 3099 25d0 86021B32 		orr	w6, w20, 32
 3100 25d4 A5109F1A 		csel	w5, w5, wzr, ne
 3101 25d8 F403062A 		mov	w20, w6
 3102 25dc 43018052 		mov	w3, 10
 3103 25e0 E10319AA 		mov	x1, x25
 3104 25e4 E00315AA 		mov	x0, x21
 3105 25e8 00000094 		bl	cprint_int
 3106 25ec 57FEFF17 		b	.L909
 3107              		.p2align 2
 3108              	.L1012:
 3109 25f0 000B8012 		mov	w0, -89
 3110 25f4 9402000A 		and	w20, w20, w0
 3111 25f8 03028052 		mov	w3, 16
 3112 25fc 000A8052 		mov	w0, 80
 3113 2600 9402002A 		orr	w20, w20, w0
 3114 2604 F7E3FF36 		tbz	w23, #31, .L1203
 3115 2608 1D000014 		b	.L983
 3116              	.L924:
 3117 260c 00C3378B 		add	x0, x24, x23, sxtw
 3118 2610 F703022A 		mov	w23, w2
 3119 2614 66FFFF17 		b	.L923
 3120              	.L990:
 3121 2618 E1220011 		add	w1, w23, 8
 3122 261c 3F000071 		cmp	w1, 0
 3123 2620 ED100054 		ble	.L992
 3124 2624 C22E0091 		add	x2, x22, 11
 3125 2628 E00316AA 		mov	x0, x22
AARCH64 GAS  C:\Users\A01169~1\AppData\Local\Temp\ccRWduX2.s 			page 56


 3126 262c F703012A 		mov	w23, w1
 3127 2630 56F07D92 		and	x22, x2, -8
 3128 2634 21FFFF17 		b	.L991
 3129              		.p2align 2
 3130              	.L986:
 3131 2638 E1220011 		add	w1, w23, 8
 3132 263c 3F000071 		cmp	w1, 0
 3133 2640 0D0B0054 		ble	.L988
 3134 2644 C23E0091 		add	x2, x22, 15
 3135 2648 E00316AA 		mov	x0, x22
 3136 264c F703012A 		mov	w23, w1
 3137 2650 56F07D92 		and	x22, x2, -8
 3138 2654 F2FEFF17 		b	.L987
 3139              	.L976:
 3140 2658 E1220011 		add	w1, w23, 8
 3141 265c 3F000071 		cmp	w1, 0
 3142 2660 8D090054 		ble	.L978
 3143 2664 E00316AA 		mov	x0, x22
 3144 2668 C22E0091 		add	x2, x22, 11
 3145 266c 56F07D92 		and	x22, x2, -8
 3146 2670 F703012A 		mov	w23, w1
 3147 2674 02004039 		ldrb	w2, [x0]
 3148 2678 EAFEFF17 		b	.L979
 3149              	.L983:
 3150 267c E1220011 		add	w1, w23, 8
 3151 2680 3F000071 		cmp	w1, 0
 3152 2684 ED070054 		ble	.L985
 3153 2688 E00316AA 		mov	x0, x22
 3154 268c C22E0091 		add	x2, x22, 11
 3155 2690 56F07D92 		and	x22, x2, -8
 3156 2694 F703012A 		mov	w23, w1
 3157 2698 020040B9 		ldr	w2, [x0]
 3158 269c E1FEFF17 		b	.L979
 3159              	.L980:
 3160 26a0 E1220011 		add	w1, w23, 8
 3161 26a4 3F000071 		cmp	w1, 0
 3162 26a8 2D080054 		ble	.L982
 3163 26ac E00316AA 		mov	x0, x22
 3164 26b0 C22E0091 		add	x2, x22, 11
 3165 26b4 56F07D92 		and	x22, x2, -8
 3166 26b8 F703012A 		mov	w23, w1
 3167 26bc 02004079 		ldrh	w2, [x0]
 3168 26c0 9BFEFF17 		b	.L1204
 3169              	.L940:
 3170 26c4 1FCC0171 		cmp	w0, 115
 3171 26c8 80E3FF54 		beq	.L1047
 3172 26cc 49010054 		bls	.L1205
 3173 26d0 1FD40171 		cmp	w0, 117
 3174 26d4 C0030054 		beq	.L1036
 3175 26d8 1FE00171 		cmp	w0, 120
 3176 26dc A1E1FF54 		bne	.L944
 3177 26e0 94761B12 		and	w20, w20, -25
 3178 26e4 03028052 		mov	w3, 16
 3179 26e8 9402032A 		orr	w20, w20, w3
 3180 26ec 97EBFF36 		tbz	w23, #31, .L1206
 3181 26f0 DAFFFF17 		b	.L976
 3182              		.p2align 2
AARCH64 GAS  C:\Users\A01169~1\AppData\Local\Temp\ccRWduX2.s 			page 57


 3183              	.L1205:
 3184 26f4 1FC00171 		cmp	w0, 112
 3185 26f8 21008052 		mov	w1, 1
 3186 26fc 40E9FF54 		beq	.L948
 3187 2700 04FFFF17 		b	.L944
 3188              		.p2align 2
 3189              	.L930:
 3190 2704 E2220011 		add	w2, w23, 8
 3191 2708 5F000071 		cmp	w2, 0
 3192 270c 4D030054 		ble	.L932
 3193 2710 C32E0091 		add	x3, x22, 11
 3194 2714 E00316AA 		mov	x0, x22
 3195 2718 F703022A 		mov	w23, w2
 3196 271c 76F07D92 		and	x22, x3, -8
 3197 2720 A2FEFF17 		b	.L931
 3198              		.p2align 2
 3199              	.L1043:
 3200 2724 43018052 		mov	w3, 10
 3201 2728 B7CFFF36 		tbz	w23, #31, .L1207
 3202 272c DDFFFF17 		b	.L980
 3203              		.p2align 2
 3204              	.L1018:
 3205 2730 000B8012 		mov	w0, -89
 3206 2734 9402000A 		and	w20, w20, w0
 3207 2738 03028052 		mov	w3, 16
 3208 273c 000A8052 		mov	w0, 80
 3209 2740 9402002A 		orr	w20, w20, w0
 3210 2744 77D6FF36 		tbz	w23, #31, .L1201
 3211 2748 BCFFFF17 		b	.L986
 3212              	.L1036:
 3213 274c 43018052 		mov	w3, 10
 3214 2750 77E8FF36 		tbz	w23, #31, .L1206
 3215 2754 C1FFFF17 		b	.L976
 3216              	.L996:
 3217 2758 40034039 		ldrb	w0, [x26]
 3218 275c 60BFFF34 		cbz	w0, .L909
 3219              		.p2align 3
 3220              	.L998:
 3221 2760 E10319AA 		mov	x1, x25
 3222 2764 A0023FD6 		blr	x21
 3223 2768 401F4038 		ldrb	w0, [x26, 1]!
 3224 276c A0FFFF35 		cbnz	w0, .L998
 3225 2770 F6FDFF17 		b	.L909
 3226              	.L932:
 3227 2774 00C3378B 		add	x0, x24, x23, sxtw
 3228 2778 F703022A 		mov	w23, w2
 3229 277c 8BFEFF17 		b	.L931
 3230              	.L985:
 3231 2780 00C3378B 		add	x0, x24, x23, sxtw
 3232 2784 F703012A 		mov	w23, w1
 3233 2788 020040B9 		ldr	w2, [x0]
 3234 278c A5FEFF17 		b	.L979
 3235              	.L978:
 3236 2790 00C3378B 		add	x0, x24, x23, sxtw
 3237 2794 F703012A 		mov	w23, w1
 3238 2798 02004039 		ldrb	w2, [x0]
 3239 279c A1FEFF17 		b	.L979
AARCH64 GAS  C:\Users\A01169~1\AppData\Local\Temp\ccRWduX2.s 			page 58


 3240              	.L988:
 3241 27a0 00C3378B 		add	x0, x24, x23, sxtw
 3242 27a4 F703012A 		mov	w23, w1
 3243 27a8 9DFEFF17 		b	.L987
 3244              	.L982:
 3245 27ac 00C3378B 		add	x0, x24, x23, sxtw
 3246 27b0 F703012A 		mov	w23, w1
 3247 27b4 02004079 		ldrh	w2, [x0]
 3248 27b8 5DFEFF17 		b	.L1204
 3249              	.L966:
 3250 27bc E1220011 		add	w1, w23, 8
 3251 27c0 3F000071 		cmp	w1, 0
 3252 27c4 4D070054 		ble	.L968
 3253 27c8 C22E0091 		add	x2, x22, 11
 3254 27cc E00316AA 		mov	x0, x22
 3255 27d0 F703012A 		mov	w23, w1
 3256 27d4 56F07D92 		and	x22, x2, -8
 3257 27d8 C8FEFF17 		b	.L967
 3258              	.L969:
 3259 27dc E1220011 		add	w1, w23, 8
 3260 27e0 3F000071 		cmp	w1, 0
 3261 27e4 AD060054 		ble	.L971
 3262 27e8 C23E0091 		add	x2, x22, 15
 3263 27ec E00316AA 		mov	x0, x22
 3264 27f0 F703012A 		mov	w23, w1
 3265 27f4 56F07D92 		and	x22, x2, -8
 3266 27f8 FCFEFF17 		b	.L970
 3267              	.L959:
 3268 27fc E1220011 		add	w1, w23, 8
 3269 2800 3F000071 		cmp	w1, 0
 3270 2804 0D060054 		ble	.L961
 3271 2808 C22E0091 		add	x2, x22, 11
 3272 280c E00316AA 		mov	x0, x22
 3273 2810 F703012A 		mov	w23, w1
 3274 2814 56F07D92 		and	x22, x2, -8
 3275 2818 6BFFFF17 		b	.L960
 3276              	.L963:
 3277 281c E1220011 		add	w1, w23, 8
 3278 2820 3F000071 		cmp	w1, 0
 3279 2824 ED030054 		ble	.L965
 3280 2828 C22E0091 		add	x2, x22, 11
 3281 282c E00316AA 		mov	x0, x22
 3282 2830 F703012A 		mov	w23, w1
 3283 2834 56F07D92 		and	x22, x2, -8
 3284 2838 38FFFF17 		b	.L964
 3285              	.L992:
 3286 283c 00C3378B 		add	x0, x24, x23, sxtw
 3287 2840 F703012A 		mov	w23, w1
 3288 2844 9DFEFF17 		b	.L991
 3289              	.L995:
 3290 2848 00C3378B 		add	x0, x24, x23, sxtw
 3291 284c F703012A 		mov	w23, w1
 3292 2850 BFFEFF17 		b	.L994
 3293              	.L1005:
 3294 2854 000B8012 		mov	w0, -89
 3295 2858 9402000A 		and	w20, w20, w0
 3296 285c 03028052 		mov	w3, 16
AARCH64 GAS  C:\Users\A01169~1\AppData\Local\Temp\ccRWduX2.s 			page 59


 3297 2860 000A8052 		mov	w0, 80
 3298 2864 9402002A 		orr	w20, w20, w0
 3299 2868 B7C5FF36 		tbz	w23, #31, .L1207
 3300 286c 8DFFFF17 		b	.L980
 3301              	.L1202:
 3302 2870 F30306AA 		mov	x19, x6
 3303 2874 C6040091 		add	x6, x6, 1
 3304 2878 12FEFF17 		b	.L927
 3305              	.L1197:
 3306 287c C6040091 		add	x6, x6, 1
 3307 2880 93FEFF17 		b	.L1000
 3308              	.L941:
 3309 2884 000B8012 		mov	w0, -89
 3310 2888 9402000A 		and	w20, w20, w0
 3311 288c 03028052 		mov	w3, 16
 3312 2890 000A8052 		mov	w0, 80
 3313 2894 9402002A 		orr	w20, w20, w0
 3314 2898 37DEFF36 		tbz	w23, #31, .L1206
 3315 289c 6FFFFF17 		b	.L976
 3316              	.L965:
 3317 28a0 00C3378B 		add	x0, x24, x23, sxtw
 3318 28a4 F703012A 		mov	w23, w1
 3319 28a8 1CFFFF17 		b	.L964
 3320              	.L968:
 3321 28ac 00C3378B 		add	x0, x24, x23, sxtw
 3322 28b0 F703012A 		mov	w23, w1
 3323 28b4 91FEFF17 		b	.L967
 3324              	.L971:
 3325 28b8 00C3378B 		add	x0, x24, x23, sxtw
 3326 28bc F703012A 		mov	w23, w1
 3327 28c0 CAFEFF17 		b	.L970
 3328              	.L961:
 3329 28c4 00C3378B 		add	x0, x24, x23, sxtw
 3330 28c8 F703012A 		mov	w23, w1
 3331 28cc 3EFFFF17 		b	.L960
 3332              		.size	vcprintf, .-vcprintf
 3333              		.align	2
 3334              		.p2align 4,,15
 3335              		.global	vsnprintf
 3336              		.type	vsnprintf, %function
 3337              	vsnprintf:
 3338 28d0 F353BCA9 		stp	x19, x20, [sp, -64]!
 3339 28d4 EE0302AA 		mov	x14, x2
 3340 28d8 F55B01A9 		stp	x21, x22, [sp, 16]
 3341 28dc F60300AA 		mov	x22, x0
 3342 28e0 F50301AA 		mov	x21, x1
 3343 28e4 731840B9 		ldr	w19, [x3, 24]
 3344 28e8 E00703A9 		stp	x0, x1, [sp, 48]
 3345 28ec 725040A9 		ldp	x18, x20, [x3]
 3346 28f0 FE1300F9 		str	x30, [sp, 32]
 3347              	.L1209:
 3348 28f4 C0014039 		ldrb	w0, [x14]
 3349 28f8 C0010034 		cbz	w0, .L1506
 3350              	.L1309:
 3351 28fc CE050091 		add	x14, x14, 1
 3352 2900 1F940071 		cmp	w0, 37
 3353 2904 C0020054 		beq	.L1210
AARCH64 GAS  C:\Users\A01169~1\AppData\Local\Temp\ccRWduX2.s 			page 60


 3354 2908 E10B43A9 		ldp	x1, x2, [sp, 48]
 3355 290c A20000B4 		cbz	x2, .L1211
 3356 2910 20000039 		strb	w0, [x1]
 3357 2914 E10343A9 		ldp	x1, x0, [sp, 48]
 3358 2918 000400D1 		sub	x0, x0, #1
 3359 291c E01F00F9 		str	x0, [sp, 56]
 3360              	.L1211:
 3361 2920 C0014039 		ldrb	w0, [x14]
 3362 2924 21040091 		add	x1, x1, 1
 3363 2928 E11B00F9 		str	x1, [sp, 48]
 3364 292c 80FEFF35 		cbnz	w0, .L1309
 3365              	.L1506:
 3366 2930 E00743A9 		ldp	x0, x1, [sp, 48]
 3367 2934 610000B4 		cbz	x1, .L1310
 3368 2938 1F000039 		strb	wzr, [x0]
 3369 293c E01B40F9 		ldr	x0, [sp, 48]
 3370              	.L1310:
 3371 2940 D502158B 		add	x21, x22, x21
 3372 2944 0000164B 		sub	w0, w0, w22
 3373 2948 BFF21F38 		strb	wzr, [x21, -1]
 3374 294c F55B41A9 		ldp	x21, x22, [sp, 16]
 3375 2950 FE1340F9 		ldr	x30, [sp, 32]
 3376 2954 F353C4A8 		ldp	x19, x20, [sp], 64
 3377 2958 C0035FD6 		ret
 3378              		.p2align 2
 3379              	.L1210:
 3380 295c C2050091 		add	x2, x14, 1
 3381 2960 41F05F38 		ldrb	w1, [x2, -1]
 3382 2964 EF011912 		and	w15, w15, 128
 3383 2968 04008052 		mov	w4, 0
 3384 296c 0B008052 		mov	w11, 0
 3385 2970 07008052 		mov	w7, 0
 3386 2974 00008052 		mov	w0, 0
 3387 2978 08008052 		mov	w8, 0
 3388 297c 03008052 		mov	w3, 0
 3389 2980 06008052 		mov	w6, 0
 3390 2984 0A008052 		mov	w10, 0
 3391 2988 0C008052 		mov	w12, 0
 3392 298c E50302AA 		mov	x5, x2
 3393 2990 3FAC0071 		cmp	w1, 43
 3394 2994 C0010054 		beq	.L1332
 3395              		.p2align 3
 3396              	.L1507:
 3397 2998 A8110054 		bhi	.L1215
 3398 299c 3F800071 		cmp	w1, 32
 3399 29a0 E0100054 		beq	.L1333
 3400 29a4 3F8C0071 		cmp	w1, 35
 3401 29a8 A1010054 		bne	.L1216
 3402 29ac 28008052 		mov	w8, 1
 3403 29b0 EE0302AA 		mov	x14, x2
 3404 29b4 E303082A 		mov	w3, w8
 3405              	.L1508:
 3406 29b8 C2050091 		add	x2, x14, 1
 3407 29bc 41F05F38 		ldrb	w1, [x2, -1]
 3408 29c0 E50302AA 		mov	x5, x2
 3409 29c4 3FAC0071 		cmp	w1, 43
 3410 29c8 81FEFF54 		bne	.L1507
AARCH64 GAS  C:\Users\A01169~1\AppData\Local\Temp\ccRWduX2.s 			page 61


 3411              	.L1332:
 3412 29cc 2A008052 		mov	w10, 1
 3413 29d0 EE0302AA 		mov	x14, x2
 3414 29d4 EC030A2A 		mov	w12, w10
 3415 29d8 F8FFFF17 		b	.L1508
 3416              		.p2align 2
 3417              	.L1216:
 3418 29dc 5F010071 		cmp	w10, 0
 3419 29e0 E9010053 		ubfx	w9, w15, 0, 1
 3420 29e4 29018C1A 		csel	w9, w9, w12, eq
 3421 29e8 DF000071 		cmp	w6, 0
 3422 29ec 2F010033 		bfi	w15, w9, 0, 1
 3423 29f0 E6011F32 		orr	w6, w15, 2
 3424 29f4 EF01861A 		csel	w15, w15, w6, eq
 3425 29f8 1F010071 		cmp	w8, 0
 3426 29fc E6090253 		ubfx	w6, w15, 2, 1
 3427 2a00 C600831A 		csel	w6, w6, w3, eq
 3428 2a04 FF000071 		cmp	w7, 0
 3429 2a08 CF001E33 		bfi	w15, w6, 2, 1
 3430 2a0c E30D0353 		ubfx	w3, w15, 3, 1
 3431 2a10 6300801A 		csel	w3, w3, w0, eq
 3432 2a14 9F000071 		cmp	w4, 0
 3433 2a18 6F001D33 		bfi	w15, w3, 3, 1
 3434 2a1c E0110453 		ubfx	w0, w15, 4, 1
 3435 2a20 00008B1A 		csel	w0, w0, w11, eq
 3436 2a24 3FA80071 		cmp	w1, 42
 3437 2a28 0F001C33 		bfi	w15, w0, 4, 1
 3438 2a2c 401C0054 		beq	.L1509
 3439 2a30 26C00051 		sub	w6, w1, #48
 3440 2a34 03008052 		mov	w3, 0
 3441 2a38 C01C0012 		and	w0, w6, 255
 3442 2a3c 44018052 		mov	w4, 10
 3443 2a40 1F240071 		cmp	w0, 9
 3444 2a44 09050054 		bls	.L1227
 3445              	.L1226:
 3446 2a48 3FB80071 		cmp	w1, 46
 3447 2a4c 04008012 		mov	w4, -1
 3448 2a50 00060054 		beq	.L1510
 3449              	.L1228:
 3450 2a54 3FB00171 		cmp	w1, 108
 3451 2a58 C0070054 		beq	.L1234
 3452              	.L1515:
 3453 2a5c E80C0054 		bhi	.L1235
 3454 2a60 3FA00171 		cmp	w1, 104
 3455 2a64 210D0054 		bne	.L1237
 3456 2a68 C1054039 		ldrb	w1, [x14, 1]
 3457 2a6c 3FA00171 		cmp	w1, 104
 3458 2a70 80290054 		beq	.L1511
 3459 2a74 C5090091 		add	x5, x14, 2
 3460 2a78 3FA40171 		cmp	w1, 105
 3461 2a7c 40250054 		beq	.L1311
 3462 2a80 49240054 		bls	.L1512
 3463 2a84 3FCC0171 		cmp	w1, 115
 3464 2a88 C0150054 		beq	.L1355
 3465 2a8c 69260054 		bls	.L1513
 3466 2a90 3FD40171 		cmp	w1, 117
 3467 2a94 40350054 		beq	.L1351
AARCH64 GAS  C:\Users\A01169~1\AppData\Local\Temp\ccRWduX2.s 			page 62


 3468 2a98 3FE00171 		cmp	w1, 120
 3469 2a9c A1120054 		bne	.L1245
 3470 2aa0 EF751B12 		and	w15, w15, -25
 3471 2aa4 02028052 		mov	w2, 16
 3472 2aa8 EF01022A 		orr	w15, w15, w2
 3473              	.L1316:
 3474 2aac 532EF837 		tbnz	w19, #31, .L1281
 3475              		.p2align 3
 3476              	.L1532:
 3477 2ab0 E00312AA 		mov	x0, x18
 3478 2ab4 412E0091 		add	x1, x18, 11
 3479 2ab8 32F07D92 		and	x18, x1, -8
 3480 2abc 01004079 		ldrh	w1, [x0]
 3481              	.L1529:
 3482 2ac0 9F040031 		cmn	w4, #1
 3483 2ac4 60070054 		beq	.L1348
 3484              		.p2align 3
 3485              	.L1331:
 3486 2ac8 EE0305AA 		mov	x14, x5
 3487              	.L1290:
 3488 2acc E5030F2A 		mov	w5, w15
 3489 2ad0 E0C30091 		add	x0, sp, 48
 3490 2ad4 C3F6FF97 		bl	cprint_int.constprop.3
 3491 2ad8 87FFFF17 		b	.L1209
 3492              		.p2align 2
 3493              	.L1338:
 3494 2adc EE0302AA 		mov	x14, x2
 3495 2ae0 42040091 		add	x2, x2, 1
 3496              	.L1227:
 3497 2ae4 41004039 		ldrb	w1, [x2]
 3498 2ae8 6318041B 		madd	w3, w3, w4, w6
 3499 2aec 26C00051 		sub	w6, w1, #48
 3500 2af0 C01C0012 		and	w0, w6, 255
 3501 2af4 1F240071 		cmp	w0, 9
 3502 2af8 29FFFF54 		bls	.L1338
 3503 2afc C5090091 		add	x5, x14, 2
 3504 2b00 3FB80071 		cmp	w1, 46
 3505 2b04 EE0302AA 		mov	x14, x2
 3506 2b08 04008012 		mov	w4, -1
 3507 2b0c 41FAFF54 		bne	.L1228
 3508              		.p2align 3
 3509              	.L1510:
 3510 2b10 C1054039 		ldrb	w1, [x14, 1]
 3511 2b14 3FA80071 		cmp	w1, 42
 3512 2b18 011C0054 		bne	.L1514
 3513 2b1c C0090091 		add	x0, x14, 2
 3514 2b20 F32FF837 		tbnz	w19, #31, .L1231
 3515 2b24 422E0091 		add	x2, x18, 11
 3516 2b28 E10312AA 		mov	x1, x18
 3517 2b2c 52F07D92 		and	x18, x2, -8
 3518              	.L1232:
 3519 2b30 240040B9 		ldr	w4, [x1]
 3520 2b34 C50D0091 		add	x5, x14, 3
 3521 2b38 C1094039 		ldrb	w1, [x14, 2]
 3522 2b3c EE0300AA 		mov	x14, x0
 3523 2b40 9F000071 		cmp	w4, 0
 3524 2b44 84A09F1A 		csel	w4, w4, wzr, ge
AARCH64 GAS  C:\Users\A01169~1\AppData\Local\Temp\ccRWduX2.s 			page 63


 3525 2b48 3FB00171 		cmp	w1, 108
 3526 2b4c 81F8FF54 		bne	.L1515
 3527              		.p2align 3
 3528              	.L1234:
 3529 2b50 C1054039 		ldrb	w1, [x14, 1]
 3530 2b54 3FB00171 		cmp	w1, 108
 3531 2b58 80210054 		beq	.L1516
 3532 2b5c A5040091 		add	x5, x5, 1
 3533 2b60 3FA40171 		cmp	w1, 105
 3534 2b64 60140054 		beq	.L1253
 3535              	.L1503:
 3536 2b68 49150054 		bls	.L1517
 3537 2b6c 3FCC0171 		cmp	w1, 115
 3538 2b70 800E0054 		beq	.L1355
 3539 2b74 09160054 		bls	.L1518
 3540 2b78 3FD40171 		cmp	w1, 117
 3541 2b7c 80180054 		beq	.L1357
 3542 2b80 3FE00171 		cmp	w1, 120
 3543 2b84 610B0054 		bne	.L1245
 3544 2b88 EF751B12 		and	w15, w15, -25
 3545 2b8c 02028052 		mov	w2, 16
 3546 2b90 EF01022A 		orr	w15, w15, w2
 3547              	.L1258:
 3548 2b94 5329F837 		tbnz	w19, #31, .L1287
 3549              		.p2align 3
 3550              	.L1526:
 3551 2b98 413E0091 		add	x1, x18, 15
 3552 2b9c E00312AA 		mov	x0, x18
 3553 2ba0 32F07D92 		and	x18, x1, -8
 3554              	.L1288:
 3555 2ba4 010040F9 		ldr	x1, [x0]
 3556              	.L1280:
 3557 2ba8 9F040031 		cmn	w4, #1
 3558 2bac E1F8FF54 		bne	.L1331
 3559              	.L1348:
 3560 2bb0 EE0305AA 		mov	x14, x5
 3561 2bb4 04008052 		mov	w4, 0
 3562 2bb8 C5FFFF17 		b	.L1290
 3563              		.p2align 2
 3564              	.L1333:
 3565 2bbc 27008052 		mov	w7, 1
 3566 2bc0 EE0302AA 		mov	x14, x2
 3567 2bc4 E003072A 		mov	w0, w7
 3568 2bc8 7CFFFF17 		b	.L1508
 3569              		.p2align 2
 3570              	.L1215:
 3571 2bcc 3FB40071 		cmp	w1, 45
 3572 2bd0 E0000054 		beq	.L1335
 3573 2bd4 3FC00071 		cmp	w1, 48
 3574 2bd8 21F0FF54 		bne	.L1216
 3575 2bdc 24008052 		mov	w4, 1
 3576 2be0 EE0302AA 		mov	x14, x2
 3577 2be4 EB03042A 		mov	w11, w4
 3578 2be8 74FFFF17 		b	.L1508
 3579              		.p2align 2
 3580              	.L1335:
 3581 2bec 26008052 		mov	w6, 1
AARCH64 GAS  C:\Users\A01169~1\AppData\Local\Temp\ccRWduX2.s 			page 64


 3582 2bf0 EE0302AA 		mov	x14, x2
 3583 2bf4 71FFFF17 		b	.L1508
 3584              		.p2align 2
 3585              	.L1235:
 3586 2bf8 3FD00171 		cmp	w1, 116
 3587 2bfc 200F0054 		beq	.L1238
 3588 2c00 3FE80171 		cmp	w1, 122
 3589 2c04 E00E0054 		beq	.L1238
 3590              	.L1237:
 3591 2c08 3FA40171 		cmp	w1, 105
 3592 2c0c C0050054 		beq	.L1318
 3593 2c10 29020054 		bls	.L1519
 3594 2c14 3FCC0171 		cmp	w1, 115
 3595 2c18 40090054 		beq	.L1355
 3596 2c1c 29060054 		bls	.L1520
 3597 2c20 3FD40171 		cmp	w1, 117
 3598 2c24 C0160054 		beq	.L1354
 3599 2c28 3FE00171 		cmp	w1, 120
 3600 2c2c 21060054 		bne	.L1245
 3601 2c30 EF751B12 		and	w15, w15, -25
 3602 2c34 02028052 		mov	w2, 16
 3603 2c38 EF01022A 		orr	w15, w15, w2
 3604              	.L1323:
 3605 2c3c F322F837 		tbnz	w19, #31, .L1284
 3606              		.p2align 3
 3607              	.L1528:
 3608 2c40 E00312AA 		mov	x0, x18
 3609 2c44 412E0091 		add	x1, x18, 11
 3610 2c48 32F07D92 		and	x18, x1, -8
 3611 2c4c 010040B9 		ldr	w1, [x0]
 3612 2c50 D6FFFF17 		b	.L1280
 3613              		.p2align 2
 3614              	.L1519:
 3615 2c54 3F600171 		cmp	w1, 88
 3616 2c58 801D0054 		beq	.L1320
 3617 2c5c 49020054 		bls	.L1489
 3618 2c60 3F8C0171 		cmp	w1, 99
 3619 2c64 C1020054 		bne	.L1521
 3620              	.L1246:
 3621 2c68 531EF837 		tbnz	w19, #31, .L1291
 3622 2c6c 402E0091 		add	x0, x18, 11
 3623 2c70 E20312AA 		mov	x2, x18
 3624 2c74 12F07D92 		and	x18, x0, -8
 3625              	.L1292:
 3626 2c78 E00743A9 		ldp	x0, x1, [sp, 48]
 3627 2c7c C10000B4 		cbz	x1, .L1305
 3628 2c80 410040B9 		ldr	w1, [x2]
 3629              	.L1491:
 3630 2c84 01000039 		strb	w1, [x0]
 3631 2c88 E00743A9 		ldp	x0, x1, [sp, 48]
 3632 2c8c 210400D1 		sub	x1, x1, #1
 3633 2c90 E11F00F9 		str	x1, [sp, 56]
 3634              	.L1305:
 3635 2c94 00040091 		add	x0, x0, 1
 3636 2c98 EE0305AA 		mov	x14, x5
 3637 2c9c E01B00F9 		str	x0, [sp, 48]
 3638 2ca0 15FFFF17 		b	.L1209
AARCH64 GAS  C:\Users\A01169~1\AppData\Local\Temp\ccRWduX2.s 			page 65


 3639              		.p2align 2
 3640              	.L1489:
 3641 2ca4 3F940071 		cmp	w1, 37
 3642 2ca8 41020054 		bne	.L1245
 3643 2cac E00743A9 		ldp	x0, x1, [sp, 48]
 3644 2cb0 21FFFFB4 		cbz	x1, .L1305
 3645 2cb4 A1048052 		mov	w1, 37
 3646 2cb8 F3FFFF17 		b	.L1491
 3647              		.p2align 2
 3648              	.L1521:
 3649 2cbc 3F900171 		cmp	w1, 100
 3650 2cc0 81010054 		bne	.L1245
 3651              	.L1318:
 3652 2cc4 332AF837 		tbnz	w19, #31, .L1267
 3653 2cc8 412E0091 		add	x1, x18, 11
 3654 2ccc E00312AA 		mov	x0, x18
 3655 2cd0 32F07D92 		and	x18, x1, -8
 3656              	.L1268:
 3657 2cd4 EE0305AA 		mov	x14, x5
 3658 2cd8 010080B9 		ldrsw	x1, [x0]
 3659 2cdc C3000014 		b	.L1263
 3660              		.p2align 2
 3661              	.L1520:
 3662 2ce0 3FC00171 		cmp	w1, 112
 3663 2ce4 80008052 		mov	w0, 4
 3664 2ce8 C00A0054 		beq	.L1249
 3665 2cec 1F2003D5 		.p2align 3
 3666              	.L1245:
 3667 2cf0 A0004039 		ldrb	w0, [x5]
 3668 2cf4 1F940071 		cmp	w0, 37
 3669 2cf8 81000054 		bne	.L1307
 3670 2cfc 73010014 		b	.L1522
 3671              		.p2align 2
 3672              	.L1523:
 3673 2d00 01F05F38 		ldrb	w1, [x0, -1]
 3674 2d04 E50300AA 		mov	x5, x0
 3675              	.L1307:
 3676 2d08 3F940071 		cmp	w1, 37
 3677 2d0c A00400D1 		sub	x0, x5, #1
 3678 2d10 81FFFF54 		bne	.L1523
 3679              	.L1306:
 3680 2d14 E00743A9 		ldp	x0, x1, [sp, 48]
 3681 2d18 C10000B4 		cbz	x1, .L1308
 3682 2d1c A1048052 		mov	w1, 37
 3683 2d20 01000039 		strb	w1, [x0]
 3684 2d24 E00743A9 		ldp	x0, x1, [sp, 48]
 3685 2d28 210400D1 		sub	x1, x1, #1
 3686 2d2c E11F00F9 		str	x1, [sp, 56]
 3687              	.L1308:
 3688 2d30 00040091 		add	x0, x0, 1
 3689 2d34 EE0305AA 		mov	x14, x5
 3690 2d38 E01B00F9 		str	x0, [sp, 48]
 3691 2d3c EEFEFF17 		b	.L1209
 3692              		.p2align 2
 3693              	.L1355:
 3694 2d40 EE0305AA 		mov	x14, x5
 3695 2d44 3311F837 		tbnz	w19, #31, .L1295
AARCH64 GAS  C:\Users\A01169~1\AppData\Local\Temp\ccRWduX2.s 			page 66


 3696 2d48 413E0091 		add	x1, x18, 15
 3697 2d4c E00312AA 		mov	x0, x18
 3698 2d50 32F07D92 		and	x18, x1, -8
 3699              	.L1296:
 3700 2d54 9F040031 		cmn	w4, #1
 3701 2d58 010040F9 		ldr	x1, [x0]
 3702 2d5c A0200054 		beq	.L1298
 3703 2d60 A4DCFF34 		cbz	w4, .L1209
 3704 2d64 23004039 		ldrb	w3, [x1]
 3705 2d68 63DCFF34 		cbz	w3, .L1209
 3706 2d6c 84040051 		sub	w4, w4, #1
 3707 2d70 84040091 		add	x4, x4, 1
 3708 2d74 2400048B 		add	x4, x1, x4
 3709 2d78 E00B43A9 		ldp	x0, x2, [sp, 48]
 3710 2d7c 03000014 		b	.L1304
 3711              		.p2align 2
 3712              	.L1524:
 3713 2d80 23004039 		ldrb	w3, [x1]
 3714 2d84 83DBFF34 		cbz	w3, .L1209
 3715              	.L1304:
 3716 2d88 21040091 		add	x1, x1, 1
 3717 2d8c A20000B4 		cbz	x2, .L1303
 3718 2d90 03000039 		strb	w3, [x0]
 3719 2d94 E00B43A9 		ldp	x0, x2, [sp, 48]
 3720 2d98 420400D1 		sub	x2, x2, #1
 3721 2d9c E21F00F9 		str	x2, [sp, 56]
 3722              	.L1303:
 3723 2da0 00040091 		add	x0, x0, 1
 3724 2da4 E01B00F9 		str	x0, [sp, 48]
 3725 2da8 3F0004EB 		cmp	x1, x4
 3726 2dac A1FEFF54 		bne	.L1524
 3727 2db0 D1FEFF17 		b	.L1209
 3728              		.p2align 2
 3729              	.L1509:
 3730 2db4 5309F837 		tbnz	w19, #31, .L1223
 3731 2db8 412E0091 		add	x1, x18, 11
 3732 2dbc E00312AA 		mov	x0, x18
 3733 2dc0 32F07D92 		and	x18, x1, -8
 3734              	.L1224:
 3735 2dc4 030040B9 		ldr	w3, [x0]
 3736 2dc8 C5090091 		add	x5, x14, 2
 3737 2dcc C1054039 		ldrb	w1, [x14, 1]
 3738 2dd0 EE0302AA 		mov	x14, x2
 3739 2dd4 7F000071 		cmp	w3, 0
 3740 2dd8 63A09F1A 		csel	w3, w3, wzr, ge
 3741 2ddc 1BFFFF17 		b	.L1226
 3742              		.p2align 2
 3743              	.L1238:
 3744 2de0 C1054039 		ldrb	w1, [x14, 1]
 3745 2de4 C5090091 		add	x5, x14, 2
 3746 2de8 3FA40171 		cmp	w1, 105
 3747 2dec E1EBFF54 		bne	.L1503
 3748              	.L1253:
 3749 2df0 D321F837 		tbnz	w19, #31, .L1270
 3750 2df4 1F2003D5 		.p2align 3
 3751              	.L1525:
 3752 2df8 413E0091 		add	x1, x18, 15
AARCH64 GAS  C:\Users\A01169~1\AppData\Local\Temp\ccRWduX2.s 			page 67


 3753 2dfc E00312AA 		mov	x0, x18
 3754 2e00 32F07D92 		and	x18, x1, -8
 3755              	.L1271:
 3756 2e04 EE0305AA 		mov	x14, x5
 3757 2e08 010040F9 		ldr	x1, [x0]
 3758 2e0c 77000014 		b	.L1263
 3759              		.p2align 2
 3760              	.L1517:
 3761 2e10 3F600171 		cmp	w1, 88
 3762 2e14 A0190054 		beq	.L1326
 3763 2e18 69F4FF54 		bls	.L1489
 3764 2e1c 3F8C0171 		cmp	w1, 99
 3765 2e20 40F2FF54 		beq	.L1246
 3766 2e24 3F900171 		cmp	w1, 100
 3767 2e28 41F6FF54 		bne	.L1245
 3768 2e2c 73FEFF36 		tbz	w19, #31, .L1525
 3769 2e30 FE000014 		b	.L1270
 3770              		.p2align 2
 3771              	.L1518:
 3772 2e34 3FC00171 		cmp	w1, 112
 3773 2e38 00018052 		mov	w0, 8
 3774 2e3c A1F5FF54 		bne	.L1245
 3775              	.L1249:
 3776 2e40 EF011E32 		orr	w15, w15, 4
 3777 2e44 9F040031 		cmn	w4, #1
 3778 2e48 010B8012 		mov	w1, -89
 3779 2e4c EF01010A 		and	w15, w15, w1
 3780 2e50 02028052 		mov	w2, 16
 3781 2e54 010A8052 		mov	w1, 80
 3782 2e58 8410821A 		csel	w4, w4, w2, ne
 3783 2e5c EF01012A 		orr	w15, w15, w1
 3784 2e60 1F080071 		cmp	w0, 2
 3785 2e64 40E2FF54 		beq	.L1316
 3786 2e68 CC060054 		bgt	.L1330
 3787 2e6c 1F040071 		cmp	w0, 1
 3788 2e70 01070054 		bne	.L1477
 3789 2e74 F30EF837 		tbnz	w19, #31, .L1277
 3790              	.L1531:
 3791 2e78 E00312AA 		mov	x0, x18
 3792 2e7c 412E0091 		add	x1, x18, 11
 3793 2e80 32F07D92 		and	x18, x1, -8
 3794 2e84 01004039 		ldrb	w1, [x0]
 3795 2e88 48FFFF17 		b	.L1280
 3796              		.p2align 2
 3797              	.L1357:
 3798 2e8c 42018052 		mov	w2, 10
 3799 2e90 53E8FF36 		tbz	w19, #31, .L1526
 3800 2e94 8A000014 		b	.L1287
 3801              		.p2align 2
 3802              	.L1514:
 3803 2e98 26C00051 		sub	w6, w1, #48
 3804 2e9c 04008052 		mov	w4, 0
 3805 2ea0 C01C0012 		and	w0, w6, 255
 3806 2ea4 42018052 		mov	w2, 10
 3807 2ea8 1F240071 		cmp	w0, 9
 3808 2eac 69000054 		bls	.L1230
 3809 2eb0 03010014 		b	.L1527
AARCH64 GAS  C:\Users\A01169~1\AppData\Local\Temp\ccRWduX2.s 			page 68


 3810              		.p2align 2
 3811              	.L1341:
 3812 2eb4 E5030EAA 		mov	x5, x14
 3813              	.L1230:
 3814 2eb8 A1044039 		ldrb	w1, [x5, 1]
 3815 2ebc 8418021B 		madd	w4, w4, w2, w6
 3816 2ec0 AE040091 		add	x14, x5, 1
 3817 2ec4 26C00051 		sub	w6, w1, #48
 3818 2ec8 C01C0012 		and	w0, w6, 255
 3819 2ecc 1F240071 		cmp	w0, 9
 3820 2ed0 29FFFF54 		bls	.L1341
 3821 2ed4 A5080091 		add	x5, x5, 2
 3822 2ed8 DFFEFF17 		b	.L1228
 3823              		.p2align 2
 3824              	.L1223:
 3825 2edc 61220011 		add	w1, w19, 8
 3826 2ee0 3F000071 		cmp	w1, 0
 3827 2ee4 0D0A0054 		ble	.L1225
 3828 2ee8 432E0091 		add	x3, x18, 11
 3829 2eec E00312AA 		mov	x0, x18
 3830 2ef0 F303012A 		mov	w19, w1
 3831 2ef4 72F07D92 		and	x18, x3, -8
 3832 2ef8 B3FFFF17 		b	.L1224
 3833              		.p2align 2
 3834              	.L1354:
 3835 2efc 42018052 		mov	w2, 10
 3836 2f00 13EAFF36 		tbz	w19, #31, .L1528
 3837 2f04 65000014 		b	.L1284
 3838              		.p2align 2
 3839              	.L1512:
 3840 2f08 3F600171 		cmp	w1, 88
 3841 2f0c A01C0054 		beq	.L1313
 3842 2f10 A9ECFF54 		bls	.L1489
 3843 2f14 3F8C0171 		cmp	w1, 99
 3844 2f18 80EAFF54 		beq	.L1246
 3845 2f1c 3F900171 		cmp	w1, 100
 3846 2f20 81EEFF54 		bne	.L1245
 3847              	.L1311:
 3848 2f24 331AF837 		tbnz	w19, #31, .L1264
 3849 2f28 412E0091 		add	x1, x18, 11
 3850 2f2c E00312AA 		mov	x0, x18
 3851 2f30 32F07D92 		and	x18, x1, -8
 3852              	.L1265:
 3853 2f34 01008079 		ldrsh	x1, [x0]
 3854 2f38 EE0305AA 		mov	x14, x5
 3855 2f3c 2B000014 		b	.L1263
 3856              		.p2align 2
 3857              	.L1330:
 3858 2f40 1F100071 		cmp	w0, 4
 3859 2f44 C0E7FF54 		beq	.L1323
 3860 2f48 1F200071 		cmp	w0, 8
 3861 2f4c 40E2FF54 		beq	.L1258
 3862              	.L1477:
 3863 2f50 010080D2 		mov	x1, 0
 3864 2f54 DDFEFF17 		b	.L1331
 3865              		.p2align 2
 3866              	.L1513:
AARCH64 GAS  C:\Users\A01169~1\AppData\Local\Temp\ccRWduX2.s 			page 69


 3867 2f58 3FC00171 		cmp	w1, 112
 3868 2f5c 40008052 		mov	w0, 2
 3869 2f60 00F7FF54 		beq	.L1249
 3870 2f64 63FFFF17 		b	.L1245
 3871              		.p2align 2
 3872              	.L1295:
 3873 2f68 61220011 		add	w1, w19, 8
 3874 2f6c 3F000071 		cmp	w1, 0
 3875 2f70 2D190054 		ble	.L1297
 3876 2f74 423E0091 		add	x2, x18, 15
 3877 2f78 E00312AA 		mov	x0, x18
 3878 2f7c F303012A 		mov	w19, w1
 3879 2f80 52F07D92 		and	x18, x2, -8
 3880 2f84 74FFFF17 		b	.L1296
 3881              		.p2align 2
 3882              	.L1516:
 3883 2f88 C1094039 		ldrb	w1, [x14, 2]
 3884 2f8c C5090091 		add	x5, x14, 2
 3885 2f90 A5040091 		add	x5, x5, 1
 3886 2f94 3FA40171 		cmp	w1, 105
 3887 2f98 81DEFF54 		bne	.L1503
 3888 2f9c 95FFFF17 		b	.L1253
 3889              		.p2align 2
 3890              	.L1511:
 3891 2fa0 C1094039 		ldrb	w1, [x14, 2]
 3892 2fa4 C50D0091 		add	x5, x14, 3
 3893 2fa8 3FA40171 		cmp	w1, 105
 3894 2fac 20010054 		beq	.L1240
 3895 2fb0 68090054 		bhi	.L1241
 3896 2fb4 3F600171 		cmp	w1, 88
 3897 2fb8 C0180054 		beq	.L1242
 3898 2fbc 49E7FF54 		bls	.L1489
 3899 2fc0 3F8C0171 		cmp	w1, 99
 3900 2fc4 20E5FF54 		beq	.L1246
 3901 2fc8 3F900171 		cmp	w1, 100
 3902 2fcc 21E9FF54 		bne	.L1245
 3903              	.L1240:
 3904 2fd0 D313F837 		tbnz	w19, #31, .L1260
 3905 2fd4 412E0091 		add	x1, x18, 11
 3906 2fd8 E00312AA 		mov	x0, x18
 3907 2fdc 32F07D92 		and	x18, x1, -8
 3908              	.L1261:
 3909 2fe0 01008039 		ldrsb	x1, [x0]
 3910 2fe4 EE0305AA 		mov	x14, x5
 3911              	.L1263:
 3912 2fe8 E5011B32 		orr	w5, w15, 32
 3913 2fec 9F040031 		cmn	w4, #1
 3914 2ff0 EF03052A 		mov	w15, w5
 3915 2ff4 84109F1A 		csel	w4, w4, wzr, ne
 3916 2ff8 42018052 		mov	w2, 10
 3917 2ffc E0C30091 		add	x0, sp, 48
 3918 3000 78F5FF97 		bl	cprint_int.constprop.3
 3919 3004 3CFEFF17 		b	.L1209
 3920              		.p2align 2
 3921              	.L1320:
 3922 3008 000B8012 		mov	w0, -89
 3923 300c EF01000A 		and	w15, w15, w0
AARCH64 GAS  C:\Users\A01169~1\AppData\Local\Temp\ccRWduX2.s 			page 70


 3924 3010 02028052 		mov	w2, 16
 3925 3014 000A8052 		mov	w0, 80
 3926 3018 EF01002A 		orr	w15, w15, w0
 3927 301c 33E1FF36 		tbz	w19, #31, .L1528
 3928 3020 1E000014 		b	.L1284
 3929              		.p2align 2
 3930              	.L1225:
 3931 3024 80C2338B 		add	x0, x20, x19, sxtw
 3932 3028 F303012A 		mov	w19, w1
 3933 302c 66FFFF17 		b	.L1224
 3934              		.p2align 2
 3935              	.L1291:
 3936 3030 60220011 		add	w0, w19, 8
 3937 3034 1F000071 		cmp	w0, 0
 3938 3038 8D120054 		ble	.L1293
 3939 303c 412E0091 		add	x1, x18, 11
 3940 3040 E20312AA 		mov	x2, x18
 3941 3044 F303002A 		mov	w19, w0
 3942 3048 32F07D92 		and	x18, x1, -8
 3943 304c 0BFFFF17 		b	.L1292
 3944              		.p2align 2
 3945              	.L1277:
 3946 3050 61220011 		add	w1, w19, 8
 3947 3054 3F000071 		cmp	w1, 0
 3948 3058 AD0C0054 		ble	.L1279
 3949 305c E00312AA 		mov	x0, x18
 3950 3060 462E0091 		add	x6, x18, 11
 3951 3064 F303012A 		mov	w19, w1
 3952 3068 D2F07D92 		and	x18, x6, -8
 3953 306c 01004039 		ldrb	w1, [x0]
 3954 3070 CEFEFF17 		b	.L1280
 3955              		.p2align 2
 3956              	.L1281:
 3957 3074 61220011 		add	w1, w19, 8
 3958 3078 3F000071 		cmp	w1, 0
 3959 307c 0D0B0054 		ble	.L1283
 3960 3080 E00312AA 		mov	x0, x18
 3961 3084 462E0091 		add	x6, x18, 11
 3962 3088 F303012A 		mov	w19, w1
 3963 308c D2F07D92 		and	x18, x6, -8
 3964 3090 01004079 		ldrh	w1, [x0]
 3965 3094 8BFEFF17 		b	.L1529
 3966              		.p2align 2
 3967              	.L1284:
 3968 3098 61220011 		add	w1, w19, 8
 3969 309c 3F000071 		cmp	w1, 0
 3970 30a0 6D090054 		ble	.L1286
 3971 30a4 E00312AA 		mov	x0, x18
 3972 30a8 462E0091 		add	x6, x18, 11
 3973 30ac F303012A 		mov	w19, w1
 3974 30b0 D2F07D92 		and	x18, x6, -8
 3975 30b4 010040B9 		ldr	w1, [x0]
 3976 30b8 BCFEFF17 		b	.L1280
 3977              		.p2align 2
 3978              	.L1287:
 3979 30bc 61220011 		add	w1, w19, 8
 3980 30c0 3F000071 		cmp	w1, 0
AARCH64 GAS  C:\Users\A01169~1\AppData\Local\Temp\ccRWduX2.s 			page 71


 3981 30c4 CD090054 		ble	.L1289
 3982 30c8 463E0091 		add	x6, x18, 15
 3983 30cc E00312AA 		mov	x0, x18
 3984 30d0 F303012A 		mov	w19, w1
 3985 30d4 D2F07D92 		and	x18, x6, -8
 3986 30d8 B3FEFF17 		b	.L1288
 3987              		.p2align 2
 3988              	.L1241:
 3989 30dc 3FCC0171 		cmp	w1, 115
 3990 30e0 00E3FF54 		beq	.L1355
 3991 30e4 49010054 		bls	.L1530
 3992 30e8 3FD40171 		cmp	w1, 117
 3993 30ec C0030054 		beq	.L1344
 3994 30f0 3FE00171 		cmp	w1, 120
 3995 30f4 E1DFFF54 		bne	.L1245
 3996 30f8 EF751B12 		and	w15, w15, -25
 3997 30fc 02028052 		mov	w2, 16
 3998 3100 EF01022A 		orr	w15, w15, w2
 3999 3104 B3EBFF36 		tbz	w19, #31, .L1531
 4000 3108 D2FFFF17 		b	.L1277
 4001              		.p2align 2
 4002              	.L1530:
 4003 310c 3FC00171 		cmp	w1, 112
 4004 3110 20008052 		mov	w0, 1
 4005 3114 60E9FF54 		beq	.L1249
 4006 3118 F6FEFF17 		b	.L1245
 4007              		.p2align 2
 4008              	.L1231:
 4009 311c 62220011 		add	w2, w19, 8
 4010 3120 5F000071 		cmp	w2, 0
 4011 3124 ED040054 		ble	.L1233
 4012 3128 442E0091 		add	x4, x18, 11
 4013 312c E10312AA 		mov	x1, x18
 4014 3130 F303022A 		mov	w19, w2
 4015 3134 92F07D92 		and	x18, x4, -8
 4016 3138 7EFEFF17 		b	.L1232
 4017              		.p2align 2
 4018              	.L1351:
 4019 313c 42018052 		mov	w2, 10
 4020 3140 93CBFF36 		tbz	w19, #31, .L1532
 4021 3144 CCFFFF17 		b	.L1281
 4022              		.p2align 2
 4023              	.L1326:
 4024 3148 000B8012 		mov	w0, -89
 4025 314c EF01000A 		and	w15, w15, w0
 4026 3150 02028052 		mov	w2, 16
 4027 3154 000A8052 		mov	w0, 80
 4028 3158 EF01002A 		orr	w15, w15, w0
 4029 315c F3D1FF36 		tbz	w19, #31, .L1526
 4030 3160 D7FFFF17 		b	.L1287
 4031              		.p2align 2
 4032              	.L1344:
 4033 3164 42018052 		mov	w2, 10
 4034 3168 93E8FF36 		tbz	w19, #31, .L1531
 4035 316c B9FFFF17 		b	.L1277
 4036              		.p2align 2
 4037              	.L1298:
AARCH64 GAS  C:\Users\A01169~1\AppData\Local\Temp\ccRWduX2.s 			page 72


 4038 3170 23004039 		ldrb	w3, [x1]
 4039 3174 03BCFF34 		cbz	w3, .L1209
 4040 3178 E00B43A9 		ldp	x0, x2, [sp, 48]
 4041 317c 1F2003D5 		.p2align 3
 4042              	.L1300:
 4043 3180 21040091 		add	x1, x1, 1
 4044 3184 420100B4 		cbz	x2, .L1301
 4045              	.L1533:
 4046 3188 03000039 		strb	w3, [x0]
 4047 318c E00B43A9 		ldp	x0, x2, [sp, 48]
 4048 3190 00040091 		add	x0, x0, 1
 4049 3194 420400D1 		sub	x2, x2, #1
 4050 3198 E00B03A9 		stp	x0, x2, [sp, 48]
 4051 319c 23004039 		ldrb	w3, [x1]
 4052 31a0 A3BAFF34 		cbz	w3, .L1209
 4053 31a4 21040091 		add	x1, x1, 1
 4054 31a8 02FFFFB5 		cbnz	x2, .L1533
 4055              	.L1301:
 4056 31ac 00040091 		add	x0, x0, 1
 4057 31b0 E01B00F9 		str	x0, [sp, 48]
 4058 31b4 23004039 		ldrb	w3, [x1]
 4059 31b8 43FEFF35 		cbnz	w3, .L1300
 4060 31bc CEFDFF17 		b	.L1209
 4061              		.p2align 2
 4062              	.L1233:
 4063 31c0 81C2338B 		add	x1, x20, x19, sxtw
 4064 31c4 F303022A 		mov	w19, w2
 4065 31c8 5AFEFF17 		b	.L1232
 4066              		.p2align 2
 4067              	.L1286:
 4068 31cc 80C2338B 		add	x0, x20, x19, sxtw
 4069 31d0 F303012A 		mov	w19, w1
 4070 31d4 010040B9 		ldr	w1, [x0]
 4071 31d8 74FEFF17 		b	.L1280
 4072              		.p2align 2
 4073              	.L1283:
 4074 31dc 80C2338B 		add	x0, x20, x19, sxtw
 4075 31e0 F303012A 		mov	w19, w1
 4076 31e4 01004079 		ldrh	w1, [x0]
 4077 31e8 36FEFF17 		b	.L1529
 4078              		.p2align 2
 4079              	.L1279:
 4080 31ec 80C2338B 		add	x0, x20, x19, sxtw
 4081 31f0 F303012A 		mov	w19, w1
 4082 31f4 01004039 		ldrb	w1, [x0]
 4083 31f8 6CFEFF17 		b	.L1280
 4084              		.p2align 2
 4085              	.L1289:
 4086 31fc 80C2338B 		add	x0, x20, x19, sxtw
 4087 3200 F303012A 		mov	w19, w1
 4088 3204 68FEFF17 		b	.L1288
 4089              		.p2align 2
 4090              	.L1267:
 4091 3208 61220011 		add	w1, w19, 8
 4092 320c 3F000071 		cmp	w1, 0
 4093 3210 4D070054 		ble	.L1269
 4094 3214 422E0091 		add	x2, x18, 11
AARCH64 GAS  C:\Users\A01169~1\AppData\Local\Temp\ccRWduX2.s 			page 73


 4095 3218 E00312AA 		mov	x0, x18
 4096 321c F303012A 		mov	w19, w1
 4097 3220 52F07D92 		and	x18, x2, -8
 4098 3224 ACFEFF17 		b	.L1268
 4099              		.p2align 2
 4100              	.L1270:
 4101 3228 61220011 		add	w1, w19, 8
 4102 322c 3F000071 		cmp	w1, 0
 4103 3230 AD060054 		ble	.L1272
 4104 3234 423E0091 		add	x2, x18, 15
 4105 3238 E00312AA 		mov	x0, x18
 4106 323c F303012A 		mov	w19, w1
 4107 3240 52F07D92 		and	x18, x2, -8
 4108 3244 F0FEFF17 		b	.L1271
 4109              		.p2align 2
 4110              	.L1260:
 4111 3248 61220011 		add	w1, w19, 8
 4112 324c 3F000071 		cmp	w1, 0
 4113 3250 0D060054 		ble	.L1262
 4114 3254 422E0091 		add	x2, x18, 11
 4115 3258 E00312AA 		mov	x0, x18
 4116 325c F303012A 		mov	w19, w1
 4117 3260 52F07D92 		and	x18, x2, -8
 4118 3264 5FFFFF17 		b	.L1261
 4119              		.p2align 2
 4120              	.L1264:
 4121 3268 61220011 		add	w1, w19, 8
 4122 326c 3F000071 		cmp	w1, 0
 4123 3270 ED030054 		ble	.L1266
 4124 3274 422E0091 		add	x2, x18, 11
 4125 3278 E00312AA 		mov	x0, x18
 4126 327c F303012A 		mov	w19, w1
 4127 3280 52F07D92 		and	x18, x2, -8
 4128 3284 2CFFFF17 		b	.L1265
 4129              		.p2align 2
 4130              	.L1293:
 4131 3288 82C2338B 		add	x2, x20, x19, sxtw
 4132 328c F303002A 		mov	w19, w0
 4133 3290 7AFEFF17 		b	.L1292
 4134              		.p2align 2
 4135              	.L1297:
 4136 3294 80C2338B 		add	x0, x20, x19, sxtw
 4137 3298 F303012A 		mov	w19, w1
 4138 329c AEFEFF17 		b	.L1296
 4139              		.p2align 2
 4140              	.L1313:
 4141 32a0 000B8012 		mov	w0, -89
 4142 32a4 EF01000A 		and	w15, w15, w0
 4143 32a8 02028052 		mov	w2, 16
 4144 32ac 000A8052 		mov	w0, 80
 4145 32b0 EF01002A 		orr	w15, w15, w0
 4146 32b4 F3BFFF36 		tbz	w19, #31, .L1532
 4147 32b8 6FFFFF17 		b	.L1281
 4148              		.p2align 2
 4149              	.L1527:
 4150 32bc EE0305AA 		mov	x14, x5
 4151 32c0 A5040091 		add	x5, x5, 1
AARCH64 GAS  C:\Users\A01169~1\AppData\Local\Temp\ccRWduX2.s 			page 74


 4152 32c4 E4FDFF17 		b	.L1228
 4153              		.p2align 2
 4154              	.L1522:
 4155 32c8 A5040091 		add	x5, x5, 1
 4156 32cc 92FEFF17 		b	.L1306
 4157              		.p2align 2
 4158              	.L1242:
 4159 32d0 000B8012 		mov	w0, -89
 4160 32d4 EF01000A 		and	w15, w15, w0
 4161 32d8 02028052 		mov	w2, 16
 4162 32dc 000A8052 		mov	w0, 80
 4163 32e0 EF01002A 		orr	w15, w15, w0
 4164 32e4 B3DCFF36 		tbz	w19, #31, .L1531
 4165 32e8 5AFFFF17 		b	.L1277
 4166              	.L1266:
 4167 32ec 80C2338B 		add	x0, x20, x19, sxtw
 4168 32f0 F303012A 		mov	w19, w1
 4169 32f4 10FFFF17 		b	.L1265
 4170              	.L1269:
 4171 32f8 80C2338B 		add	x0, x20, x19, sxtw
 4172 32fc F303012A 		mov	w19, w1
 4173 3300 75FEFF17 		b	.L1268
 4174              	.L1272:
 4175 3304 80C2338B 		add	x0, x20, x19, sxtw
 4176 3308 F303012A 		mov	w19, w1
 4177 330c BEFEFF17 		b	.L1271
 4178              	.L1262:
 4179 3310 80C2338B 		add	x0, x20, x19, sxtw
 4180 3314 F303012A 		mov	w19, w1
 4181 3318 32FFFF17 		b	.L1261
 4182              		.size	vsnprintf, .-vsnprintf
 4183              		.align	2
 4184 331c 1F2003D5 		.p2align 4,,15
 4185              		.global	snprintf
 4186              		.type	snprintf, %function
 4187              	snprintf:
 4188 3320 FF0304D1 		sub	sp, sp, #256
 4189 3324 E9048012 		mov	w9, -40
 4190 3328 EA430391 		add	x10, sp, 208
 4191 332c EB030491 		add	x11, sp, 256
 4192 3330 E80F8012 		mov	w8, -128
 4193 3334 EB2F03A9 		stp	x11, x11, [sp, 48]
 4194 3338 EA2300F9 		str	x10, [sp, 64]
 4195 333c E9230929 		stp	w9, w8, [sp, 72]
 4196 3340 EA2F43A9 		ldp	x10, x11, [sp, 48]
 4197 3344 FE0300F9 		str	x30, [sp]
 4198 3348 E82744A9 		ldp	x8, x9, [sp, 64]
 4199 334c EA2F01A9 		stp	x10, x11, [sp, 16]
 4200 3350 E82702A9 		stp	x8, x9, [sp, 32]
 4201 3354 E017803D 		str	q0, [sp, 80]
 4202 3358 E11B803D 		str	q1, [sp, 96]
 4203 335c E21F803D 		str	q2, [sp, 112]
 4204 3360 E323803D 		str	q3, [sp, 128]
 4205 3364 E427803D 		str	q4, [sp, 144]
 4206 3368 E52B803D 		str	q5, [sp, 160]
 4207 336c E62F803D 		str	q6, [sp, 176]
 4208 3370 E733803D 		str	q7, [sp, 192]
AARCH64 GAS  C:\Users\A01169~1\AppData\Local\Temp\ccRWduX2.s 			page 75


 4209 3374 E3930DA9 		stp	x3, x4, [sp, 216]
 4210 3378 E3430091 		add	x3, sp, 16
 4211 337c E59B0EA9 		stp	x5, x6, [sp, 232]
 4212 3380 E77F00F9 		str	x7, [sp, 248]
 4213 3384 00000094 		bl	vsnprintf
 4214 3388 FE0340F9 		ldr	x30, [sp]
 4215 338c FF030491 		add	sp, sp, 256
 4216 3390 C0035FD6 		ret
 4217              		.size	snprintf, .-snprintf
 4218              		.align	2
 4219 3394 1F2003D5 		.p2align 4,,15
 4219      1F2003D5 
 4219      1F2003D5 
 4220              		.global	cprintf
 4221              		.type	cprintf, %function
 4222              	cprintf:
 4223 33a0 FF0304D1 		sub	sp, sp, #256
 4224 33a4 E9048012 		mov	w9, -40
 4225 33a8 EA430391 		add	x10, sp, 208
 4226 33ac EB030491 		add	x11, sp, 256
 4227 33b0 E80F8012 		mov	w8, -128
 4228 33b4 EB2F03A9 		stp	x11, x11, [sp, 48]
 4229 33b8 EA2300F9 		str	x10, [sp, 64]
 4230 33bc E9230929 		stp	w9, w8, [sp, 72]
 4231 33c0 EA2F43A9 		ldp	x10, x11, [sp, 48]
 4232 33c4 FE0300F9 		str	x30, [sp]
 4233 33c8 E82744A9 		ldp	x8, x9, [sp, 64]
 4234 33cc EA2F01A9 		stp	x10, x11, [sp, 16]
 4235 33d0 E82702A9 		stp	x8, x9, [sp, 32]
 4236 33d4 E017803D 		str	q0, [sp, 80]
 4237 33d8 E11B803D 		str	q1, [sp, 96]
 4238 33dc E21F803D 		str	q2, [sp, 112]
 4239 33e0 E323803D 		str	q3, [sp, 128]
 4240 33e4 E427803D 		str	q4, [sp, 144]
 4241 33e8 E52B803D 		str	q5, [sp, 160]
 4242 33ec E62F803D 		str	q6, [sp, 176]
 4243 33f0 E733803D 		str	q7, [sp, 192]
 4244 33f4 E3930DA9 		stp	x3, x4, [sp, 216]
 4245 33f8 E3430091 		add	x3, sp, 16
 4246 33fc E59B0EA9 		stp	x5, x6, [sp, 232]
 4247 3400 E77F00F9 		str	x7, [sp, 248]
 4248 3404 00000094 		bl	vcprintf
 4249 3408 FE0340F9 		ldr	x30, [sp]
 4250 340c FF030491 		add	sp, sp, 256
 4251 3410 C0035FD6 		ret
 4252              		.size	cprintf, .-cprintf
 4253              		.section	.rodata.str1.8,"aMS",@progbits,1
 4254              		.align	3
 4255              	.LC0:
 4256 0000 30313233 		.string	"0123456789ABCDEF"
 4256      34353637 
 4256      38394142 
 4256      43444546 
 4256      00
 4257              		.ident	"GCC: (GNU Toolchain for the A-profile Architecture 8.3-2019.03 (arm-rel-8.36)) 8.3.0"
AARCH64 GAS  C:\Users\A01169~1\AppData\Local\Temp\ccRWduX2.s 			page 76


DEFINED SYMBOLS
                            *ABS*:0000000000000000 kprintf.c
C:\Users\A01169~1\AppData\Local\Temp\ccRWduX2.s:4      .text:0000000000000000 $x
C:\Users\A01169~1\AppData\Local\Temp\ccRWduX2.s:7      .text:0000000000000000 buffer_add
C:\Users\A01169~1\AppData\Local\Temp\ccRWduX2.s:24     .text:0000000000000030 local_putc
C:\Users\A01169~1\AppData\Local\Temp\ccRWduX2.s:33     .text:0000000000000040 debug_putc
C:\Users\A01169~1\AppData\Local\Temp\ccRWduX2.s:41     .text:0000000000000050 cprint_int.constprop.4
C:\Users\A01169~1\AppData\Local\Temp\ccRWduX2.s:252    .text:0000000000000310 cprint_int.constprop.5
C:\Users\A01169~1\AppData\Local\Temp\ccRWduX2.s:470    .text:00000000000005e0 cprint_int.constprop.3
C:\Users\A01169~1\AppData\Local\Temp\ccRWduX2.s:758    .text:0000000000000990 kprintf
C:\Users\A01169~1\AppData\Local\Temp\ccRWduX2.s:1542   .text:00000000000012d0 kprintf_debug
C:\Users\A01169~1\AppData\Local\Temp\ccRWduX2.s:2322   .text:0000000000001c10 atoi
C:\Users\A01169~1\AppData\Local\Temp\ccRWduX2.s:2348   .text:0000000000001c60 cprint_int
C:\Users\A01169~1\AppData\Local\Temp\ccRWduX2.s:2560   .text:0000000000001f20 vcprintf
C:\Users\A01169~1\AppData\Local\Temp\ccRWduX2.s:3337   .text:00000000000028d0 vsnprintf
C:\Users\A01169~1\AppData\Local\Temp\ccRWduX2.s:4187   .text:0000000000003320 snprintf
C:\Users\A01169~1\AppData\Local\Temp\ccRWduX2.s:4222   .text:00000000000033a0 cprintf
C:\Users\A01169~1\AppData\Local\Temp\ccRWduX2.s:4254   .rodata.str1.8:0000000000000000 $d

UNDEFINED SYMBOLS
hal_video_putc
hal_io_serial_putc
AARCH64 GAS  C:\Users\A01169~1\AppData\Local\Temp\ccRWduX2.s 			page 1


   1              		.arch armv8-a
   2              		.file	"kprintf_hex_dump.c"
   3              		.text
   4              		.align	2
   5              		.p2align 4,,15
   6              		.global	kprintf_hex_dump
   7              		.type	kprintf_hex_dump, %function
   8              	kprintf_hex_dump:
   9 0000 F353B8A9 		stp	x19, x20, [sp, -128]!
  10 0004 FB7304A9 		stp	x27, x28, [sp, 64]
  11 0008 FB03012A 		mov	w27, w1
  12 000c E10300AA 		mov	x1, x0
  13 0010 F55B01A9 		stp	x21, x22, [sp, 16]
  14 0014 F603022A 		mov	w22, w2
  15 0018 FE2B00F9 		str	x30, [sp, 80]
  16 001c E03700F9 		str	x0, [sp, 104]
  17 0020 60530071 		subs	w0, w27, #20
  18 0024 E07F00B9 		str	w0, [sp, 124]
  19 0028 A0100054 		beq	.L21
  20 002c 34500091 		add	x20, x1, 20
  21 0030 F76302A9 		stp	x23, x24, [sp, 32]
  22 0034 18000090 		adrp	x24, .LC0
  23 0038 18030091 		add	x24, x24, :lo12:.LC0
  24 003c F703032A 		mov	w23, w3
  25 0040 F96B03A9 		stp	x25, x26, [sp, 48]
  26 0044 19000090 		adrp	x25, .LC1
  27 0048 39030091 		add	x25, x25, :lo12:.LC1
  28 004c 00000090 		adrp	x0, .LC4
  29 0050 00000091 		add	x0, x0, :lo12:.LC4
  30 0054 93028052 		mov	w19, 20
  31 0058 E03B00F9 		str	x0, [sp, 112]
  32 005c 1F2003D5 		.p2align 3
  33              	.L10:
  34 0060 9C5200D1 		sub	x28, x20, #20
  35 0064 75520051 		sub	w21, w19, #20
  36 0068 FA031CAA 		mov	x26, x28
  37 006c 07000014 		b	.L5
  38              		.p2align 2
  39              	.L32:
  40 0070 E00318AA 		mov	x0, x24
  41 0074 B5060011 		add	w21, w21, 1
  42 0078 00000094 		bl	kprintf
  43 007c 5A070091 		add	x26, x26, 1
  44 0080 BF02136B 		cmp	w21, w19
  45 0084 60010054 		beq	.L31
  46              	.L5:
  47 0088 DF02156B 		cmp	w22, w21
  48 008c 41034039 		ldrb	w1, [x26]
  49 0090 E092557A 		ccmp	w23, w21, 0, ls
  50 0094 E2FEFF54 		bcs	.L32
  51 0098 E00319AA 		mov	x0, x25
  52 009c B5060011 		add	w21, w21, 1
  53 00a0 00000094 		bl	kprintf
  54 00a4 5A070091 		add	x26, x26, 1
  55 00a8 BF02136B 		cmp	w21, w19
  56 00ac E1FEFF54 		bne	.L5
  57              	.L31:
AARCH64 GAS  C:\Users\A01169~1\AppData\Local\Temp\ccRWduX2.s 			page 2


  58 00b0 15000090 		adrp	x21, .LC2
  59 00b4 B5020091 		add	x21, x21, :lo12:.LC2
  60 00b8 1A000090 		adrp	x26, .LC3
  61 00bc 5A030091 		add	x26, x26, :lo12:.LC3
  62              		.p2align 3
  63              	.L9:
  64 00c0 81034039 		ldrb	w1, [x28]
  65 00c4 E00315AA 		mov	x0, x21
  66 00c8 22781A12 		and	w2, w1, -33
  67 00cc 24C00051 		sub	w4, w1, #48
  68 00d0 42040151 		sub	w2, w2, #65
  69 00d4 3F280071 		cmp	w1, 10
  70 00d8 421C0012 		and	w2, w2, 255
  71 00dc 841C0012 		and	w4, w4, 255
  72 00e0 24184D7A 		ccmp	w1, 13, 4, ne
  73 00e4 C0000054 		beq	.L6
  74 00e8 5F640071 		cmp	w2, 25
  75 00ec 69000054 		bls	.L7
  76 00f0 9F240071 		cmp	w4, 9
  77 00f4 E8010054 		bhi	.L8
  78              	.L7:
  79 00f8 00000094 		bl	kprintf
  80              	.L6:
  81 00fc 9C070091 		add	x28, x28, 1
  82 0100 9F021CEB 		cmp	x20, x28
  83 0104 E1FDFF54 		bne	.L9
  84 0108 E03B40F9 		ldr	x0, [sp, 112]
  85 010c 94520091 		add	x20, x20, 20
  86 0110 00000094 		bl	kprintf
  87 0114 E07F40B9 		ldr	w0, [sp, 124]
  88 0118 61520011 		add	w1, w19, 20
  89 011c 7F02006B 		cmp	w19, w0
  90 0120 E003132A 		mov	w0, w19
  91 0124 C2000054 		bcs	.L33
  92 0128 F303012A 		mov	w19, w1
  93 012c CDFFFF17 		b	.L10
  94              		.p2align 2
  95              	.L8:
  96 0130 E0031AAA 		mov	x0, x26
  97 0134 00000094 		bl	kprintf
  98 0138 F1FFFF17 		b	.L6
  99              	.L33:
 100 013c FF02136B 		cmp	w23, w19
 101 0140 E1379F1A 		cset	w1, cs
 102 0144 7F03136B 		cmp	w27, w19
 103 0148 F76342A9 		ldp	x23, x24, [sp, 32]
 104 014c F96B43A9 		ldp	x25, x26, [sp, 48]
 105 0150 E9040054 		bls	.L20
 106              	.L2:
 107 0154 3F000071 		cmp	w1, 0
 108 0158 6012567A 		ccmp	w19, w22, 0, ne
 109 015c 137C4093 		sxtw	x19, w0
 110 0160 22050054 		bcs	.L12
 111 0164 15000090 		adrp	x21, .LC1
 112 0168 B5020091 		add	x21, x21, :lo12:.LC1
 113 016c F40313AA 		mov	x20, x19
 114              		.p2align 3
AARCH64 GAS  C:\Users\A01169~1\AppData\Local\Temp\ccRWduX2.s 			page 3


 115              	.L13:
 116 0170 E03740F9 		ldr	x0, [sp, 104]
 117 0174 01687438 		ldrb	w1, [x0, x20]
 118 0178 E00315AA 		mov	x0, x21
 119 017c 94060091 		add	x20, x20, 1
 120 0180 00000094 		bl	kprintf
 121 0184 7F03146B 		cmp	w27, w20
 122 0188 48FFFF54 		bhi	.L13
 123              	.L14:
 124 018c 14000090 		adrp	x20, .LC2
 125 0190 94020091 		add	x20, x20, :lo12:.LC2
 126 0194 15000090 		adrp	x21, .LC3
 127 0198 B5020091 		add	x21, x21, :lo12:.LC3
 128 019c 1F2003D5 		.p2align 3
 129              	.L19:
 130 01a0 E03740F9 		ldr	x0, [sp, 104]
 131 01a4 01687338 		ldrb	w1, [x0, x19]
 132 01a8 E00314AA 		mov	x0, x20
 133 01ac 22781A12 		and	w2, w1, -33
 134 01b0 23C00051 		sub	w3, w1, #48
 135 01b4 42040151 		sub	w2, w2, #65
 136 01b8 3F280071 		cmp	w1, 10
 137 01bc 421C0012 		and	w2, w2, 255
 138 01c0 631C0012 		and	w3, w3, 255
 139 01c4 24184D7A 		ccmp	w1, 13, 4, ne
 140 01c8 C0000054 		beq	.L16
 141 01cc 5F640071 		cmp	w2, 25
 142 01d0 69000054 		bls	.L17
 143 01d4 7F240071 		cmp	w3, 9
 144 01d8 C8020054 		bhi	.L18
 145              	.L17:
 146 01dc 00000094 		bl	kprintf
 147              	.L16:
 148 01e0 73060091 		add	x19, x19, 1
 149 01e4 7F03136B 		cmp	w27, w19
 150 01e8 C8FDFF54 		bhi	.L19
 151              	.L20:
 152 01ec F55B41A9 		ldp	x21, x22, [sp, 16]
 153 01f0 FB7344A9 		ldp	x27, x28, [sp, 64]
 154 01f4 FE2B40F9 		ldr	x30, [sp, 80]
 155 01f8 E03B40F9 		ldr	x0, [sp, 112]
 156 01fc F353C8A8 		ldp	x19, x20, [sp], 128
 157 0200 00000014 		b	kprintf
 158              	.L12:
 159 0204 15000090 		adrp	x21, .LC0
 160 0208 B5020091 		add	x21, x21, :lo12:.LC0
 161 020c F40313AA 		mov	x20, x19
 162              		.p2align 3
 163              	.L15:
 164 0210 E03740F9 		ldr	x0, [sp, 104]
 165 0214 01687438 		ldrb	w1, [x0, x20]
 166 0218 E00315AA 		mov	x0, x21
 167 021c 94060091 		add	x20, x20, 1
 168 0220 00000094 		bl	kprintf
 169 0224 7F03146B 		cmp	w27, w20
 170 0228 48FFFF54 		bhi	.L15
 171 022c D8FFFF17 		b	.L14
AARCH64 GAS  C:\Users\A01169~1\AppData\Local\Temp\ccRWduX2.s 			page 4


 172              	.L18:
 173 0230 E00315AA 		mov	x0, x21
 174 0234 00000094 		bl	kprintf
 175 0238 EAFFFF17 		b	.L16
 176              	.L21:
 177 023c 00000090 		adrp	x0, .LC4
 178 0240 00000091 		add	x0, x0, :lo12:.LC4
 179 0244 13008052 		mov	w19, 0
 180 0248 21008052 		mov	w1, 1
 181 024c E03B00F9 		str	x0, [sp, 112]
 182 0250 00008052 		mov	w0, 0
 183 0254 C0FFFF17 		b	.L2
 184              		.size	kprintf_hex_dump, .-kprintf_hex_dump
 185              		.section	.rodata.str1.8,"aMS",@progbits,1
 186              		.align	3
 187              	.LC0:
 188 0000 21253032 		.string	"!%02x "
 188      782000
 189 0007 00       		.zero	1
 190              	.LC1:
 191 0008 25303278 		.string	"%02x "
 191      2000
 192 000e 0000     		.zero	2
 193              	.LC2:
 194 0010 256300   		.string	"%c"
 195 0013 00000000 		.zero	5
 195      00
 196              	.LC3:
 197 0018 2000     		.string	" "
 198 001a 00000000 		.zero	6
 198      0000
 199              	.LC4:
 200 0020 0A0D00   		.string	"\n\r"
 201              		.ident	"GCC: (GNU Toolchain for the A-profile Architecture 8.3-2019.03 (arm-rel-8.36)) 8.3.0"
AARCH64 GAS  C:\Users\A01169~1\AppData\Local\Temp\ccRWduX2.s 			page 5


DEFINED SYMBOLS
                            *ABS*:0000000000000000 kprintf_hex_dump.c
C:\Users\A01169~1\AppData\Local\Temp\ccRWduX2.s:4      .text:0000000000000000 $x
C:\Users\A01169~1\AppData\Local\Temp\ccRWduX2.s:8      .text:0000000000000000 kprintf_hex_dump
C:\Users\A01169~1\AppData\Local\Temp\ccRWduX2.s:186    .rodata.str1.8:0000000000000000 $d

UNDEFINED SYMBOLS
kprintf
